
E:/IAR_Projects/STM32F4xx/w25qxx/Examples/RP2040/build/rp2040_w25qxx.elf:     file format elf32-littlearm

Sections:
Idx Name          Size      VMA       LMA       File off  Algn
  0 .boot2        00000100  10000000  10000000  00001000  2**0
                  CONTENTS, ALLOC, LOAD, READONLY, CODE
  1 .text         000092a8  10000100  10000100  00001100  2**3
                  CONTENTS, ALLOC, LOAD, READONLY, CODE
  2 .rodata       000016c0  100093a8  100093a8  0000a3a8  2**3
                  CONTENTS, ALLOC, LOAD, READONLY, DATA
  3 .binary_info  00000028  1000aa68  1000aa68  0000ba68  2**2
                  CONTENTS, ALLOC, LOAD, READONLY, DATA
  4 .ram_vector_table 000000c0  20000000  20000000  0000d000  2**2
                  ALLOC
  5 .data         00000514  200000c0  1000aa90  0000c0c0  2**4
                  CONTENTS, ALLOC, LOAD, READONLY, CODE
  6 .uninitialized_data 00000000  200005d4  200005d4  0000c5d4  2**0
                  CONTENTS
  7 .scratch_x    00000000  20040000  20040000  0000c5d4  2**0
                  CONTENTS
  8 .scratch_y    00000000  20041000  20041000  0000c5d4  2**0
                  CONTENTS
  9 .bss          00000510  200005d8  200005d8  0000d000  2**3
                  ALLOC
 10 .heap         00000800  20000ae8  20000ae8  0000c5d4  2**2
                  CONTENTS, READONLY
 11 .stack_dummy  00000800  20041000  20041000  0000cde0  2**5
                  CONTENTS, READONLY
 12 .ARM.attributes 00000028  00000000  00000000  0000d5e0  2**0
                  CONTENTS, READONLY
 13 .comment      00000044  00000000  00000000  0000d608  2**0
                  CONTENTS, READONLY
 14 .debug_info   00010b2a  00000000  00000000  0000d64c  2**0
                  CONTENTS, READONLY, DEBUGGING, OCTETS
 15 .debug_abbrev 00004701  00000000  00000000  0001e176  2**0
                  CONTENTS, READONLY, DEBUGGING, OCTETS
 16 .debug_aranges 000013a0  00000000  00000000  00022878  2**3
                  CONTENTS, READONLY, DEBUGGING, OCTETS
 17 .debug_rnglists 00000e71  00000000  00000000  00023c18  2**0
                  CONTENTS, READONLY, DEBUGGING, OCTETS
 18 .debug_line   0000dd9e  00000000  00000000  00024a89  2**0
                  CONTENTS, READONLY, DEBUGGING, OCTETS
 19 .debug_str    00004364  00000000  00000000  00032827  2**0
                  CONTENTS, READONLY, DEBUGGING, OCTETS
 20 .debug_frame  00003380  00000000  00000000  00036b8c  2**2
                  CONTENTS, READONLY, DEBUGGING, OCTETS
 21 .debug_line_str 00000314  00000000  00000000  00039f0c  2**0
                  CONTENTS, READONLY, DEBUGGING, OCTETS

E:/IAR_Projects/STM32F4xx/w25qxx/Examples/RP2040/build/rp2040_w25qxx.elf:     file format elf32-littlearm


Disassembly of section .boot2:

10000000 <__boot2_start__>:
10000000:	4b32b500 	.word	0x4b32b500
10000004:	60582021 	.word	0x60582021
10000008:	21026898 	.word	0x21026898
1000000c:	60984388 	.word	0x60984388
10000010:	611860d8 	.word	0x611860d8
10000014:	4b2e6158 	.word	0x4b2e6158
10000018:	60992100 	.word	0x60992100
1000001c:	61592102 	.word	0x61592102
10000020:	22f02101 	.word	0x22f02101
10000024:	492b5099 	.word	0x492b5099
10000028:	21016019 	.word	0x21016019
1000002c:	20356099 	.word	0x20356099
10000030:	f844f000 	.word	0xf844f000
10000034:	42902202 	.word	0x42902202
10000038:	2106d014 	.word	0x2106d014
1000003c:	f0006619 	.word	0xf0006619
10000040:	6e19f834 	.word	0x6e19f834
10000044:	66192101 	.word	0x66192101
10000048:	66182000 	.word	0x66182000
1000004c:	f000661a 	.word	0xf000661a
10000050:	6e19f82c 	.word	0x6e19f82c
10000054:	6e196e19 	.word	0x6e196e19
10000058:	f0002005 	.word	0xf0002005
1000005c:	2101f82f 	.word	0x2101f82f
10000060:	d1f94208 	.word	0xd1f94208
10000064:	60992100 	.word	0x60992100
10000068:	6019491b 	.word	0x6019491b
1000006c:	60592100 	.word	0x60592100
10000070:	481b491a 	.word	0x481b491a
10000074:	21016001 	.word	0x21016001
10000078:	21eb6099 	.word	0x21eb6099
1000007c:	21a06619 	.word	0x21a06619
10000080:	f0006619 	.word	0xf0006619
10000084:	2100f812 	.word	0x2100f812
10000088:	49166099 	.word	0x49166099
1000008c:	60014814 	.word	0x60014814
10000090:	60992101 	.word	0x60992101
10000094:	2800bc01 	.word	0x2800bc01
10000098:	4700d000 	.word	0x4700d000
1000009c:	49134812 	.word	0x49134812
100000a0:	c8036008 	.word	0xc8036008
100000a4:	8808f380 	.word	0x8808f380
100000a8:	b5034708 	.word	0xb5034708
100000ac:	20046a99 	.word	0x20046a99
100000b0:	d0fb4201 	.word	0xd0fb4201
100000b4:	42012001 	.word	0x42012001
100000b8:	bd03d1f8 	.word	0xbd03d1f8
100000bc:	6618b502 	.word	0x6618b502
100000c0:	f7ff6618 	.word	0xf7ff6618
100000c4:	6e18fff2 	.word	0x6e18fff2
100000c8:	bd026e18 	.word	0xbd026e18
100000cc:	40020000 	.word	0x40020000
100000d0:	18000000 	.word	0x18000000
100000d4:	00070000 	.word	0x00070000
100000d8:	005f0300 	.word	0x005f0300
100000dc:	00002221 	.word	0x00002221
100000e0:	180000f4 	.word	0x180000f4
100000e4:	a0002022 	.word	0xa0002022
100000e8:	10000100 	.word	0x10000100
100000ec:	e000ed08 	.word	0xe000ed08
	...
100000fc:	7a4eb274 	.word	0x7a4eb274

Disassembly of section .text:

10000100 <__VECTOR_TABLE>:
10000100:	20042000 	.word	0x20042000
10000104:	100001f7 	.word	0x100001f7
10000108:	100001c3 	.word	0x100001c3
1000010c:	100001c5 	.word	0x100001c5
10000110:	100001c1 	.word	0x100001c1
10000114:	100001c1 	.word	0x100001c1
10000118:	100001c1 	.word	0x100001c1
1000011c:	100001c1 	.word	0x100001c1
10000120:	100001c1 	.word	0x100001c1
10000124:	100001c1 	.word	0x100001c1
10000128:	100001c1 	.word	0x100001c1
1000012c:	100001c7 	.word	0x100001c7
10000130:	100001c1 	.word	0x100001c1
10000134:	100001c1 	.word	0x100001c1
10000138:	100001c9 	.word	0x100001c9
1000013c:	100001cb 	.word	0x100001cb
10000140:	100001cd 	.word	0x100001cd
10000144:	100001cd 	.word	0x100001cd
10000148:	100001cd 	.word	0x100001cd
1000014c:	100001cd 	.word	0x100001cd
10000150:	100001cd 	.word	0x100001cd
10000154:	100001cd 	.word	0x100001cd
10000158:	100001cd 	.word	0x100001cd
1000015c:	100001cd 	.word	0x100001cd
10000160:	100001cd 	.word	0x100001cd
10000164:	100001cd 	.word	0x100001cd
10000168:	100001cd 	.word	0x100001cd
1000016c:	100001cd 	.word	0x100001cd
10000170:	100001cd 	.word	0x100001cd
10000174:	100001cd 	.word	0x100001cd
10000178:	100001cd 	.word	0x100001cd
1000017c:	100001cd 	.word	0x100001cd
10000180:	100001cd 	.word	0x100001cd
10000184:	100001cd 	.word	0x100001cd
10000188:	100001cd 	.word	0x100001cd
1000018c:	100001cd 	.word	0x100001cd
10000190:	100001cd 	.word	0x100001cd
10000194:	100001cd 	.word	0x100001cd
10000198:	100001cd 	.word	0x100001cd
1000019c:	100001cd 	.word	0x100001cd
100001a0:	100001cd 	.word	0x100001cd
100001a4:	100001cd 	.word	0x100001cd
100001a8:	100001cd 	.word	0x100001cd
100001ac:	100001cd 	.word	0x100001cd
100001b0:	100001cd 	.word	0x100001cd
100001b4:	100001cd 	.word	0x100001cd
100001b8:	100001cd 	.word	0x100001cd
100001bc:	100001cd 	.word	0x100001cd

100001c0 <isr_invalid>:
100001c0:	be00      	bkpt	0x0000

100001c2 <isr_nmi>:
100001c2:	be00      	bkpt	0x0000

100001c4 <isr_hardfault>:
100001c4:	be00      	bkpt	0x0000

100001c6 <isr_svcall>:
100001c6:	be00      	bkpt	0x0000

100001c8 <isr_pendsv>:
100001c8:	be00      	bkpt	0x0000

100001ca <isr_systick>:
100001ca:	be00      	bkpt	0x0000

100001cc <__unhandled_user_irq>:
100001cc:	f3ef 8005 	mrs	r0, IPSR
100001d0:	3810      	subs	r0, #16

100001d2 <unhandled_user_irq_num_in_r0>:
100001d2:	be00      	bkpt	0x0000

100001d4 <binary_info_header>:
100001d4:	7188ebf2 	.word	0x7188ebf2
100001d8:	1000aa68 	.word	0x1000aa68
100001dc:	1000aa90 	.word	0x1000aa90
100001e0:	10000234 	.word	0x10000234
100001e4:	e71aa390 	.word	0xe71aa390

100001e8 <_entry_point>:
100001e8:	2000      	movs	r0, #0
100001ea:	491f      	ldr	r1, [pc, #124]	@ (10000268 <hold_non_core0_in_bootrom+0xa>)
100001ec:	6008      	str	r0, [r1, #0]
100001ee:	c806      	ldmia	r0!, {r1, r2}
100001f0:	f381 8808 	msr	MSP, r1
100001f4:	4710      	bx	r2

100001f6 <_reset_handler>:
100001f6:	481d      	ldr	r0, [pc, #116]	@ (1000026c <hold_non_core0_in_bootrom+0xe>)
100001f8:	6800      	ldr	r0, [r0, #0]
100001fa:	2800      	cmp	r0, #0
100001fc:	d12f      	bne.n	1000025e <hold_non_core0_in_bootrom>
100001fe:	a40d      	add	r4, pc, #52	@ (adr r4, 10000234 <data_cpy_table>)
10000200:	cc0e      	ldmia	r4!, {r1, r2, r3}
10000202:	2900      	cmp	r1, #0
10000204:	d002      	beq.n	1000020c <_reset_handler+0x16>
10000206:	f000 f812 	bl	1000022e <data_cpy>
1000020a:	e7f9      	b.n	10000200 <_reset_handler+0xa>
1000020c:	4918      	ldr	r1, [pc, #96]	@ (10000270 <hold_non_core0_in_bootrom+0x12>)
1000020e:	4a19      	ldr	r2, [pc, #100]	@ (10000274 <hold_non_core0_in_bootrom+0x16>)
10000210:	2000      	movs	r0, #0
10000212:	e000      	b.n	10000216 <bss_fill_test>

10000214 <bss_fill_loop>:
10000214:	c101      	stmia	r1!, {r0}

10000216 <bss_fill_test>:
10000216:	4291      	cmp	r1, r2
10000218:	d1fc      	bne.n	10000214 <bss_fill_loop>

1000021a <platform_entry>:
1000021a:	4917      	ldr	r1, [pc, #92]	@ (10000278 <hold_non_core0_in_bootrom+0x1a>)
1000021c:	4788      	blx	r1
1000021e:	4917      	ldr	r1, [pc, #92]	@ (1000027c <hold_non_core0_in_bootrom+0x1e>)
10000220:	4788      	blx	r1
10000222:	4917      	ldr	r1, [pc, #92]	@ (10000280 <hold_non_core0_in_bootrom+0x22>)
10000224:	4788      	blx	r1
10000226:	be00      	bkpt	0x0000
10000228:	e7fd      	b.n	10000226 <platform_entry+0xc>

1000022a <data_cpy_loop>:
1000022a:	c901      	ldmia	r1!, {r0}
1000022c:	c201      	stmia	r2!, {r0}

1000022e <data_cpy>:
1000022e:	429a      	cmp	r2, r3
10000230:	d3fb      	bcc.n	1000022a <data_cpy_loop>
10000232:	4770      	bx	lr

10000234 <data_cpy_table>:
10000234:	1000aa90 	.word	0x1000aa90
10000238:	200000c0 	.word	0x200000c0
1000023c:	200005d4 	.word	0x200005d4
10000240:	1000afa4 	.word	0x1000afa4
10000244:	20040000 	.word	0x20040000
10000248:	20040000 	.word	0x20040000
1000024c:	1000afa4 	.word	0x1000afa4
10000250:	20041000 	.word	0x20041000
10000254:	20041000 	.word	0x20041000
10000258:	00000000 	.word	0x00000000
1000025c:	4770      	bx	lr

1000025e <hold_non_core0_in_bootrom>:
1000025e:	4809      	ldr	r0, [pc, #36]	@ (10000284 <hold_non_core0_in_bootrom+0x26>)
10000260:	f005 fa4d 	bl	100056fe <rom_func_lookup>
10000264:	4700      	bx	r0
10000266:	0000      	.short	0x0000
10000268:	e000ed08 	.word	0xe000ed08
1000026c:	d0000000 	.word	0xd0000000
10000270:	200005d8 	.word	0x200005d8
10000274:	20000ae8 	.word	0x20000ae8
10000278:	10003c21 	.word	0x10003c21
1000027c:	100004ad 	.word	0x100004ad
10000280:	10003d67 	.word	0x10003d67
10000284:	00005657 	.word	0x00005657

10000288 <__bi_22>:
10000288:	50520005 68f465de 1000afa4              ..RP.e.h....

10000294 <__bi_30>:
10000294:	50520006 9da22254 1000a564              ..RPT"..d...

100002a0 <__bi_38>:
100002a0:	50520006 02031c86 1000a570              ..RP....p...

100002ac <__bi_50>:
100002ac:	50520006 5360b3ab 1000a588              ..RP..`S....

100002b8 <_init>:
100002b8:	b5f8      	push	{r3, r4, r5, r6, r7, lr}
100002ba:	46c0      	nop			@ (mov r8, r8)

100002bc <register_tm_clones>:
100002bc:	4806      	ldr	r0, [pc, #24]	@ (100002d8 <register_tm_clones+0x1c>)
100002be:	4907      	ldr	r1, [pc, #28]	@ (100002dc <register_tm_clones+0x20>)
100002c0:	1a09      	subs	r1, r1, r0
100002c2:	108b      	asrs	r3, r1, #2
100002c4:	0fc9      	lsrs	r1, r1, #31
100002c6:	18c9      	adds	r1, r1, r3
100002c8:	b510      	push	{r4, lr}
100002ca:	1049      	asrs	r1, r1, #1
100002cc:	d003      	beq.n	100002d6 <register_tm_clones+0x1a>
100002ce:	4b04      	ldr	r3, [pc, #16]	@ (100002e0 <register_tm_clones+0x24>)
100002d0:	2b00      	cmp	r3, #0
100002d2:	d000      	beq.n	100002d6 <register_tm_clones+0x1a>
100002d4:	4798      	blx	r3
100002d6:	bd10      	pop	{r4, pc}
100002d8:	200005d4 	.word	0x200005d4
100002dc:	200005d4 	.word	0x200005d4
100002e0:	00000000 	.word	0x00000000

100002e4 <frame_dummy>:
100002e4:	4b05      	ldr	r3, [pc, #20]	@ (100002fc <frame_dummy+0x18>)
100002e6:	b510      	push	{r4, lr}
100002e8:	2b00      	cmp	r3, #0
100002ea:	d003      	beq.n	100002f4 <frame_dummy+0x10>
100002ec:	4904      	ldr	r1, [pc, #16]	@ (10000300 <frame_dummy+0x1c>)
100002ee:	4805      	ldr	r0, [pc, #20]	@ (10000304 <frame_dummy+0x20>)
100002f0:	e000      	b.n	100002f4 <frame_dummy+0x10>
100002f2:	bf00      	nop
100002f4:	f7ff ffe2 	bl	100002bc <register_tm_clones>
100002f8:	bd10      	pop	{r4, pc}
100002fa:	46c0      	nop			@ (mov r8, r8)
100002fc:	00000000 	.word	0x00000000
10000300:	20000774 	.word	0x20000774
10000304:	100093a8 	.word	0x100093a8

10000308 <add_repeating_timer_us>:
10000308:	b580      	push	{r7, lr}
1000030a:	b088      	sub	sp, #32
1000030c:	af04      	add	r7, sp, #16
1000030e:	60b8      	str	r0, [r7, #8]
10000310:	60f9      	str	r1, [r7, #12]
10000312:	607a      	str	r2, [r7, #4]
10000314:	603b      	str	r3, [r7, #0]
10000316:	f001 fb53 	bl	100019c0 <alarm_pool_get_default>
1000031a:	68ba      	ldr	r2, [r7, #8]
1000031c:	68fb      	ldr	r3, [r7, #12]
1000031e:	69b9      	ldr	r1, [r7, #24]
10000320:	9102      	str	r1, [sp, #8]
10000322:	6839      	ldr	r1, [r7, #0]
10000324:	9101      	str	r1, [sp, #4]
10000326:	6879      	ldr	r1, [r7, #4]
10000328:	9100      	str	r1, [sp, #0]
1000032a:	f001 ffc5 	bl	100022b8 <alarm_pool_add_repeating_timer_us>
1000032e:	0003      	movs	r3, r0
10000330:	0018      	movs	r0, r3
10000332:	46bd      	mov	sp, r7
10000334:	b004      	add	sp, #16
10000336:	bd80      	pop	{r7, pc}

10000338 <gpio_set_mask>:
10000338:	b580      	push	{r7, lr}
1000033a:	b082      	sub	sp, #8
1000033c:	af00      	add	r7, sp, #0
1000033e:	6078      	str	r0, [r7, #4]
10000340:	23d0      	movs	r3, #208	@ 0xd0
10000342:	061b      	lsls	r3, r3, #24
10000344:	687a      	ldr	r2, [r7, #4]
10000346:	615a      	str	r2, [r3, #20]
10000348:	46c0      	nop			@ (mov r8, r8)
1000034a:	46bd      	mov	sp, r7
1000034c:	b002      	add	sp, #8
1000034e:	bd80      	pop	{r7, pc}

10000350 <gpio_clr_mask>:
10000350:	b580      	push	{r7, lr}
10000352:	b082      	sub	sp, #8
10000354:	af00      	add	r7, sp, #0
10000356:	6078      	str	r0, [r7, #4]
10000358:	23d0      	movs	r3, #208	@ 0xd0
1000035a:	061b      	lsls	r3, r3, #24
1000035c:	687a      	ldr	r2, [r7, #4]
1000035e:	619a      	str	r2, [r3, #24]
10000360:	46c0      	nop			@ (mov r8, r8)
10000362:	46bd      	mov	sp, r7
10000364:	b002      	add	sp, #8
10000366:	bd80      	pop	{r7, pc}

10000368 <gpio_put>:
10000368:	b580      	push	{r7, lr}
1000036a:	b084      	sub	sp, #16
1000036c:	af00      	add	r7, sp, #0
1000036e:	6078      	str	r0, [r7, #4]
10000370:	000a      	movs	r2, r1
10000372:	1cfb      	adds	r3, r7, #3
10000374:	701a      	strb	r2, [r3, #0]
10000376:	2201      	movs	r2, #1
10000378:	687b      	ldr	r3, [r7, #4]
1000037a:	409a      	lsls	r2, r3
1000037c:	0013      	movs	r3, r2
1000037e:	60fb      	str	r3, [r7, #12]
10000380:	1cfb      	adds	r3, r7, #3
10000382:	781b      	ldrb	r3, [r3, #0]
10000384:	2b00      	cmp	r3, #0
10000386:	d004      	beq.n	10000392 <gpio_put+0x2a>
10000388:	68fb      	ldr	r3, [r7, #12]
1000038a:	0018      	movs	r0, r3
1000038c:	f7ff ffd4 	bl	10000338 <gpio_set_mask>
10000390:	e003      	b.n	1000039a <gpio_put+0x32>
10000392:	68fb      	ldr	r3, [r7, #12]
10000394:	0018      	movs	r0, r3
10000396:	f7ff ffdb 	bl	10000350 <gpio_clr_mask>
1000039a:	46c0      	nop			@ (mov r8, r8)
1000039c:	46bd      	mov	sp, r7
1000039e:	b004      	add	sp, #16
100003a0:	bd80      	pop	{r7, pc}

100003a2 <gpio_set_dir_out_masked>:
100003a2:	b580      	push	{r7, lr}
100003a4:	b082      	sub	sp, #8
100003a6:	af00      	add	r7, sp, #0
100003a8:	6078      	str	r0, [r7, #4]
100003aa:	23d0      	movs	r3, #208	@ 0xd0
100003ac:	061b      	lsls	r3, r3, #24
100003ae:	687a      	ldr	r2, [r7, #4]
100003b0:	625a      	str	r2, [r3, #36]	@ 0x24
100003b2:	46c0      	nop			@ (mov r8, r8)
100003b4:	46bd      	mov	sp, r7
100003b6:	b002      	add	sp, #8
100003b8:	bd80      	pop	{r7, pc}

100003ba <gpio_set_dir_in_masked>:
100003ba:	b580      	push	{r7, lr}
100003bc:	b082      	sub	sp, #8
100003be:	af00      	add	r7, sp, #0
100003c0:	6078      	str	r0, [r7, #4]
100003c2:	23d0      	movs	r3, #208	@ 0xd0
100003c4:	061b      	lsls	r3, r3, #24
100003c6:	687a      	ldr	r2, [r7, #4]
100003c8:	629a      	str	r2, [r3, #40]	@ 0x28
100003ca:	46c0      	nop			@ (mov r8, r8)
100003cc:	46bd      	mov	sp, r7
100003ce:	b002      	add	sp, #8
100003d0:	bd80      	pop	{r7, pc}

100003d2 <gpio_set_dir>:
100003d2:	b580      	push	{r7, lr}
100003d4:	b084      	sub	sp, #16
100003d6:	af00      	add	r7, sp, #0
100003d8:	6078      	str	r0, [r7, #4]
100003da:	000a      	movs	r2, r1
100003dc:	1cfb      	adds	r3, r7, #3
100003de:	701a      	strb	r2, [r3, #0]
100003e0:	2201      	movs	r2, #1
100003e2:	687b      	ldr	r3, [r7, #4]
100003e4:	409a      	lsls	r2, r3
100003e6:	0013      	movs	r3, r2
100003e8:	60fb      	str	r3, [r7, #12]
100003ea:	1cfb      	adds	r3, r7, #3
100003ec:	781b      	ldrb	r3, [r3, #0]
100003ee:	2b00      	cmp	r3, #0
100003f0:	d004      	beq.n	100003fc <gpio_set_dir+0x2a>
100003f2:	68fb      	ldr	r3, [r7, #12]
100003f4:	0018      	movs	r0, r3
100003f6:	f7ff ffd4 	bl	100003a2 <gpio_set_dir_out_masked>
100003fa:	e003      	b.n	10000404 <gpio_set_dir+0x32>
100003fc:	68fb      	ldr	r3, [r7, #12]
100003fe:	0018      	movs	r0, r3
10000400:	f7ff ffdb 	bl	100003ba <gpio_set_dir_in_masked>
10000404:	46c0      	nop			@ (mov r8, r8)
10000406:	46bd      	mov	sp, r7
10000408:	b004      	add	sp, #16
1000040a:	bd80      	pop	{r7, pc}

1000040c <repeating_timer_callback>:
1000040c:	b580      	push	{r7, lr}
1000040e:	b082      	sub	sp, #8
10000410:	af00      	add	r7, sp, #0
10000412:	6078      	str	r0, [r7, #4]
10000414:	4b04      	ldr	r3, [pc, #16]	@ (10000428 <repeating_timer_callback+0x1c>)
10000416:	681b      	ldr	r3, [r3, #0]
10000418:	1c5a      	adds	r2, r3, #1
1000041a:	4b03      	ldr	r3, [pc, #12]	@ (10000428 <repeating_timer_callback+0x1c>)
1000041c:	601a      	str	r2, [r3, #0]
1000041e:	2301      	movs	r3, #1
10000420:	0018      	movs	r0, r3
10000422:	46bd      	mov	sp, r7
10000424:	b002      	add	sp, #8
10000426:	bd80      	pop	{r7, pc}
10000428:	200009bc 	.word	0x200009bc

1000042c <IO_Init>:
1000042c:	b580      	push	{r7, lr}
1000042e:	af00      	add	r7, sp, #0
10000430:	2019      	movs	r0, #25
10000432:	f000 f9d1 	bl	100007d8 <gpio_init>
10000436:	2101      	movs	r1, #1
10000438:	2019      	movs	r0, #25
1000043a:	f7ff ffca 	bl	100003d2 <gpio_set_dir>
1000043e:	2101      	movs	r1, #1
10000440:	2019      	movs	r0, #25
10000442:	f7ff ff91 	bl	10000368 <gpio_put>
10000446:	46c0      	nop			@ (mov r8, r8)
10000448:	46bd      	mov	sp, r7
1000044a:	bd80      	pop	{r7, pc}

1000044c <SPI0_Init>:
1000044c:	b580      	push	{r7, lr}
1000044e:	b082      	sub	sp, #8
10000450:	af00      	add	r7, sp, #0
10000452:	6078      	str	r0, [r7, #4]
10000454:	687b      	ldr	r3, [r7, #4]
10000456:	4a10      	ldr	r2, [pc, #64]	@ (10000498 <SPI0_Init+0x4c>)
10000458:	0019      	movs	r1, r3
1000045a:	0010      	movs	r0, r2
1000045c:	f006 ff7e 	bl	1000735c <spi_init>
10000460:	2101      	movs	r1, #1
10000462:	2010      	movs	r0, #16
10000464:	f000 f982 	bl	1000076c <gpio_set_function>
10000468:	2101      	movs	r1, #1
1000046a:	2013      	movs	r0, #19
1000046c:	f000 f97e 	bl	1000076c <gpio_set_function>
10000470:	2101      	movs	r1, #1
10000472:	2012      	movs	r0, #18
10000474:	f000 f97a 	bl	1000076c <gpio_set_function>
10000478:	2011      	movs	r0, #17
1000047a:	f000 f9ad 	bl	100007d8 <gpio_init>
1000047e:	2101      	movs	r1, #1
10000480:	2011      	movs	r0, #17
10000482:	f7ff ff71 	bl	10000368 <gpio_put>
10000486:	2101      	movs	r1, #1
10000488:	2011      	movs	r0, #17
1000048a:	f7ff ffa2 	bl	100003d2 <gpio_set_dir>
1000048e:	46c0      	nop			@ (mov r8, r8)
10000490:	46bd      	mov	sp, r7
10000492:	b002      	add	sp, #8
10000494:	bd80      	pop	{r7, pc}
10000496:	46c0      	nop			@ (mov r8, r8)
10000498:	4003c000 	.word	0x4003c000

1000049c <Error_Handler>:
1000049c:	b580      	push	{r7, lr}
1000049e:	b082      	sub	sp, #8
100004a0:	af00      	add	r7, sp, #0
100004a2:	f3ef 8310 	mrs	r3, PRIMASK
100004a6:	b672      	cpsid	i
100004a8:	607b      	str	r3, [r7, #4]
100004aa:	e7fe      	b.n	100004aa <Error_Handler+0xe>

100004ac <main>:
100004ac:	b580      	push	{r7, lr}
100004ae:	b088      	sub	sp, #32
100004b0:	af02      	add	r7, sp, #8
100004b2:	f006 fbc4 	bl	10006c3e <stdio_init_all>
100004b6:	f7ff ffb9 	bl	1000042c <IO_Init>
100004ba:	4b0d      	ldr	r3, [pc, #52]	@ (100004f0 <main+0x44>)
100004bc:	0018      	movs	r0, r3
100004be:	f7ff ffc5 	bl	1000044c <SPI0_Init>
100004c2:	4a0c      	ldr	r2, [pc, #48]	@ (100004f4 <main+0x48>)
100004c4:	20fa      	movs	r0, #250	@ 0xfa
100004c6:	0080      	lsls	r0, r0, #2
100004c8:	2100      	movs	r1, #0
100004ca:	003b      	movs	r3, r7
100004cc:	9300      	str	r3, [sp, #0]
100004ce:	2300      	movs	r3, #0
100004d0:	f7ff ff1a 	bl	10000308 <add_repeating_timer_us>
100004d4:	4b08      	ldr	r3, [pc, #32]	@ (100004f8 <main+0x4c>)
100004d6:	0018      	movs	r0, r3
100004d8:	f007 f826 	bl	10007528 <w25qxx_Demo>
100004dc:	1e03      	subs	r3, r0, #0
100004de:	d001      	beq.n	100004e4 <main+0x38>
100004e0:	f7ff ffdc 	bl	1000049c <Error_Handler>
100004e4:	2100      	movs	r1, #0
100004e6:	2019      	movs	r0, #25
100004e8:	f7ff ff3e 	bl	10000368 <gpio_put>
100004ec:	e7f2      	b.n	100004d4 <main+0x28>
100004ee:	46c0      	nop			@ (mov r8, r8)
100004f0:	000186a0 	.word	0x000186a0
100004f4:	1000040d 	.word	0x1000040d
100004f8:	10000669 	.word	0x10000669

100004fc <gpio_set_mask>:
100004fc:	b580      	push	{r7, lr}
100004fe:	b082      	sub	sp, #8
10000500:	af00      	add	r7, sp, #0
10000502:	6078      	str	r0, [r7, #4]
10000504:	23d0      	movs	r3, #208	@ 0xd0
10000506:	061b      	lsls	r3, r3, #24
10000508:	687a      	ldr	r2, [r7, #4]
1000050a:	615a      	str	r2, [r3, #20]
1000050c:	46c0      	nop			@ (mov r8, r8)
1000050e:	46bd      	mov	sp, r7
10000510:	b002      	add	sp, #8
10000512:	bd80      	pop	{r7, pc}

10000514 <gpio_clr_mask>:
10000514:	b580      	push	{r7, lr}
10000516:	b082      	sub	sp, #8
10000518:	af00      	add	r7, sp, #0
1000051a:	6078      	str	r0, [r7, #4]
1000051c:	23d0      	movs	r3, #208	@ 0xd0
1000051e:	061b      	lsls	r3, r3, #24
10000520:	687a      	ldr	r2, [r7, #4]
10000522:	619a      	str	r2, [r3, #24]
10000524:	46c0      	nop			@ (mov r8, r8)
10000526:	46bd      	mov	sp, r7
10000528:	b002      	add	sp, #8
1000052a:	bd80      	pop	{r7, pc}

1000052c <gpio_put>:
1000052c:	b580      	push	{r7, lr}
1000052e:	b084      	sub	sp, #16
10000530:	af00      	add	r7, sp, #0
10000532:	6078      	str	r0, [r7, #4]
10000534:	000a      	movs	r2, r1
10000536:	1cfb      	adds	r3, r7, #3
10000538:	701a      	strb	r2, [r3, #0]
1000053a:	2201      	movs	r2, #1
1000053c:	687b      	ldr	r3, [r7, #4]
1000053e:	409a      	lsls	r2, r3
10000540:	0013      	movs	r3, r2
10000542:	60fb      	str	r3, [r7, #12]
10000544:	1cfb      	adds	r3, r7, #3
10000546:	781b      	ldrb	r3, [r3, #0]
10000548:	2b00      	cmp	r3, #0
1000054a:	d004      	beq.n	10000556 <gpio_put+0x2a>
1000054c:	68fb      	ldr	r3, [r7, #12]
1000054e:	0018      	movs	r0, r3
10000550:	f7ff ffd4 	bl	100004fc <gpio_set_mask>
10000554:	e003      	b.n	1000055e <gpio_put+0x32>
10000556:	68fb      	ldr	r3, [r7, #12]
10000558:	0018      	movs	r0, r3
1000055a:	f7ff ffdb 	bl	10000514 <gpio_clr_mask>
1000055e:	46c0      	nop			@ (mov r8, r8)
10000560:	46bd      	mov	sp, r7
10000562:	b004      	add	sp, #16
10000564:	bd80      	pop	{r7, pc}
	...

10000568 <w25qxx_SPI1_Receive>:
10000568:	b580      	push	{r7, lr}
1000056a:	b084      	sub	sp, #16
1000056c:	af00      	add	r7, sp, #0
1000056e:	60f8      	str	r0, [r7, #12]
10000570:	607a      	str	r2, [r7, #4]
10000572:	230a      	movs	r3, #10
10000574:	18fb      	adds	r3, r7, r3
10000576:	1c0a      	adds	r2, r1, #0
10000578:	801a      	strh	r2, [r3, #0]
1000057a:	68fb      	ldr	r3, [r7, #12]
1000057c:	2b00      	cmp	r3, #0
1000057e:	d101      	bne.n	10000584 <w25qxx_SPI1_Receive+0x1c>
10000580:	2301      	movs	r3, #1
10000582:	e00f      	b.n	100005a4 <w25qxx_SPI1_Receive+0x3c>
10000584:	230a      	movs	r3, #10
10000586:	18fb      	adds	r3, r7, r3
10000588:	881b      	ldrh	r3, [r3, #0]
1000058a:	2b00      	cmp	r3, #0
1000058c:	d101      	bne.n	10000592 <w25qxx_SPI1_Receive+0x2a>
1000058e:	2301      	movs	r3, #1
10000590:	e008      	b.n	100005a4 <w25qxx_SPI1_Receive+0x3c>
10000592:	230a      	movs	r3, #10
10000594:	18fb      	adds	r3, r7, r3
10000596:	881b      	ldrh	r3, [r3, #0]
10000598:	68fa      	ldr	r2, [r7, #12]
1000059a:	4804      	ldr	r0, [pc, #16]	@ (100005ac <w25qxx_SPI1_Receive+0x44>)
1000059c:	2100      	movs	r1, #0
1000059e:	f008 fed3 	bl	10009348 <__spi_read_blocking_veneer>
100005a2:	2300      	movs	r3, #0
100005a4:	0018      	movs	r0, r3
100005a6:	46bd      	mov	sp, r7
100005a8:	b004      	add	sp, #16
100005aa:	bd80      	pop	{r7, pc}
100005ac:	4003c000 	.word	0x4003c000

100005b0 <w25qxx_SPI1_Transmit>:
100005b0:	b580      	push	{r7, lr}
100005b2:	b084      	sub	sp, #16
100005b4:	af00      	add	r7, sp, #0
100005b6:	60f8      	str	r0, [r7, #12]
100005b8:	607a      	str	r2, [r7, #4]
100005ba:	230a      	movs	r3, #10
100005bc:	18fb      	adds	r3, r7, r3
100005be:	1c0a      	adds	r2, r1, #0
100005c0:	801a      	strh	r2, [r3, #0]
100005c2:	68fb      	ldr	r3, [r7, #12]
100005c4:	2b00      	cmp	r3, #0
100005c6:	d101      	bne.n	100005cc <w25qxx_SPI1_Transmit+0x1c>
100005c8:	2301      	movs	r3, #1
100005ca:	e00f      	b.n	100005ec <w25qxx_SPI1_Transmit+0x3c>
100005cc:	230a      	movs	r3, #10
100005ce:	18fb      	adds	r3, r7, r3
100005d0:	881b      	ldrh	r3, [r3, #0]
100005d2:	2b00      	cmp	r3, #0
100005d4:	d101      	bne.n	100005da <w25qxx_SPI1_Transmit+0x2a>
100005d6:	2301      	movs	r3, #1
100005d8:	e008      	b.n	100005ec <w25qxx_SPI1_Transmit+0x3c>
100005da:	230a      	movs	r3, #10
100005dc:	18fb      	adds	r3, r7, r3
100005de:	881a      	ldrh	r2, [r3, #0]
100005e0:	68fb      	ldr	r3, [r7, #12]
100005e2:	4804      	ldr	r0, [pc, #16]	@ (100005f4 <w25qxx_SPI1_Transmit+0x44>)
100005e4:	0019      	movs	r1, r3
100005e6:	f008 fecf 	bl	10009388 <__spi_write_blocking_veneer>
100005ea:	2300      	movs	r3, #0
100005ec:	0018      	movs	r0, r3
100005ee:	46bd      	mov	sp, r7
100005f0:	b004      	add	sp, #16
100005f2:	bd80      	pop	{r7, pc}
100005f4:	4003c000 	.word	0x4003c000

100005f8 <w25qxx_SPI1_CS0_Set>:
100005f8:	b580      	push	{r7, lr}
100005fa:	b082      	sub	sp, #8
100005fc:	af00      	add	r7, sp, #0
100005fe:	0002      	movs	r2, r0
10000600:	1dfb      	adds	r3, r7, #7
10000602:	701a      	strb	r2, [r3, #0]
10000604:	1dfb      	adds	r3, r7, #7
10000606:	781b      	ldrb	r3, [r3, #0]
10000608:	2b00      	cmp	r3, #0
1000060a:	d006      	beq.n	1000061a <w25qxx_SPI1_CS0_Set+0x22>
1000060c:	2b01      	cmp	r3, #1
1000060e:	d109      	bne.n	10000624 <w25qxx_SPI1_CS0_Set+0x2c>
10000610:	2101      	movs	r1, #1
10000612:	2011      	movs	r0, #17
10000614:	f7ff ff8a 	bl	1000052c <gpio_put>
10000618:	e005      	b.n	10000626 <w25qxx_SPI1_CS0_Set+0x2e>
1000061a:	2100      	movs	r1, #0
1000061c:	2011      	movs	r0, #17
1000061e:	f7ff ff85 	bl	1000052c <gpio_put>
10000622:	e000      	b.n	10000626 <w25qxx_SPI1_CS0_Set+0x2e>
10000624:	46c0      	nop			@ (mov r8, r8)
10000626:	46c0      	nop			@ (mov r8, r8)
10000628:	46bd      	mov	sp, r7
1000062a:	b002      	add	sp, #8
1000062c:	bd80      	pop	{r7, pc}
	...

10000630 <w25qxx_Delay>:
10000630:	b580      	push	{r7, lr}
10000632:	b084      	sub	sp, #16
10000634:	af00      	add	r7, sp, #0
10000636:	6078      	str	r0, [r7, #4]
10000638:	4b0a      	ldr	r3, [pc, #40]	@ (10000664 <w25qxx_Delay+0x34>)
1000063a:	681b      	ldr	r3, [r3, #0]
1000063c:	60fb      	str	r3, [r7, #12]
1000063e:	687b      	ldr	r3, [r7, #4]
10000640:	2b01      	cmp	r3, #1
10000642:	d802      	bhi.n	1000064a <w25qxx_Delay+0x1a>
10000644:	687b      	ldr	r3, [r7, #4]
10000646:	3301      	adds	r3, #1
10000648:	607b      	str	r3, [r7, #4]
1000064a:	46c0      	nop			@ (mov r8, r8)
1000064c:	4b05      	ldr	r3, [pc, #20]	@ (10000664 <w25qxx_Delay+0x34>)
1000064e:	681a      	ldr	r2, [r3, #0]
10000650:	68fb      	ldr	r3, [r7, #12]
10000652:	1ad3      	subs	r3, r2, r3
10000654:	687a      	ldr	r2, [r7, #4]
10000656:	429a      	cmp	r2, r3
10000658:	d8f8      	bhi.n	1000064c <w25qxx_Delay+0x1c>
1000065a:	46c0      	nop			@ (mov r8, r8)
1000065c:	46c0      	nop			@ (mov r8, r8)
1000065e:	46bd      	mov	sp, r7
10000660:	b004      	add	sp, #16
10000662:	bd80      	pop	{r7, pc}
10000664:	200009bc 	.word	0x200009bc

10000668 <w25qxx_Print>:
10000668:	b580      	push	{r7, lr}
1000066a:	b082      	sub	sp, #8
1000066c:	af00      	add	r7, sp, #0
1000066e:	6078      	str	r0, [r7, #4]
10000670:	687a      	ldr	r2, [r7, #4]
10000672:	4b04      	ldr	r3, [pc, #16]	@ (10000684 <w25qxx_Print+0x1c>)
10000674:	0011      	movs	r1, r2
10000676:	0018      	movs	r0, r3
10000678:	f006 faca 	bl	10006c10 <__wrap_printf>
1000067c:	46c0      	nop			@ (mov r8, r8)
1000067e:	46bd      	mov	sp, r7
10000680:	b002      	add	sp, #8
10000682:	bd80      	pop	{r7, pc}
10000684:	100093a8 	.word	0x100093a8

10000688 <check_gpio_param>:
10000688:	b580      	push	{r7, lr}
1000068a:	b082      	sub	sp, #8
1000068c:	af00      	add	r7, sp, #0
1000068e:	6078      	str	r0, [r7, #4]
10000690:	46c0      	nop			@ (mov r8, r8)
10000692:	46bd      	mov	sp, r7
10000694:	b002      	add	sp, #8
10000696:	bd80      	pop	{r7, pc}

10000698 <gpio_set_mask>:
10000698:	b580      	push	{r7, lr}
1000069a:	b082      	sub	sp, #8
1000069c:	af00      	add	r7, sp, #0
1000069e:	6078      	str	r0, [r7, #4]
100006a0:	23d0      	movs	r3, #208	@ 0xd0
100006a2:	061b      	lsls	r3, r3, #24
100006a4:	687a      	ldr	r2, [r7, #4]
100006a6:	615a      	str	r2, [r3, #20]
100006a8:	46c0      	nop			@ (mov r8, r8)
100006aa:	46bd      	mov	sp, r7
100006ac:	b002      	add	sp, #8
100006ae:	bd80      	pop	{r7, pc}

100006b0 <gpio_clr_mask>:
100006b0:	b580      	push	{r7, lr}
100006b2:	b082      	sub	sp, #8
100006b4:	af00      	add	r7, sp, #0
100006b6:	6078      	str	r0, [r7, #4]
100006b8:	23d0      	movs	r3, #208	@ 0xd0
100006ba:	061b      	lsls	r3, r3, #24
100006bc:	687a      	ldr	r2, [r7, #4]
100006be:	619a      	str	r2, [r3, #24]
100006c0:	46c0      	nop			@ (mov r8, r8)
100006c2:	46bd      	mov	sp, r7
100006c4:	b002      	add	sp, #8
100006c6:	bd80      	pop	{r7, pc}

100006c8 <gpio_put>:
100006c8:	b580      	push	{r7, lr}
100006ca:	b084      	sub	sp, #16
100006cc:	af00      	add	r7, sp, #0
100006ce:	6078      	str	r0, [r7, #4]
100006d0:	000a      	movs	r2, r1
100006d2:	1cfb      	adds	r3, r7, #3
100006d4:	701a      	strb	r2, [r3, #0]
100006d6:	2201      	movs	r2, #1
100006d8:	687b      	ldr	r3, [r7, #4]
100006da:	409a      	lsls	r2, r3
100006dc:	0013      	movs	r3, r2
100006de:	60fb      	str	r3, [r7, #12]
100006e0:	1cfb      	adds	r3, r7, #3
100006e2:	781b      	ldrb	r3, [r3, #0]
100006e4:	2b00      	cmp	r3, #0
100006e6:	d004      	beq.n	100006f2 <gpio_put+0x2a>
100006e8:	68fb      	ldr	r3, [r7, #12]
100006ea:	0018      	movs	r0, r3
100006ec:	f7ff ffd4 	bl	10000698 <gpio_set_mask>
100006f0:	e003      	b.n	100006fa <gpio_put+0x32>
100006f2:	68fb      	ldr	r3, [r7, #12]
100006f4:	0018      	movs	r0, r3
100006f6:	f7ff ffdb 	bl	100006b0 <gpio_clr_mask>
100006fa:	46c0      	nop			@ (mov r8, r8)
100006fc:	46bd      	mov	sp, r7
100006fe:	b004      	add	sp, #16
10000700:	bd80      	pop	{r7, pc}

10000702 <gpio_set_dir_out_masked>:
10000702:	b580      	push	{r7, lr}
10000704:	b082      	sub	sp, #8
10000706:	af00      	add	r7, sp, #0
10000708:	6078      	str	r0, [r7, #4]
1000070a:	23d0      	movs	r3, #208	@ 0xd0
1000070c:	061b      	lsls	r3, r3, #24
1000070e:	687a      	ldr	r2, [r7, #4]
10000710:	625a      	str	r2, [r3, #36]	@ 0x24
10000712:	46c0      	nop			@ (mov r8, r8)
10000714:	46bd      	mov	sp, r7
10000716:	b002      	add	sp, #8
10000718:	bd80      	pop	{r7, pc}

1000071a <gpio_set_dir_in_masked>:
1000071a:	b580      	push	{r7, lr}
1000071c:	b082      	sub	sp, #8
1000071e:	af00      	add	r7, sp, #0
10000720:	6078      	str	r0, [r7, #4]
10000722:	23d0      	movs	r3, #208	@ 0xd0
10000724:	061b      	lsls	r3, r3, #24
10000726:	687a      	ldr	r2, [r7, #4]
10000728:	629a      	str	r2, [r3, #40]	@ 0x28
1000072a:	46c0      	nop			@ (mov r8, r8)
1000072c:	46bd      	mov	sp, r7
1000072e:	b002      	add	sp, #8
10000730:	bd80      	pop	{r7, pc}

10000732 <gpio_set_dir>:
10000732:	b580      	push	{r7, lr}
10000734:	b084      	sub	sp, #16
10000736:	af00      	add	r7, sp, #0
10000738:	6078      	str	r0, [r7, #4]
1000073a:	000a      	movs	r2, r1
1000073c:	1cfb      	adds	r3, r7, #3
1000073e:	701a      	strb	r2, [r3, #0]
10000740:	2201      	movs	r2, #1
10000742:	687b      	ldr	r3, [r7, #4]
10000744:	409a      	lsls	r2, r3
10000746:	0013      	movs	r3, r2
10000748:	60fb      	str	r3, [r7, #12]
1000074a:	1cfb      	adds	r3, r7, #3
1000074c:	781b      	ldrb	r3, [r3, #0]
1000074e:	2b00      	cmp	r3, #0
10000750:	d004      	beq.n	1000075c <gpio_set_dir+0x2a>
10000752:	68fb      	ldr	r3, [r7, #12]
10000754:	0018      	movs	r0, r3
10000756:	f7ff ffd4 	bl	10000702 <gpio_set_dir_out_masked>
1000075a:	e003      	b.n	10000764 <gpio_set_dir+0x32>
1000075c:	68fb      	ldr	r3, [r7, #12]
1000075e:	0018      	movs	r0, r3
10000760:	f7ff ffdb 	bl	1000071a <gpio_set_dir_in_masked>
10000764:	46c0      	nop			@ (mov r8, r8)
10000766:	46bd      	mov	sp, r7
10000768:	b004      	add	sp, #16
1000076a:	bd80      	pop	{r7, pc}

1000076c <gpio_set_function>:
1000076c:	b580      	push	{r7, lr}
1000076e:	b088      	sub	sp, #32
10000770:	af00      	add	r7, sp, #0
10000772:	6078      	str	r0, [r7, #4]
10000774:	000a      	movs	r2, r1
10000776:	1cfb      	adds	r3, r7, #3
10000778:	701a      	strb	r2, [r3, #0]
1000077a:	687b      	ldr	r3, [r7, #4]
1000077c:	0018      	movs	r0, r3
1000077e:	f7ff ff83 	bl	10000688 <check_gpio_param>
10000782:	687b      	ldr	r3, [r7, #4]
10000784:	009b      	lsls	r3, r3, #2
10000786:	4a12      	ldr	r2, [pc, #72]	@ (100007d0 <gpio_set_function+0x64>)
10000788:	4694      	mov	ip, r2
1000078a:	4463      	add	r3, ip
1000078c:	61fb      	str	r3, [r7, #28]
1000078e:	2340      	movs	r3, #64	@ 0x40
10000790:	61bb      	str	r3, [r7, #24]
10000792:	23c0      	movs	r3, #192	@ 0xc0
10000794:	617b      	str	r3, [r7, #20]
10000796:	69fb      	ldr	r3, [r7, #28]
10000798:	681a      	ldr	r2, [r3, #0]
1000079a:	69bb      	ldr	r3, [r7, #24]
1000079c:	4053      	eors	r3, r2
1000079e:	697a      	ldr	r2, [r7, #20]
100007a0:	4013      	ands	r3, r2
100007a2:	69fa      	ldr	r2, [r7, #28]
100007a4:	613a      	str	r2, [r7, #16]
100007a6:	60fb      	str	r3, [r7, #12]
100007a8:	693b      	ldr	r3, [r7, #16]
100007aa:	2280      	movs	r2, #128	@ 0x80
100007ac:	0152      	lsls	r2, r2, #5
100007ae:	4313      	orrs	r3, r2
100007b0:	68fa      	ldr	r2, [r7, #12]
100007b2:	601a      	str	r2, [r3, #0]
100007b4:	46c0      	nop			@ (mov r8, r8)
100007b6:	46c0      	nop			@ (mov r8, r8)
100007b8:	4906      	ldr	r1, [pc, #24]	@ (100007d4 <gpio_set_function+0x68>)
100007ba:	1cfb      	adds	r3, r7, #3
100007bc:	781a      	ldrb	r2, [r3, #0]
100007be:	687b      	ldr	r3, [r7, #4]
100007c0:	00db      	lsls	r3, r3, #3
100007c2:	18cb      	adds	r3, r1, r3
100007c4:	3304      	adds	r3, #4
100007c6:	601a      	str	r2, [r3, #0]
100007c8:	46c0      	nop			@ (mov r8, r8)
100007ca:	46bd      	mov	sp, r7
100007cc:	b008      	add	sp, #32
100007ce:	bd80      	pop	{r7, pc}
100007d0:	4001c004 	.word	0x4001c004
100007d4:	40014000 	.word	0x40014000

100007d8 <gpio_init>:
100007d8:	b580      	push	{r7, lr}
100007da:	b082      	sub	sp, #8
100007dc:	af00      	add	r7, sp, #0
100007de:	6078      	str	r0, [r7, #4]
100007e0:	687b      	ldr	r3, [r7, #4]
100007e2:	2100      	movs	r1, #0
100007e4:	0018      	movs	r0, r3
100007e6:	f7ff ffa4 	bl	10000732 <gpio_set_dir>
100007ea:	687b      	ldr	r3, [r7, #4]
100007ec:	2100      	movs	r1, #0
100007ee:	0018      	movs	r0, r3
100007f0:	f7ff ff6a 	bl	100006c8 <gpio_put>
100007f4:	687b      	ldr	r3, [r7, #4]
100007f6:	2105      	movs	r1, #5
100007f8:	0018      	movs	r0, r3
100007fa:	f7ff ffb7 	bl	1000076c <gpio_set_function>
100007fe:	46c0      	nop			@ (mov r8, r8)
10000800:	46bd      	mov	sp, r7
10000802:	b002      	add	sp, #8
10000804:	bd80      	pop	{r7, pc}
	...

10000808 <running_on_fpga>:
10000808:	b580      	push	{r7, lr}
1000080a:	af00      	add	r7, sp, #0
1000080c:	4b04      	ldr	r3, [pc, #16]	@ (10000820 <running_on_fpga+0x18>)
1000080e:	681b      	ldr	r3, [r3, #0]
10000810:	2202      	movs	r2, #2
10000812:	4013      	ands	r3, r2
10000814:	1e5a      	subs	r2, r3, #1
10000816:	4193      	sbcs	r3, r2
10000818:	b2db      	uxtb	r3, r3
1000081a:	0018      	movs	r0, r3
1000081c:	46bd      	mov	sp, r7
1000081e:	bd80      	pop	{r7, pc}
10000820:	4006c000 	.word	0x4006c000

10000824 <hw_claim_lock>:
10000824:	b580      	push	{r7, lr}
10000826:	b086      	sub	sp, #24
10000828:	af00      	add	r7, sp, #0
1000082a:	230b      	movs	r3, #11
1000082c:	607b      	str	r3, [r7, #4]
1000082e:	687b      	ldr	r3, [r7, #4]
10000830:	4a0f      	ldr	r2, [pc, #60]	@ (10000870 <hw_claim_lock+0x4c>)
10000832:	4694      	mov	ip, r2
10000834:	4463      	add	r3, ip
10000836:	009b      	lsls	r3, r3, #2
10000838:	617b      	str	r3, [r7, #20]
1000083a:	f3ef 8310 	mrs	r3, PRIMASK
1000083e:	b672      	cpsid	i
10000840:	613b      	str	r3, [r7, #16]
10000842:	693b      	ldr	r3, [r7, #16]
10000844:	60fb      	str	r3, [r7, #12]
10000846:	697b      	ldr	r3, [r7, #20]
10000848:	60bb      	str	r3, [r7, #8]
1000084a:	46c0      	nop			@ (mov r8, r8)
1000084c:	68bb      	ldr	r3, [r7, #8]
1000084e:	681b      	ldr	r3, [r3, #0]
10000850:	425a      	negs	r2, r3
10000852:	4153      	adcs	r3, r2
10000854:	b2db      	uxtb	r3, r3
10000856:	2b00      	cmp	r3, #0
10000858:	d1f8      	bne.n	1000084c <hw_claim_lock+0x28>
1000085a:	f3bf 8f5f 	dmb	sy
1000085e:	46c0      	nop			@ (mov r8, r8)
10000860:	46c0      	nop			@ (mov r8, r8)
10000862:	46c0      	nop			@ (mov r8, r8)
10000864:	68fb      	ldr	r3, [r7, #12]
10000866:	0018      	movs	r0, r3
10000868:	46bd      	mov	sp, r7
1000086a:	b006      	add	sp, #24
1000086c:	bd80      	pop	{r7, pc}
1000086e:	46c0      	nop			@ (mov r8, r8)
10000870:	34000040 	.word	0x34000040

10000874 <hw_claim_unlock>:
10000874:	b580      	push	{r7, lr}
10000876:	b088      	sub	sp, #32
10000878:	af00      	add	r7, sp, #0
1000087a:	6078      	str	r0, [r7, #4]
1000087c:	230b      	movs	r3, #11
1000087e:	60fb      	str	r3, [r7, #12]
10000880:	68fb      	ldr	r3, [r7, #12]
10000882:	4a0e      	ldr	r2, [pc, #56]	@ (100008bc <hw_claim_unlock+0x48>)
10000884:	4694      	mov	ip, r2
10000886:	4463      	add	r3, ip
10000888:	009b      	lsls	r3, r3, #2
1000088a:	61fb      	str	r3, [r7, #28]
1000088c:	687b      	ldr	r3, [r7, #4]
1000088e:	61bb      	str	r3, [r7, #24]
10000890:	69fb      	ldr	r3, [r7, #28]
10000892:	617b      	str	r3, [r7, #20]
10000894:	f3bf 8f5f 	dmb	sy
10000898:	46c0      	nop			@ (mov r8, r8)
1000089a:	46c0      	nop			@ (mov r8, r8)
1000089c:	697b      	ldr	r3, [r7, #20]
1000089e:	2200      	movs	r2, #0
100008a0:	601a      	str	r2, [r3, #0]
100008a2:	46c0      	nop			@ (mov r8, r8)
100008a4:	69bb      	ldr	r3, [r7, #24]
100008a6:	613b      	str	r3, [r7, #16]
100008a8:	693b      	ldr	r3, [r7, #16]
100008aa:	f383 8810 	msr	PRIMASK, r3
100008ae:	46c0      	nop			@ (mov r8, r8)
100008b0:	46c0      	nop			@ (mov r8, r8)
100008b2:	46c0      	nop			@ (mov r8, r8)
100008b4:	46bd      	mov	sp, r7
100008b6:	b008      	add	sp, #32
100008b8:	bd80      	pop	{r7, pc}
100008ba:	46c0      	nop			@ (mov r8, r8)
100008bc:	34000040 	.word	0x34000040

100008c0 <hw_is_claimed>:
100008c0:	b580      	push	{r7, lr}
100008c2:	b082      	sub	sp, #8
100008c4:	af00      	add	r7, sp, #0
100008c6:	6078      	str	r0, [r7, #4]
100008c8:	6039      	str	r1, [r7, #0]
100008ca:	683b      	ldr	r3, [r7, #0]
100008cc:	08db      	lsrs	r3, r3, #3
100008ce:	687a      	ldr	r2, [r7, #4]
100008d0:	18d3      	adds	r3, r2, r3
100008d2:	781b      	ldrb	r3, [r3, #0]
100008d4:	0019      	movs	r1, r3
100008d6:	683b      	ldr	r3, [r7, #0]
100008d8:	2207      	movs	r2, #7
100008da:	4013      	ands	r3, r2
100008dc:	2201      	movs	r2, #1
100008de:	409a      	lsls	r2, r3
100008e0:	0013      	movs	r3, r2
100008e2:	400b      	ands	r3, r1
100008e4:	1e5a      	subs	r2, r3, #1
100008e6:	4193      	sbcs	r3, r2
100008e8:	b2db      	uxtb	r3, r3
100008ea:	0018      	movs	r0, r3
100008ec:	46bd      	mov	sp, r7
100008ee:	b002      	add	sp, #8
100008f0:	bd80      	pop	{r7, pc}

100008f2 <hw_claim_or_assert>:
100008f2:	b580      	push	{r7, lr}
100008f4:	b086      	sub	sp, #24
100008f6:	af00      	add	r7, sp, #0
100008f8:	60f8      	str	r0, [r7, #12]
100008fa:	60b9      	str	r1, [r7, #8]
100008fc:	607a      	str	r2, [r7, #4]
100008fe:	f7ff ff91 	bl	10000824 <hw_claim_lock>
10000902:	0003      	movs	r3, r0
10000904:	617b      	str	r3, [r7, #20]
10000906:	68ba      	ldr	r2, [r7, #8]
10000908:	68fb      	ldr	r3, [r7, #12]
1000090a:	0011      	movs	r1, r2
1000090c:	0018      	movs	r0, r3
1000090e:	f7ff ffd7 	bl	100008c0 <hw_is_claimed>
10000912:	1e03      	subs	r3, r0, #0
10000914:	d005      	beq.n	10000922 <hw_claim_or_assert+0x30>
10000916:	68ba      	ldr	r2, [r7, #8]
10000918:	687b      	ldr	r3, [r7, #4]
1000091a:	0011      	movs	r1, r2
1000091c:	0018      	movs	r0, r3
1000091e:	f003 fa51 	bl	10003dc4 <panic>
10000922:	68bb      	ldr	r3, [r7, #8]
10000924:	08db      	lsrs	r3, r3, #3
10000926:	68fa      	ldr	r2, [r7, #12]
10000928:	18d3      	adds	r3, r2, r3
1000092a:	7819      	ldrb	r1, [r3, #0]
1000092c:	68bb      	ldr	r3, [r7, #8]
1000092e:	2207      	movs	r2, #7
10000930:	4013      	ands	r3, r2
10000932:	2201      	movs	r2, #1
10000934:	409a      	lsls	r2, r3
10000936:	0013      	movs	r3, r2
10000938:	b2da      	uxtb	r2, r3
1000093a:	68bb      	ldr	r3, [r7, #8]
1000093c:	08db      	lsrs	r3, r3, #3
1000093e:	68f8      	ldr	r0, [r7, #12]
10000940:	18c3      	adds	r3, r0, r3
10000942:	430a      	orrs	r2, r1
10000944:	b2d2      	uxtb	r2, r2
10000946:	701a      	strb	r2, [r3, #0]
10000948:	697b      	ldr	r3, [r7, #20]
1000094a:	0018      	movs	r0, r3
1000094c:	f7ff ff92 	bl	10000874 <hw_claim_unlock>
10000950:	46c0      	nop			@ (mov r8, r8)
10000952:	46bd      	mov	sp, r7
10000954:	b006      	add	sp, #24
10000956:	bd80      	pop	{r7, pc}

10000958 <spin_locks_reset>:
10000958:	b580      	push	{r7, lr}
1000095a:	b084      	sub	sp, #16
1000095c:	af00      	add	r7, sp, #0
1000095e:	2300      	movs	r3, #0
10000960:	60fb      	str	r3, [r7, #12]
10000962:	e012      	b.n	1000098a <spin_locks_reset+0x32>
10000964:	68fb      	ldr	r3, [r7, #12]
10000966:	607b      	str	r3, [r7, #4]
10000968:	687b      	ldr	r3, [r7, #4]
1000096a:	4a0c      	ldr	r2, [pc, #48]	@ (1000099c <spin_locks_reset+0x44>)
1000096c:	4694      	mov	ip, r2
1000096e:	4463      	add	r3, ip
10000970:	009b      	lsls	r3, r3, #2
10000972:	60bb      	str	r3, [r7, #8]
10000974:	f3bf 8f5f 	dmb	sy
10000978:	46c0      	nop			@ (mov r8, r8)
1000097a:	46c0      	nop			@ (mov r8, r8)
1000097c:	68bb      	ldr	r3, [r7, #8]
1000097e:	2200      	movs	r2, #0
10000980:	601a      	str	r2, [r3, #0]
10000982:	46c0      	nop			@ (mov r8, r8)
10000984:	68fb      	ldr	r3, [r7, #12]
10000986:	3301      	adds	r3, #1
10000988:	60fb      	str	r3, [r7, #12]
1000098a:	68fb      	ldr	r3, [r7, #12]
1000098c:	2b1f      	cmp	r3, #31
1000098e:	d9e9      	bls.n	10000964 <spin_locks_reset+0xc>
10000990:	46c0      	nop			@ (mov r8, r8)
10000992:	46c0      	nop			@ (mov r8, r8)
10000994:	46bd      	mov	sp, r7
10000996:	b004      	add	sp, #16
10000998:	bd80      	pop	{r7, pc}
1000099a:	46c0      	nop			@ (mov r8, r8)
1000099c:	34000040 	.word	0x34000040

100009a0 <next_striped_spin_lock_num>:
100009a0:	b580      	push	{r7, lr}
100009a2:	b082      	sub	sp, #8
100009a4:	af00      	add	r7, sp, #0
100009a6:	4b09      	ldr	r3, [pc, #36]	@ (100009cc <next_striped_spin_lock_num+0x2c>)
100009a8:	781b      	ldrb	r3, [r3, #0]
100009aa:	1c5a      	adds	r2, r3, #1
100009ac:	b2d1      	uxtb	r1, r2
100009ae:	4a07      	ldr	r2, [pc, #28]	@ (100009cc <next_striped_spin_lock_num+0x2c>)
100009b0:	7011      	strb	r1, [r2, #0]
100009b2:	607b      	str	r3, [r7, #4]
100009b4:	4b05      	ldr	r3, [pc, #20]	@ (100009cc <next_striped_spin_lock_num+0x2c>)
100009b6:	781b      	ldrb	r3, [r3, #0]
100009b8:	2b17      	cmp	r3, #23
100009ba:	d902      	bls.n	100009c2 <next_striped_spin_lock_num+0x22>
100009bc:	4b03      	ldr	r3, [pc, #12]	@ (100009cc <next_striped_spin_lock_num+0x2c>)
100009be:	2210      	movs	r2, #16
100009c0:	701a      	strb	r2, [r3, #0]
100009c2:	687b      	ldr	r3, [r7, #4]
100009c4:	0018      	movs	r0, r3
100009c6:	46bd      	mov	sp, r7
100009c8:	b002      	add	sp, #8
100009ca:	bd80      	pop	{r7, pc}
100009cc:	20000500 	.word	0x20000500

100009d0 <check_irq_param>:
100009d0:	b580      	push	{r7, lr}
100009d2:	b082      	sub	sp, #8
100009d4:	af00      	add	r7, sp, #0
100009d6:	6078      	str	r0, [r7, #4]
100009d8:	46c0      	nop			@ (mov r8, r8)
100009da:	46bd      	mov	sp, r7
100009dc:	b002      	add	sp, #8
100009de:	bd80      	pop	{r7, pc}

100009e0 <get_vtable>:
100009e0:	b580      	push	{r7, lr}
100009e2:	af00      	add	r7, sp, #0
100009e4:	4b02      	ldr	r3, [pc, #8]	@ (100009f0 <get_vtable+0x10>)
100009e6:	689b      	ldr	r3, [r3, #8]
100009e8:	0018      	movs	r0, r3
100009ea:	46bd      	mov	sp, r7
100009ec:	bd80      	pop	{r7, pc}
100009ee:	46c0      	nop			@ (mov r8, r8)
100009f0:	e000ed00 	.word	0xe000ed00

100009f4 <add_thumb_bit>:
100009f4:	b580      	push	{r7, lr}
100009f6:	b082      	sub	sp, #8
100009f8:	af00      	add	r7, sp, #0
100009fa:	6078      	str	r0, [r7, #4]
100009fc:	687b      	ldr	r3, [r7, #4]
100009fe:	2201      	movs	r2, #1
10000a00:	4313      	orrs	r3, r2
10000a02:	0018      	movs	r0, r3
10000a04:	46bd      	mov	sp, r7
10000a06:	b002      	add	sp, #8
10000a08:	bd80      	pop	{r7, pc}

10000a0a <remove_thumb_bit>:
10000a0a:	b580      	push	{r7, lr}
10000a0c:	b082      	sub	sp, #8
10000a0e:	af00      	add	r7, sp, #0
10000a10:	6078      	str	r0, [r7, #4]
10000a12:	687b      	ldr	r3, [r7, #4]
10000a14:	2201      	movs	r2, #1
10000a16:	4393      	bics	r3, r2
10000a18:	0018      	movs	r0, r3
10000a1a:	46bd      	mov	sp, r7
10000a1c:	b002      	add	sp, #8
10000a1e:	bd80      	pop	{r7, pc}

10000a20 <set_raw_irq_handler_and_unlock>:
10000a20:	b580      	push	{r7, lr}
10000a22:	b08a      	sub	sp, #40	@ 0x28
10000a24:	af00      	add	r7, sp, #0
10000a26:	60f8      	str	r0, [r7, #12]
10000a28:	60b9      	str	r1, [r7, #8]
10000a2a:	607a      	str	r2, [r7, #4]
10000a2c:	f7ff ffd8 	bl	100009e0 <get_vtable>
10000a30:	0002      	movs	r2, r0
10000a32:	68fb      	ldr	r3, [r7, #12]
10000a34:	3310      	adds	r3, #16
10000a36:	009b      	lsls	r3, r3, #2
10000a38:	18d3      	adds	r3, r2, r3
10000a3a:	68ba      	ldr	r2, [r7, #8]
10000a3c:	601a      	str	r2, [r3, #0]
10000a3e:	f3bf 8f5f 	dmb	sy
10000a42:	46c0      	nop			@ (mov r8, r8)
10000a44:	2309      	movs	r3, #9
10000a46:	617b      	str	r3, [r7, #20]
10000a48:	697b      	ldr	r3, [r7, #20]
10000a4a:	4a0e      	ldr	r2, [pc, #56]	@ (10000a84 <set_raw_irq_handler_and_unlock+0x64>)
10000a4c:	4694      	mov	ip, r2
10000a4e:	4463      	add	r3, ip
10000a50:	009b      	lsls	r3, r3, #2
10000a52:	627b      	str	r3, [r7, #36]	@ 0x24
10000a54:	687b      	ldr	r3, [r7, #4]
10000a56:	623b      	str	r3, [r7, #32]
10000a58:	6a7b      	ldr	r3, [r7, #36]	@ 0x24
10000a5a:	61fb      	str	r3, [r7, #28]
10000a5c:	f3bf 8f5f 	dmb	sy
10000a60:	46c0      	nop			@ (mov r8, r8)
10000a62:	46c0      	nop			@ (mov r8, r8)
10000a64:	69fb      	ldr	r3, [r7, #28]
10000a66:	2200      	movs	r2, #0
10000a68:	601a      	str	r2, [r3, #0]
10000a6a:	46c0      	nop			@ (mov r8, r8)
10000a6c:	6a3b      	ldr	r3, [r7, #32]
10000a6e:	61bb      	str	r3, [r7, #24]
10000a70:	69bb      	ldr	r3, [r7, #24]
10000a72:	f383 8810 	msr	PRIMASK, r3
10000a76:	46c0      	nop			@ (mov r8, r8)
10000a78:	46c0      	nop			@ (mov r8, r8)
10000a7a:	46c0      	nop			@ (mov r8, r8)
10000a7c:	46bd      	mov	sp, r7
10000a7e:	b00a      	add	sp, #40	@ 0x28
10000a80:	bd80      	pop	{r7, pc}
10000a82:	46c0      	nop			@ (mov r8, r8)
10000a84:	34000040 	.word	0x34000040

10000a88 <irq_set_enabled>:
10000a88:	b580      	push	{r7, lr}
10000a8a:	b082      	sub	sp, #8
10000a8c:	af00      	add	r7, sp, #0
10000a8e:	6078      	str	r0, [r7, #4]
10000a90:	000a      	movs	r2, r1
10000a92:	1cfb      	adds	r3, r7, #3
10000a94:	701a      	strb	r2, [r3, #0]
10000a96:	687b      	ldr	r3, [r7, #4]
10000a98:	0018      	movs	r0, r3
10000a9a:	f7ff ff99 	bl	100009d0 <check_irq_param>
10000a9e:	2201      	movs	r2, #1
10000aa0:	687b      	ldr	r3, [r7, #4]
10000aa2:	409a      	lsls	r2, r3
10000aa4:	1cfb      	adds	r3, r7, #3
10000aa6:	781b      	ldrb	r3, [r3, #0]
10000aa8:	0019      	movs	r1, r3
10000aaa:	0010      	movs	r0, r2
10000aac:	f000 f81c 	bl	10000ae8 <irq_set_mask_enabled>
10000ab0:	46c0      	nop			@ (mov r8, r8)
10000ab2:	46bd      	mov	sp, r7
10000ab4:	b002      	add	sp, #8
10000ab6:	bd80      	pop	{r7, pc}

10000ab8 <irq_is_enabled>:
10000ab8:	b580      	push	{r7, lr}
10000aba:	b082      	sub	sp, #8
10000abc:	af00      	add	r7, sp, #0
10000abe:	6078      	str	r0, [r7, #4]
10000ac0:	687b      	ldr	r3, [r7, #4]
10000ac2:	0018      	movs	r0, r3
10000ac4:	f7ff ff84 	bl	100009d0 <check_irq_param>
10000ac8:	2201      	movs	r2, #1
10000aca:	687b      	ldr	r3, [r7, #4]
10000acc:	409a      	lsls	r2, r3
10000ace:	4b05      	ldr	r3, [pc, #20]	@ (10000ae4 <irq_is_enabled+0x2c>)
10000ad0:	681b      	ldr	r3, [r3, #0]
10000ad2:	4013      	ands	r3, r2
10000ad4:	1e5a      	subs	r2, r3, #1
10000ad6:	4193      	sbcs	r3, r2
10000ad8:	b2db      	uxtb	r3, r3
10000ada:	0018      	movs	r0, r3
10000adc:	46bd      	mov	sp, r7
10000ade:	b002      	add	sp, #8
10000ae0:	bd80      	pop	{r7, pc}
10000ae2:	46c0      	nop			@ (mov r8, r8)
10000ae4:	e000e100 	.word	0xe000e100

10000ae8 <irq_set_mask_enabled>:
10000ae8:	b580      	push	{r7, lr}
10000aea:	b082      	sub	sp, #8
10000aec:	af00      	add	r7, sp, #0
10000aee:	6078      	str	r0, [r7, #4]
10000af0:	000a      	movs	r2, r1
10000af2:	1cfb      	adds	r3, r7, #3
10000af4:	701a      	strb	r2, [r3, #0]
10000af6:	1cfb      	adds	r3, r7, #3
10000af8:	781b      	ldrb	r3, [r3, #0]
10000afa:	2b00      	cmp	r3, #0
10000afc:	d006      	beq.n	10000b0c <irq_set_mask_enabled+0x24>
10000afe:	4b07      	ldr	r3, [pc, #28]	@ (10000b1c <irq_set_mask_enabled+0x34>)
10000b00:	687a      	ldr	r2, [r7, #4]
10000b02:	601a      	str	r2, [r3, #0]
10000b04:	4b06      	ldr	r3, [pc, #24]	@ (10000b20 <irq_set_mask_enabled+0x38>)
10000b06:	687a      	ldr	r2, [r7, #4]
10000b08:	601a      	str	r2, [r3, #0]
10000b0a:	e002      	b.n	10000b12 <irq_set_mask_enabled+0x2a>
10000b0c:	4b05      	ldr	r3, [pc, #20]	@ (10000b24 <irq_set_mask_enabled+0x3c>)
10000b0e:	687a      	ldr	r2, [r7, #4]
10000b10:	601a      	str	r2, [r3, #0]
10000b12:	46c0      	nop			@ (mov r8, r8)
10000b14:	46bd      	mov	sp, r7
10000b16:	b002      	add	sp, #8
10000b18:	bd80      	pop	{r7, pc}
10000b1a:	46c0      	nop			@ (mov r8, r8)
10000b1c:	e000e280 	.word	0xe000e280
10000b20:	e000e100 	.word	0xe000e100
10000b24:	e000e180 	.word	0xe000e180

10000b28 <is_shared_irq_raw_handler>:
10000b28:	b580      	push	{r7, lr}
10000b2a:	b082      	sub	sp, #8
10000b2c:	af00      	add	r7, sp, #0
10000b2e:	6078      	str	r0, [r7, #4]
10000b30:	687a      	ldr	r2, [r7, #4]
10000b32:	4b05      	ldr	r3, [pc, #20]	@ (10000b48 <is_shared_irq_raw_handler+0x20>)
10000b34:	1ad2      	subs	r2, r2, r3
10000b36:	212f      	movs	r1, #47	@ 0x2f
10000b38:	2300      	movs	r3, #0
10000b3a:	4291      	cmp	r1, r2
10000b3c:	415b      	adcs	r3, r3
10000b3e:	b2db      	uxtb	r3, r3
10000b40:	0018      	movs	r0, r3
10000b42:	46bd      	mov	sp, r7
10000b44:	b002      	add	sp, #8
10000b46:	bd80      	pop	{r7, pc}
10000b48:	20000504 	.word	0x20000504

10000b4c <irq_get_vtable_handler>:
10000b4c:	b580      	push	{r7, lr}
10000b4e:	b082      	sub	sp, #8
10000b50:	af00      	add	r7, sp, #0
10000b52:	6078      	str	r0, [r7, #4]
10000b54:	687b      	ldr	r3, [r7, #4]
10000b56:	0018      	movs	r0, r3
10000b58:	f7ff ff3a 	bl	100009d0 <check_irq_param>
10000b5c:	f7ff ff40 	bl	100009e0 <get_vtable>
10000b60:	0002      	movs	r2, r0
10000b62:	687b      	ldr	r3, [r7, #4]
10000b64:	3310      	adds	r3, #16
10000b66:	009b      	lsls	r3, r3, #2
10000b68:	18d3      	adds	r3, r2, r3
10000b6a:	681b      	ldr	r3, [r3, #0]
10000b6c:	0018      	movs	r0, r3
10000b6e:	46bd      	mov	sp, r7
10000b70:	b002      	add	sp, #8
10000b72:	bd80      	pop	{r7, pc}

10000b74 <irq_set_exclusive_handler>:
10000b74:	b580      	push	{r7, lr}
10000b76:	b08a      	sub	sp, #40	@ 0x28
10000b78:	af00      	add	r7, sp, #0
10000b7a:	6078      	str	r0, [r7, #4]
10000b7c:	6039      	str	r1, [r7, #0]
10000b7e:	687b      	ldr	r3, [r7, #4]
10000b80:	0018      	movs	r0, r3
10000b82:	f7ff ff25 	bl	100009d0 <check_irq_param>
10000b86:	2309      	movs	r3, #9
10000b88:	60bb      	str	r3, [r7, #8]
10000b8a:	68bb      	ldr	r3, [r7, #8]
10000b8c:	4a1d      	ldr	r2, [pc, #116]	@ (10000c04 <irq_set_exclusive_handler+0x90>)
10000b8e:	4694      	mov	ip, r2
10000b90:	4463      	add	r3, ip
10000b92:	009b      	lsls	r3, r3, #2
10000b94:	627b      	str	r3, [r7, #36]	@ 0x24
10000b96:	6a7b      	ldr	r3, [r7, #36]	@ 0x24
10000b98:	61bb      	str	r3, [r7, #24]
10000b9a:	f3ef 8310 	mrs	r3, PRIMASK
10000b9e:	b672      	cpsid	i
10000ba0:	617b      	str	r3, [r7, #20]
10000ba2:	697b      	ldr	r3, [r7, #20]
10000ba4:	613b      	str	r3, [r7, #16]
10000ba6:	69bb      	ldr	r3, [r7, #24]
10000ba8:	60fb      	str	r3, [r7, #12]
10000baa:	46c0      	nop			@ (mov r8, r8)
10000bac:	68fb      	ldr	r3, [r7, #12]
10000bae:	681b      	ldr	r3, [r3, #0]
10000bb0:	425a      	negs	r2, r3
10000bb2:	4153      	adcs	r3, r2
10000bb4:	b2db      	uxtb	r3, r3
10000bb6:	2b00      	cmp	r3, #0
10000bb8:	d1f8      	bne.n	10000bac <irq_set_exclusive_handler+0x38>
10000bba:	f3bf 8f5f 	dmb	sy
10000bbe:	46c0      	nop			@ (mov r8, r8)
10000bc0:	46c0      	nop			@ (mov r8, r8)
10000bc2:	46c0      	nop			@ (mov r8, r8)
10000bc4:	693b      	ldr	r3, [r7, #16]
10000bc6:	623b      	str	r3, [r7, #32]
10000bc8:	687b      	ldr	r3, [r7, #4]
10000bca:	0018      	movs	r0, r3
10000bcc:	f7ff ffbe 	bl	10000b4c <irq_get_vtable_handler>
10000bd0:	0003      	movs	r3, r0
10000bd2:	61fb      	str	r3, [r7, #28]
10000bd4:	69fa      	ldr	r2, [r7, #28]
10000bd6:	4b0c      	ldr	r3, [pc, #48]	@ (10000c08 <irq_set_exclusive_handler+0x94>)
10000bd8:	429a      	cmp	r2, r3
10000bda:	d009      	beq.n	10000bf0 <irq_set_exclusive_handler+0x7c>
10000bdc:	69fa      	ldr	r2, [r7, #28]
10000bde:	683b      	ldr	r3, [r7, #0]
10000be0:	429a      	cmp	r2, r3
10000be2:	d005      	beq.n	10000bf0 <irq_set_exclusive_handler+0x7c>
10000be4:	4b09      	ldr	r3, [pc, #36]	@ (10000c0c <irq_set_exclusive_handler+0x98>)
10000be6:	4a0a      	ldr	r2, [pc, #40]	@ (10000c10 <irq_set_exclusive_handler+0x9c>)
10000be8:	480a      	ldr	r0, [pc, #40]	@ (10000c14 <irq_set_exclusive_handler+0xa0>)
10000bea:	2186      	movs	r1, #134	@ 0x86
10000bec:	f003 f8c4 	bl	10003d78 <__assert_func>
10000bf0:	6a3a      	ldr	r2, [r7, #32]
10000bf2:	6839      	ldr	r1, [r7, #0]
10000bf4:	687b      	ldr	r3, [r7, #4]
10000bf6:	0018      	movs	r0, r3
10000bf8:	f7ff ff12 	bl	10000a20 <set_raw_irq_handler_and_unlock>
10000bfc:	46c0      	nop			@ (mov r8, r8)
10000bfe:	46bd      	mov	sp, r7
10000c00:	b00a      	add	sp, #40	@ 0x28
10000c02:	bd80      	pop	{r7, pc}
10000c04:	34000040 	.word	0x34000040
10000c08:	100001cd 	.word	0x100001cd
10000c0c:	100093ac 	.word	0x100093ac
10000c10:	100095f0 	.word	0x100095f0
10000c14:	100093e4 	.word	0x100093e4

10000c18 <make_branch>:
10000c18:	b580      	push	{r7, lr}
10000c1a:	b086      	sub	sp, #24
10000c1c:	af00      	add	r7, sp, #0
10000c1e:	6078      	str	r0, [r7, #4]
10000c20:	6039      	str	r1, [r7, #0]
10000c22:	687b      	ldr	r3, [r7, #4]
10000c24:	617b      	str	r3, [r7, #20]
10000c26:	683b      	ldr	r3, [r7, #0]
10000c28:	613b      	str	r3, [r7, #16]
10000c2a:	693a      	ldr	r2, [r7, #16]
10000c2c:	697b      	ldr	r3, [r7, #20]
10000c2e:	1ad3      	subs	r3, r2, r3
10000c30:	3b04      	subs	r3, #4
10000c32:	60fb      	str	r3, [r7, #12]
10000c34:	68fb      	ldr	r3, [r7, #12]
10000c36:	4a0f      	ldr	r2, [pc, #60]	@ (10000c74 <make_branch+0x5c>)
10000c38:	4293      	cmp	r3, r2
10000c3a:	db07      	blt.n	10000c4c <make_branch+0x34>
10000c3c:	68fb      	ldr	r3, [r7, #12]
10000c3e:	4a0e      	ldr	r2, [pc, #56]	@ (10000c78 <make_branch+0x60>)
10000c40:	4293      	cmp	r3, r2
10000c42:	dc03      	bgt.n	10000c4c <make_branch+0x34>
10000c44:	68fb      	ldr	r3, [r7, #12]
10000c46:	2201      	movs	r2, #1
10000c48:	4013      	ands	r3, r2
10000c4a:	d005      	beq.n	10000c58 <make_branch+0x40>
10000c4c:	4b0b      	ldr	r3, [pc, #44]	@ (10000c7c <make_branch+0x64>)
10000c4e:	4a0c      	ldr	r2, [pc, #48]	@ (10000c80 <make_branch+0x68>)
10000c50:	480c      	ldr	r0, [pc, #48]	@ (10000c84 <make_branch+0x6c>)
10000c52:	21a3      	movs	r1, #163	@ 0xa3
10000c54:	f003 f890 	bl	10003d78 <__assert_func>
10000c58:	68fb      	ldr	r3, [r7, #12]
10000c5a:	105b      	asrs	r3, r3, #1
10000c5c:	b21b      	sxth	r3, r3
10000c5e:	055b      	lsls	r3, r3, #21
10000c60:	0d5b      	lsrs	r3, r3, #21
10000c62:	b21b      	sxth	r3, r3
10000c64:	4a08      	ldr	r2, [pc, #32]	@ (10000c88 <make_branch+0x70>)
10000c66:	4313      	orrs	r3, r2
10000c68:	b21b      	sxth	r3, r3
10000c6a:	b29b      	uxth	r3, r3
10000c6c:	0018      	movs	r0, r3
10000c6e:	46bd      	mov	sp, r7
10000c70:	b006      	add	sp, #24
10000c72:	bd80      	pop	{r7, pc}
10000c74:	fffff800 	.word	0xfffff800
10000c78:	000007fe 	.word	0x000007fe
10000c7c:	10009424 	.word	0x10009424
10000c80:	1000960c 	.word	0x1000960c
10000c84:	100093e4 	.word	0x100093e4
10000c88:	ffffe000 	.word	0xffffe000

10000c8c <insert_branch_and_link>:
10000c8c:	b580      	push	{r7, lr}
10000c8e:	b086      	sub	sp, #24
10000c90:	af00      	add	r7, sp, #0
10000c92:	6078      	str	r0, [r7, #4]
10000c94:	6039      	str	r1, [r7, #0]
10000c96:	687b      	ldr	r3, [r7, #4]
10000c98:	617b      	str	r3, [r7, #20]
10000c9a:	683b      	ldr	r3, [r7, #0]
10000c9c:	613b      	str	r3, [r7, #16]
10000c9e:	693a      	ldr	r2, [r7, #16]
10000ca0:	697b      	ldr	r3, [r7, #20]
10000ca2:	1ad3      	subs	r3, r2, r3
10000ca4:	3b04      	subs	r3, #4
10000ca6:	085b      	lsrs	r3, r3, #1
10000ca8:	60fb      	str	r3, [r7, #12]
10000caa:	68fb      	ldr	r3, [r7, #12]
10000cac:	0adb      	lsrs	r3, r3, #11
10000cae:	d005      	beq.n	10000cbc <insert_branch_and_link+0x30>
10000cb0:	4b0e      	ldr	r3, [pc, #56]	@ (10000cec <insert_branch_and_link+0x60>)
10000cb2:	4a0f      	ldr	r2, [pc, #60]	@ (10000cf0 <insert_branch_and_link+0x64>)
10000cb4:	480f      	ldr	r0, [pc, #60]	@ (10000cf4 <insert_branch_and_link+0x68>)
10000cb6:	21ab      	movs	r1, #171	@ 0xab
10000cb8:	f003 f85e 	bl	10003d78 <__assert_func>
10000cbc:	68fb      	ldr	r3, [r7, #12]
10000cbe:	0adb      	lsrs	r3, r3, #11
10000cc0:	b29b      	uxth	r3, r3
10000cc2:	055b      	lsls	r3, r3, #21
10000cc4:	0d5b      	lsrs	r3, r3, #21
10000cc6:	b29b      	uxth	r3, r3
10000cc8:	4a0b      	ldr	r2, [pc, #44]	@ (10000cf8 <insert_branch_and_link+0x6c>)
10000cca:	4313      	orrs	r3, r2
10000ccc:	b29a      	uxth	r2, r3
10000cce:	687b      	ldr	r3, [r7, #4]
10000cd0:	801a      	strh	r2, [r3, #0]
10000cd2:	68fb      	ldr	r3, [r7, #12]
10000cd4:	b29a      	uxth	r2, r3
10000cd6:	687b      	ldr	r3, [r7, #4]
10000cd8:	3302      	adds	r3, #2
10000cda:	4908      	ldr	r1, [pc, #32]	@ (10000cfc <insert_branch_and_link+0x70>)
10000cdc:	430a      	orrs	r2, r1
10000cde:	b292      	uxth	r2, r2
10000ce0:	801a      	strh	r2, [r3, #0]
10000ce2:	46c0      	nop			@ (mov r8, r8)
10000ce4:	46bd      	mov	sp, r7
10000ce6:	b006      	add	sp, #24
10000ce8:	bd80      	pop	{r7, pc}
10000cea:	46c0      	nop			@ (mov r8, r8)
10000cec:	10009454 	.word	0x10009454
10000cf0:	10009618 	.word	0x10009618
10000cf4:	100093e4 	.word	0x100093e4
10000cf8:	fffff000 	.word	0xfffff000
10000cfc:	fffff800 	.word	0xfffff800

10000d00 <resolve_branch>:
10000d00:	b580      	push	{r7, lr}
10000d02:	b084      	sub	sp, #16
10000d04:	af00      	add	r7, sp, #0
10000d06:	6078      	str	r0, [r7, #4]
10000d08:	687b      	ldr	r3, [r7, #4]
10000d0a:	881b      	ldrh	r3, [r3, #0]
10000d0c:	0adb      	lsrs	r3, r3, #11
10000d0e:	b29b      	uxth	r3, r3
10000d10:	2b1c      	cmp	r3, #28
10000d12:	d005      	beq.n	10000d20 <resolve_branch+0x20>
10000d14:	4b0d      	ldr	r3, [pc, #52]	@ (10000d4c <resolve_branch+0x4c>)
10000d16:	4a0e      	ldr	r2, [pc, #56]	@ (10000d50 <resolve_branch+0x50>)
10000d18:	480e      	ldr	r0, [pc, #56]	@ (10000d54 <resolve_branch+0x54>)
10000d1a:	21b1      	movs	r1, #177	@ 0xb1
10000d1c:	f003 f82c 	bl	10003d78 <__assert_func>
10000d20:	687b      	ldr	r3, [r7, #4]
10000d22:	881b      	ldrh	r3, [r3, #0]
10000d24:	055b      	lsls	r3, r3, #21
10000d26:	60fb      	str	r3, [r7, #12]
10000d28:	68fb      	ldr	r3, [r7, #12]
10000d2a:	2b00      	cmp	r3, #0
10000d2c:	da02      	bge.n	10000d34 <resolve_branch+0x34>
10000d2e:	4a0a      	ldr	r2, [pc, #40]	@ (10000d58 <resolve_branch+0x58>)
10000d30:	4694      	mov	ip, r2
10000d32:	4463      	add	r3, ip
10000d34:	155b      	asrs	r3, r3, #21
10000d36:	60fb      	str	r3, [r7, #12]
10000d38:	68fb      	ldr	r3, [r7, #12]
10000d3a:	3302      	adds	r3, #2
10000d3c:	005b      	lsls	r3, r3, #1
10000d3e:	687a      	ldr	r2, [r7, #4]
10000d40:	18d3      	adds	r3, r2, r3
10000d42:	0018      	movs	r0, r3
10000d44:	46bd      	mov	sp, r7
10000d46:	b004      	add	sp, #16
10000d48:	bd80      	pop	{r7, pc}
10000d4a:	46c0      	nop			@ (mov r8, r8)
10000d4c:	10009464 	.word	0x10009464
10000d50:	10009630 	.word	0x10009630
10000d54:	100093e4 	.word	0x100093e4
10000d58:	001fffff 	.word	0x001fffff

10000d5c <slot_diff>:
10000d5c:	b580      	push	{r7, lr}
10000d5e:	b084      	sub	sp, #16
10000d60:	af00      	add	r7, sp, #0
10000d62:	6078      	str	r0, [r7, #4]
10000d64:	6039      	str	r1, [r7, #0]
10000d66:	4b08      	ldr	r3, [pc, #32]	@ (10000d88 <slot_diff+0x2c>)
10000d68:	60fb      	str	r3, [r7, #12]
10000d6a:	6839      	ldr	r1, [r7, #0]
10000d6c:	68fa      	ldr	r2, [r7, #12]
10000d6e:	687b      	ldr	r3, [r7, #4]
10000d70:	1a5b      	subs	r3, r3, r1
10000d72:	415b      	adcs	r3, r3
10000d74:	435a      	muls	r2, r3
10000d76:	0d12      	lsrs	r2, r2, #20
10000d78:	60fa      	str	r2, [r7, #12]
10000d7a:	607b      	str	r3, [r7, #4]
10000d7c:	68fb      	ldr	r3, [r7, #12]
10000d7e:	b25b      	sxtb	r3, r3
10000d80:	0018      	movs	r0, r3
10000d82:	46bd      	mov	sp, r7
10000d84:	b004      	add	sp, #16
10000d86:	bd80      	pop	{r7, pc}
10000d88:	0000aaaa 	.word	0x0000aaaa

10000d8c <get_slot_index>:
10000d8c:	b580      	push	{r7, lr}
10000d8e:	b082      	sub	sp, #8
10000d90:	af00      	add	r7, sp, #0
10000d92:	6078      	str	r0, [r7, #4]
10000d94:	4a05      	ldr	r2, [pc, #20]	@ (10000dac <get_slot_index+0x20>)
10000d96:	687b      	ldr	r3, [r7, #4]
10000d98:	0011      	movs	r1, r2
10000d9a:	0018      	movs	r0, r3
10000d9c:	f7ff ffde 	bl	10000d5c <slot_diff>
10000da0:	0003      	movs	r3, r0
10000da2:	0018      	movs	r0, r3
10000da4:	46bd      	mov	sp, r7
10000da6:	b002      	add	sp, #8
10000da8:	bd80      	pop	{r7, pc}
10000daa:	46c0      	nop			@ (mov r8, r8)
10000dac:	20000504 	.word	0x20000504

10000db0 <irq_remove_handler>:
10000db0:	b590      	push	{r4, r7, lr}
10000db2:	b093      	sub	sp, #76	@ 0x4c
10000db4:	af00      	add	r7, sp, #0
10000db6:	6078      	str	r0, [r7, #4]
10000db8:	6039      	str	r1, [r7, #0]
10000dba:	2309      	movs	r3, #9
10000dbc:	60fb      	str	r3, [r7, #12]
10000dbe:	68fb      	ldr	r3, [r7, #12]
10000dc0:	4a84      	ldr	r2, [pc, #528]	@ (10000fd4 <irq_remove_handler+0x224>)
10000dc2:	4694      	mov	ip, r2
10000dc4:	4463      	add	r3, ip
10000dc6:	009b      	lsls	r3, r3, #2
10000dc8:	63bb      	str	r3, [r7, #56]	@ 0x38
10000dca:	6bbb      	ldr	r3, [r7, #56]	@ 0x38
10000dcc:	61fb      	str	r3, [r7, #28]
10000dce:	f3ef 8310 	mrs	r3, PRIMASK
10000dd2:	b672      	cpsid	i
10000dd4:	61bb      	str	r3, [r7, #24]
10000dd6:	69bb      	ldr	r3, [r7, #24]
10000dd8:	617b      	str	r3, [r7, #20]
10000dda:	69fb      	ldr	r3, [r7, #28]
10000ddc:	613b      	str	r3, [r7, #16]
10000dde:	46c0      	nop			@ (mov r8, r8)
10000de0:	693b      	ldr	r3, [r7, #16]
10000de2:	681b      	ldr	r3, [r3, #0]
10000de4:	425a      	negs	r2, r3
10000de6:	4153      	adcs	r3, r2
10000de8:	b2db      	uxtb	r3, r3
10000dea:	2b00      	cmp	r3, #0
10000dec:	d1f8      	bne.n	10000de0 <irq_remove_handler+0x30>
10000dee:	f3bf 8f5f 	dmb	sy
10000df2:	46c0      	nop			@ (mov r8, r8)
10000df4:	46c0      	nop			@ (mov r8, r8)
10000df6:	46c0      	nop			@ (mov r8, r8)
10000df8:	697b      	ldr	r3, [r7, #20]
10000dfa:	637b      	str	r3, [r7, #52]	@ 0x34
10000dfc:	f7ff fdf0 	bl	100009e0 <get_vtable>
10000e00:	0002      	movs	r2, r0
10000e02:	687b      	ldr	r3, [r7, #4]
10000e04:	3310      	adds	r3, #16
10000e06:	009b      	lsls	r3, r3, #2
10000e08:	18d3      	adds	r3, r2, r3
10000e0a:	681b      	ldr	r3, [r3, #0]
10000e0c:	647b      	str	r3, [r7, #68]	@ 0x44
10000e0e:	6c7a      	ldr	r2, [r7, #68]	@ 0x44
10000e10:	4b71      	ldr	r3, [pc, #452]	@ (10000fd8 <irq_remove_handler+0x228>)
10000e12:	429a      	cmp	r2, r3
10000e14:	d100      	bne.n	10000e18 <irq_remove_handler+0x68>
10000e16:	e0d0      	b.n	10000fba <irq_remove_handler+0x20a>
10000e18:	6c7a      	ldr	r2, [r7, #68]	@ 0x44
10000e1a:	683b      	ldr	r3, [r7, #0]
10000e1c:	429a      	cmp	r2, r3
10000e1e:	d100      	bne.n	10000e22 <irq_remove_handler+0x72>
10000e20:	e0cb      	b.n	10000fba <irq_remove_handler+0x20a>
10000e22:	6c7b      	ldr	r3, [r7, #68]	@ 0x44
10000e24:	0018      	movs	r0, r3
10000e26:	f7ff fe7f 	bl	10000b28 <is_shared_irq_raw_handler>
10000e2a:	1e03      	subs	r3, r0, #0
10000e2c:	d100      	bne.n	10000e30 <irq_remove_handler+0x80>
10000e2e:	e0c6      	b.n	10000fbe <irq_remove_handler+0x20e>
10000e30:	2333      	movs	r3, #51	@ 0x33
10000e32:	18fc      	adds	r4, r7, r3
10000e34:	687b      	ldr	r3, [r7, #4]
10000e36:	0018      	movs	r0, r3
10000e38:	f7ff fe3e 	bl	10000ab8 <irq_is_enabled>
10000e3c:	0003      	movs	r3, r0
10000e3e:	7023      	strb	r3, [r4, #0]
10000e40:	687b      	ldr	r3, [r7, #4]
10000e42:	2100      	movs	r1, #0
10000e44:	0018      	movs	r0, r3
10000e46:	f7ff fe1f 	bl	10000a88 <irq_set_enabled>
10000e4a:	f3bf 8f5f 	dmb	sy
10000e4e:	46c0      	nop			@ (mov r8, r8)
10000e50:	f3ef 8305 	mrs	r3, IPSR
10000e54:	60bb      	str	r3, [r7, #8]
10000e56:	68bb      	ldr	r3, [r7, #8]
10000e58:	62fb      	str	r3, [r7, #44]	@ 0x2c
10000e5a:	6afb      	ldr	r3, [r7, #44]	@ 0x2c
10000e5c:	2b00      	cmp	r3, #0
10000e5e:	d00b      	beq.n	10000e78 <irq_remove_handler+0xc8>
10000e60:	687b      	ldr	r3, [r7, #4]
10000e62:	3310      	adds	r3, #16
10000e64:	6afa      	ldr	r2, [r7, #44]	@ 0x2c
10000e66:	429a      	cmp	r2, r3
10000e68:	d006      	beq.n	10000e78 <irq_remove_handler+0xc8>
10000e6a:	4b5c      	ldr	r3, [pc, #368]	@ (10000fdc <irq_remove_handler+0x22c>)
10000e6c:	4a5c      	ldr	r2, [pc, #368]	@ (10000fe0 <irq_remove_handler+0x230>)
10000e6e:	2136      	movs	r1, #54	@ 0x36
10000e70:	31ff      	adds	r1, #255	@ 0xff
10000e72:	485c      	ldr	r0, [pc, #368]	@ (10000fe4 <irq_remove_handler+0x234>)
10000e74:	f002 ff80 	bl	10003d78 <__assert_func>
10000e78:	2300      	movs	r3, #0
10000e7a:	643b      	str	r3, [r7, #64]	@ 0x40
10000e7c:	6c7b      	ldr	r3, [r7, #68]	@ 0x44
10000e7e:	0018      	movs	r0, r3
10000e80:	f7ff fdc3 	bl	10000a0a <remove_thumb_bit>
10000e84:	0003      	movs	r3, r0
10000e86:	62bb      	str	r3, [r7, #40]	@ 0x28
10000e88:	6abb      	ldr	r3, [r7, #40]	@ 0x28
10000e8a:	63fb      	str	r3, [r7, #60]	@ 0x3c
10000e8c:	e011      	b.n	10000eb2 <irq_remove_handler+0x102>
10000e8e:	6bfb      	ldr	r3, [r7, #60]	@ 0x3c
10000e90:	643b      	str	r3, [r7, #64]	@ 0x40
10000e92:	6bfb      	ldr	r3, [r7, #60]	@ 0x3c
10000e94:	799b      	ldrb	r3, [r3, #6]
10000e96:	b25b      	sxtb	r3, r3
10000e98:	2b00      	cmp	r3, #0
10000e9a:	db10      	blt.n	10000ebe <irq_remove_handler+0x10e>
10000e9c:	6bfb      	ldr	r3, [r7, #60]	@ 0x3c
10000e9e:	799b      	ldrb	r3, [r3, #6]
10000ea0:	b25b      	sxtb	r3, r3
10000ea2:	001a      	movs	r2, r3
10000ea4:	0013      	movs	r3, r2
10000ea6:	005b      	lsls	r3, r3, #1
10000ea8:	189b      	adds	r3, r3, r2
10000eaa:	009b      	lsls	r3, r3, #2
10000eac:	4a4e      	ldr	r2, [pc, #312]	@ (10000fe8 <irq_remove_handler+0x238>)
10000eae:	189b      	adds	r3, r3, r2
10000eb0:	63fb      	str	r3, [r7, #60]	@ 0x3c
10000eb2:	6bfb      	ldr	r3, [r7, #60]	@ 0x3c
10000eb4:	689b      	ldr	r3, [r3, #8]
10000eb6:	683a      	ldr	r2, [r7, #0]
10000eb8:	429a      	cmp	r2, r3
10000eba:	d1e8      	bne.n	10000e8e <irq_remove_handler+0xde>
10000ebc:	e000      	b.n	10000ec0 <irq_remove_handler+0x110>
10000ebe:	46c0      	nop			@ (mov r8, r8)
10000ec0:	6bfb      	ldr	r3, [r7, #60]	@ 0x3c
10000ec2:	689b      	ldr	r3, [r3, #8]
10000ec4:	683a      	ldr	r2, [r7, #0]
10000ec6:	429a      	cmp	r2, r3
10000ec8:	d167      	bne.n	10000f9a <irq_remove_handler+0x1ea>
10000eca:	2127      	movs	r1, #39	@ 0x27
10000ecc:	187b      	adds	r3, r7, r1
10000ece:	6bfa      	ldr	r2, [r7, #60]	@ 0x3c
10000ed0:	7992      	ldrb	r2, [r2, #6]
10000ed2:	701a      	strb	r2, [r3, #0]
10000ed4:	000a      	movs	r2, r1
10000ed6:	18bb      	adds	r3, r7, r2
10000ed8:	781b      	ldrb	r3, [r3, #0]
10000eda:	2b7f      	cmp	r3, #127	@ 0x7f
10000edc:	d838      	bhi.n	10000f50 <irq_remove_handler+0x1a0>
10000ede:	18bb      	adds	r3, r7, r2
10000ee0:	2200      	movs	r2, #0
10000ee2:	569a      	ldrsb	r2, [r3, r2]
10000ee4:	0013      	movs	r3, r2
10000ee6:	005b      	lsls	r3, r3, #1
10000ee8:	189b      	adds	r3, r3, r2
10000eea:	009b      	lsls	r3, r3, #2
10000eec:	4a3e      	ldr	r2, [pc, #248]	@ (10000fe8 <irq_remove_handler+0x238>)
10000eee:	189b      	adds	r3, r3, r2
10000ef0:	623b      	str	r3, [r7, #32]
10000ef2:	6a3b      	ldr	r3, [r7, #32]
10000ef4:	689a      	ldr	r2, [r3, #8]
10000ef6:	6bfb      	ldr	r3, [r7, #60]	@ 0x3c
10000ef8:	609a      	str	r2, [r3, #8]
10000efa:	6a3b      	ldr	r3, [r7, #32]
10000efc:	79da      	ldrb	r2, [r3, #7]
10000efe:	6bfb      	ldr	r3, [r7, #60]	@ 0x3c
10000f00:	71da      	strb	r2, [r3, #7]
10000f02:	6a3b      	ldr	r3, [r7, #32]
10000f04:	2206      	movs	r2, #6
10000f06:	569a      	ldrsb	r2, [r3, r2]
10000f08:	6bfb      	ldr	r3, [r7, #60]	@ 0x3c
10000f0a:	719a      	strb	r2, [r3, #6]
10000f0c:	6a3b      	ldr	r3, [r7, #32]
10000f0e:	799b      	ldrb	r3, [r3, #6]
10000f10:	b25b      	sxtb	r3, r3
10000f12:	2b00      	cmp	r3, #0
10000f14:	db0e      	blt.n	10000f34 <irq_remove_handler+0x184>
10000f16:	6bfb      	ldr	r3, [r7, #60]	@ 0x3c
10000f18:	1d1c      	adds	r4, r3, #4
10000f1a:	6a3b      	ldr	r3, [r7, #32]
10000f1c:	3304      	adds	r3, #4
10000f1e:	0018      	movs	r0, r3
10000f20:	f7ff feee 	bl	10000d00 <resolve_branch>
10000f24:	0003      	movs	r3, r0
10000f26:	0019      	movs	r1, r3
10000f28:	0020      	movs	r0, r4
10000f2a:	f7ff fe75 	bl	10000c18 <make_branch>
10000f2e:	0003      	movs	r3, r0
10000f30:	001a      	movs	r2, r3
10000f32:	e000      	b.n	10000f36 <irq_remove_handler+0x186>
10000f34:	4a2d      	ldr	r2, [pc, #180]	@ (10000fec <irq_remove_handler+0x23c>)
10000f36:	6bfb      	ldr	r3, [r7, #60]	@ 0x3c
10000f38:	809a      	strh	r2, [r3, #4]
10000f3a:	4b2d      	ldr	r3, [pc, #180]	@ (10000ff0 <irq_remove_handler+0x240>)
10000f3c:	2200      	movs	r2, #0
10000f3e:	569a      	ldrsb	r2, [r3, r2]
10000f40:	6a3b      	ldr	r3, [r7, #32]
10000f42:	719a      	strb	r2, [r3, #6]
10000f44:	4b2a      	ldr	r3, [pc, #168]	@ (10000ff0 <irq_remove_handler+0x240>)
10000f46:	2227      	movs	r2, #39	@ 0x27
10000f48:	18ba      	adds	r2, r7, r2
10000f4a:	7812      	ldrb	r2, [r2, #0]
10000f4c:	701a      	strb	r2, [r3, #0]
10000f4e:	e02b      	b.n	10000fa8 <irq_remove_handler+0x1f8>
10000f50:	6afb      	ldr	r3, [r7, #44]	@ 0x2c
10000f52:	2b00      	cmp	r3, #0
10000f54:	d119      	bne.n	10000f8a <irq_remove_handler+0x1da>
10000f56:	6c3b      	ldr	r3, [r7, #64]	@ 0x40
10000f58:	2b00      	cmp	r3, #0
10000f5a:	d006      	beq.n	10000f6a <irq_remove_handler+0x1ba>
10000f5c:	6c3b      	ldr	r3, [r7, #64]	@ 0x40
10000f5e:	22ff      	movs	r2, #255	@ 0xff
10000f60:	719a      	strb	r2, [r3, #6]
10000f62:	6c3b      	ldr	r3, [r7, #64]	@ 0x40
10000f64:	4a23      	ldr	r2, [pc, #140]	@ (10000ff4 <irq_remove_handler+0x244>)
10000f66:	809a      	strh	r2, [r3, #4]
10000f68:	e001      	b.n	10000f6e <irq_remove_handler+0x1be>
10000f6a:	4b1b      	ldr	r3, [pc, #108]	@ (10000fd8 <irq_remove_handler+0x228>)
10000f6c:	647b      	str	r3, [r7, #68]	@ 0x44
10000f6e:	4b20      	ldr	r3, [pc, #128]	@ (10000ff0 <irq_remove_handler+0x240>)
10000f70:	2200      	movs	r2, #0
10000f72:	569a      	ldrsb	r2, [r3, r2]
10000f74:	6bfb      	ldr	r3, [r7, #60]	@ 0x3c
10000f76:	719a      	strb	r2, [r3, #6]
10000f78:	6bfb      	ldr	r3, [r7, #60]	@ 0x3c
10000f7a:	0018      	movs	r0, r3
10000f7c:	f7ff ff06 	bl	10000d8c <get_slot_index>
10000f80:	0003      	movs	r3, r0
10000f82:	001a      	movs	r2, r3
10000f84:	4b1a      	ldr	r3, [pc, #104]	@ (10000ff0 <irq_remove_handler+0x240>)
10000f86:	701a      	strb	r2, [r3, #0]
10000f88:	e00e      	b.n	10000fa8 <irq_remove_handler+0x1f8>
10000f8a:	6bfb      	ldr	r3, [r7, #60]	@ 0x3c
10000f8c:	3304      	adds	r3, #4
10000f8e:	4a1a      	ldr	r2, [pc, #104]	@ (10000ff8 <irq_remove_handler+0x248>)
10000f90:	0011      	movs	r1, r2
10000f92:	0018      	movs	r0, r3
10000f94:	f7ff fe7a 	bl	10000c8c <insert_branch_and_link>
10000f98:	e006      	b.n	10000fa8 <irq_remove_handler+0x1f8>
10000f9a:	4b18      	ldr	r3, [pc, #96]	@ (10000ffc <irq_remove_handler+0x24c>)
10000f9c:	4a10      	ldr	r2, [pc, #64]	@ (10000fe0 <irq_remove_handler+0x230>)
10000f9e:	216a      	movs	r1, #106	@ 0x6a
10000fa0:	31ff      	adds	r1, #255	@ 0xff
10000fa2:	4810      	ldr	r0, [pc, #64]	@ (10000fe4 <irq_remove_handler+0x234>)
10000fa4:	f002 fee8 	bl	10003d78 <__assert_func>
10000fa8:	2333      	movs	r3, #51	@ 0x33
10000faa:	18fb      	adds	r3, r7, r3
10000fac:	781a      	ldrb	r2, [r3, #0]
10000fae:	687b      	ldr	r3, [r7, #4]
10000fb0:	0011      	movs	r1, r2
10000fb2:	0018      	movs	r0, r3
10000fb4:	f7ff fd68 	bl	10000a88 <irq_set_enabled>
10000fb8:	e001      	b.n	10000fbe <irq_remove_handler+0x20e>
10000fba:	4b07      	ldr	r3, [pc, #28]	@ (10000fd8 <irq_remove_handler+0x228>)
10000fbc:	647b      	str	r3, [r7, #68]	@ 0x44
10000fbe:	6b7a      	ldr	r2, [r7, #52]	@ 0x34
10000fc0:	6c79      	ldr	r1, [r7, #68]	@ 0x44
10000fc2:	687b      	ldr	r3, [r7, #4]
10000fc4:	0018      	movs	r0, r3
10000fc6:	f7ff fd2b 	bl	10000a20 <set_raw_irq_handler_and_unlock>
10000fca:	46c0      	nop			@ (mov r8, r8)
10000fcc:	46bd      	mov	sp, r7
10000fce:	b013      	add	sp, #76	@ 0x4c
10000fd0:	bd90      	pop	{r4, r7, pc}
10000fd2:	46c0      	nop			@ (mov r8, r8)
10000fd4:	34000040 	.word	0x34000040
10000fd8:	100001cd 	.word	0x100001cd
10000fdc:	10009540 	.word	0x10009540
10000fe0:	10009640 	.word	0x10009640
10000fe4:	100093e4 	.word	0x100093e4
10000fe8:	20000504 	.word	0x20000504
10000fec:	0000bd01 	.word	0x0000bd01
10000ff0:	20000ae5 	.word	0x20000ae5
10000ff4:	ffffbd01 	.word	0xffffbd01
10000ff8:	2000053e 	.word	0x2000053e
10000ffc:	10009574 	.word	0x10009574

10001000 <irq_add_tail_to_free_list>:
10001000:	b590      	push	{r4, r7, lr}
10001002:	b095      	sub	sp, #84	@ 0x54
10001004:	af00      	add	r7, sp, #0
10001006:	6078      	str	r0, [r7, #4]
10001008:	687b      	ldr	r3, [r7, #4]
1000100a:	0018      	movs	r0, r3
1000100c:	f7ff fcf2 	bl	100009f4 <add_thumb_bit>
10001010:	0003      	movs	r3, r0
10001012:	647b      	str	r3, [r7, #68]	@ 0x44
10001014:	6c7b      	ldr	r3, [r7, #68]	@ 0x44
10001016:	0018      	movs	r0, r3
10001018:	f7ff fd86 	bl	10000b28 <is_shared_irq_raw_handler>
1000101c:	1e03      	subs	r3, r0, #0
1000101e:	d106      	bne.n	1000102e <irq_add_tail_to_free_list+0x2e>
10001020:	4b5b      	ldr	r3, [pc, #364]	@ (10001190 <irq_add_tail_to_free_list+0x190>)
10001022:	4a5c      	ldr	r2, [pc, #368]	@ (10001194 <irq_add_tail_to_free_list+0x194>)
10001024:	21c7      	movs	r1, #199	@ 0xc7
10001026:	0049      	lsls	r1, r1, #1
10001028:	485b      	ldr	r0, [pc, #364]	@ (10001198 <irq_add_tail_to_free_list+0x198>)
1000102a:	f002 fea5 	bl	10003d78 <__assert_func>
1000102e:	f3ef 8305 	mrs	r3, IPSR
10001032:	633b      	str	r3, [r7, #48]	@ 0x30
10001034:	6b3b      	ldr	r3, [r7, #48]	@ 0x30
10001036:	643b      	str	r3, [r7, #64]	@ 0x40
10001038:	6c3b      	ldr	r3, [r7, #64]	@ 0x40
1000103a:	2b00      	cmp	r3, #0
1000103c:	d106      	bne.n	1000104c <irq_add_tail_to_free_list+0x4c>
1000103e:	4b57      	ldr	r3, [pc, #348]	@ (1000119c <irq_add_tail_to_free_list+0x19c>)
10001040:	4a54      	ldr	r2, [pc, #336]	@ (10001194 <irq_add_tail_to_free_list+0x194>)
10001042:	2192      	movs	r1, #146	@ 0x92
10001044:	31ff      	adds	r1, #255	@ 0xff
10001046:	4854      	ldr	r0, [pc, #336]	@ (10001198 <irq_add_tail_to_free_list+0x198>)
10001048:	f002 fe96 	bl	10003d78 <__assert_func>
1000104c:	2309      	movs	r3, #9
1000104e:	61fb      	str	r3, [r7, #28]
10001050:	69fb      	ldr	r3, [r7, #28]
10001052:	4a53      	ldr	r2, [pc, #332]	@ (100011a0 <irq_add_tail_to_free_list+0x1a0>)
10001054:	4694      	mov	ip, r2
10001056:	4463      	add	r3, ip
10001058:	009b      	lsls	r3, r3, #2
1000105a:	63fb      	str	r3, [r7, #60]	@ 0x3c
1000105c:	6bfb      	ldr	r3, [r7, #60]	@ 0x3c
1000105e:	62fb      	str	r3, [r7, #44]	@ 0x2c
10001060:	f3ef 8310 	mrs	r3, PRIMASK
10001064:	b672      	cpsid	i
10001066:	62bb      	str	r3, [r7, #40]	@ 0x28
10001068:	6abb      	ldr	r3, [r7, #40]	@ 0x28
1000106a:	627b      	str	r3, [r7, #36]	@ 0x24
1000106c:	6afb      	ldr	r3, [r7, #44]	@ 0x2c
1000106e:	623b      	str	r3, [r7, #32]
10001070:	46c0      	nop			@ (mov r8, r8)
10001072:	6a3b      	ldr	r3, [r7, #32]
10001074:	681b      	ldr	r3, [r3, #0]
10001076:	425a      	negs	r2, r3
10001078:	4153      	adcs	r3, r2
1000107a:	b2db      	uxtb	r3, r3
1000107c:	2b00      	cmp	r3, #0
1000107e:	d1f8      	bne.n	10001072 <irq_add_tail_to_free_list+0x72>
10001080:	f3bf 8f5f 	dmb	sy
10001084:	46c0      	nop			@ (mov r8, r8)
10001086:	46c0      	nop			@ (mov r8, r8)
10001088:	46c0      	nop			@ (mov r8, r8)
1000108a:	6a7b      	ldr	r3, [r7, #36]	@ 0x24
1000108c:	63bb      	str	r3, [r7, #56]	@ 0x38
1000108e:	2337      	movs	r3, #55	@ 0x37
10001090:	18fc      	adds	r4, r7, r3
10001092:	687b      	ldr	r3, [r7, #4]
10001094:	0018      	movs	r0, r3
10001096:	f7ff fe79 	bl	10000d8c <get_slot_index>
1000109a:	0003      	movs	r3, r0
1000109c:	7023      	strb	r3, [r4, #0]
1000109e:	f7ff fc9f 	bl	100009e0 <get_vtable>
100010a2:	0002      	movs	r2, r0
100010a4:	6c3b      	ldr	r3, [r7, #64]	@ 0x40
100010a6:	009b      	lsls	r3, r3, #2
100010a8:	18d3      	adds	r3, r2, r3
100010aa:	681b      	ldr	r3, [r3, #0]
100010ac:	6c7a      	ldr	r2, [r7, #68]	@ 0x44
100010ae:	429a      	cmp	r2, r3
100010b0:	d108      	bne.n	100010c4 <irq_add_tail_to_free_list+0xc4>
100010b2:	f7ff fc95 	bl	100009e0 <get_vtable>
100010b6:	0002      	movs	r2, r0
100010b8:	6c3b      	ldr	r3, [r7, #64]	@ 0x40
100010ba:	009b      	lsls	r3, r3, #2
100010bc:	18d3      	adds	r3, r2, r3
100010be:	4a39      	ldr	r2, [pc, #228]	@ (100011a4 <irq_add_tail_to_free_list+0x1a4>)
100010c0:	601a      	str	r2, [r3, #0]
100010c2:	e041      	b.n	10001148 <irq_add_tail_to_free_list+0x148>
100010c4:	234f      	movs	r3, #79	@ 0x4f
100010c6:	18fb      	adds	r3, r7, r3
100010c8:	2200      	movs	r2, #0
100010ca:	701a      	strb	r2, [r3, #0]
100010cc:	2300      	movs	r3, #0
100010ce:	64bb      	str	r3, [r7, #72]	@ 0x48
100010d0:	e02b      	b.n	1000112a <irq_add_tail_to_free_list+0x12a>
100010d2:	4935      	ldr	r1, [pc, #212]	@ (100011a8 <irq_add_tail_to_free_list+0x1a8>)
100010d4:	6cba      	ldr	r2, [r7, #72]	@ 0x48
100010d6:	0013      	movs	r3, r2
100010d8:	005b      	lsls	r3, r3, #1
100010da:	189b      	adds	r3, r3, r2
100010dc:	009b      	lsls	r3, r3, #2
100010de:	18cb      	adds	r3, r1, r3
100010e0:	3306      	adds	r3, #6
100010e2:	781b      	ldrb	r3, [r3, #0]
100010e4:	b25b      	sxtb	r3, r3
100010e6:	2237      	movs	r2, #55	@ 0x37
100010e8:	18ba      	adds	r2, r7, r2
100010ea:	7812      	ldrb	r2, [r2, #0]
100010ec:	b252      	sxtb	r2, r2
100010ee:	429a      	cmp	r2, r3
100010f0:	d118      	bne.n	10001124 <irq_add_tail_to_free_list+0x124>
100010f2:	492d      	ldr	r1, [pc, #180]	@ (100011a8 <irq_add_tail_to_free_list+0x1a8>)
100010f4:	6cba      	ldr	r2, [r7, #72]	@ 0x48
100010f6:	0013      	movs	r3, r2
100010f8:	005b      	lsls	r3, r3, #1
100010fa:	189b      	adds	r3, r3, r2
100010fc:	009b      	lsls	r3, r3, #2
100010fe:	18cb      	adds	r3, r1, r3
10001100:	3306      	adds	r3, #6
10001102:	22ff      	movs	r2, #255	@ 0xff
10001104:	701a      	strb	r2, [r3, #0]
10001106:	4928      	ldr	r1, [pc, #160]	@ (100011a8 <irq_add_tail_to_free_list+0x1a8>)
10001108:	6cba      	ldr	r2, [r7, #72]	@ 0x48
1000110a:	0013      	movs	r3, r2
1000110c:	005b      	lsls	r3, r3, #1
1000110e:	189b      	adds	r3, r3, r2
10001110:	009b      	lsls	r3, r3, #2
10001112:	18cb      	adds	r3, r1, r3
10001114:	3304      	adds	r3, #4
10001116:	4a25      	ldr	r2, [pc, #148]	@ (100011ac <irq_add_tail_to_free_list+0x1ac>)
10001118:	801a      	strh	r2, [r3, #0]
1000111a:	234f      	movs	r3, #79	@ 0x4f
1000111c:	18fb      	adds	r3, r7, r3
1000111e:	2201      	movs	r2, #1
10001120:	701a      	strb	r2, [r3, #0]
10001122:	e005      	b.n	10001130 <irq_add_tail_to_free_list+0x130>
10001124:	6cbb      	ldr	r3, [r7, #72]	@ 0x48
10001126:	3301      	adds	r3, #1
10001128:	64bb      	str	r3, [r7, #72]	@ 0x48
1000112a:	6cbb      	ldr	r3, [r7, #72]	@ 0x48
1000112c:	2b03      	cmp	r3, #3
1000112e:	d9d0      	bls.n	100010d2 <irq_add_tail_to_free_list+0xd2>
10001130:	234f      	movs	r3, #79	@ 0x4f
10001132:	18fb      	adds	r3, r7, r3
10001134:	781b      	ldrb	r3, [r3, #0]
10001136:	2b00      	cmp	r3, #0
10001138:	d106      	bne.n	10001148 <irq_add_tail_to_free_list+0x148>
1000113a:	4b1d      	ldr	r3, [pc, #116]	@ (100011b0 <irq_add_tail_to_free_list+0x1b0>)
1000113c:	4a15      	ldr	r2, [pc, #84]	@ (10001194 <irq_add_tail_to_free_list+0x194>)
1000113e:	21d1      	movs	r1, #209	@ 0xd1
10001140:	0049      	lsls	r1, r1, #1
10001142:	4815      	ldr	r0, [pc, #84]	@ (10001198 <irq_add_tail_to_free_list+0x198>)
10001144:	f002 fe18 	bl	10003d78 <__assert_func>
10001148:	4b1a      	ldr	r3, [pc, #104]	@ (100011b4 <irq_add_tail_to_free_list+0x1b4>)
1000114a:	2200      	movs	r2, #0
1000114c:	569a      	ldrsb	r2, [r3, r2]
1000114e:	687b      	ldr	r3, [r7, #4]
10001150:	719a      	strb	r2, [r3, #6]
10001152:	4b18      	ldr	r3, [pc, #96]	@ (100011b4 <irq_add_tail_to_free_list+0x1b4>)
10001154:	2237      	movs	r2, #55	@ 0x37
10001156:	18ba      	adds	r2, r7, r2
10001158:	7812      	ldrb	r2, [r2, #0]
1000115a:	701a      	strb	r2, [r3, #0]
1000115c:	6bfb      	ldr	r3, [r7, #60]	@ 0x3c
1000115e:	61bb      	str	r3, [r7, #24]
10001160:	6bbb      	ldr	r3, [r7, #56]	@ 0x38
10001162:	617b      	str	r3, [r7, #20]
10001164:	69bb      	ldr	r3, [r7, #24]
10001166:	613b      	str	r3, [r7, #16]
10001168:	f3bf 8f5f 	dmb	sy
1000116c:	46c0      	nop			@ (mov r8, r8)
1000116e:	46c0      	nop			@ (mov r8, r8)
10001170:	693b      	ldr	r3, [r7, #16]
10001172:	2200      	movs	r2, #0
10001174:	601a      	str	r2, [r3, #0]
10001176:	46c0      	nop			@ (mov r8, r8)
10001178:	697b      	ldr	r3, [r7, #20]
1000117a:	60fb      	str	r3, [r7, #12]
1000117c:	68fb      	ldr	r3, [r7, #12]
1000117e:	f383 8810 	msr	PRIMASK, r3
10001182:	46c0      	nop			@ (mov r8, r8)
10001184:	46c0      	nop			@ (mov r8, r8)
10001186:	46c0      	nop			@ (mov r8, r8)
10001188:	46bd      	mov	sp, r7
1000118a:	b015      	add	sp, #84	@ 0x54
1000118c:	bd90      	pop	{r4, r7, pc}
1000118e:	46c0      	nop			@ (mov r8, r8)
10001190:	1000957c 	.word	0x1000957c
10001194:	10009654 	.word	0x10009654
10001198:	100093e4 	.word	0x100093e4
1000119c:	100095a4 	.word	0x100095a4
100011a0:	34000040 	.word	0x34000040
100011a4:	100001cd 	.word	0x100001cd
100011a8:	20000504 	.word	0x20000504
100011ac:	ffffbd01 	.word	0xffffbd01
100011b0:	100095b0 	.word	0x100095b0
100011b4:	20000ae5 	.word	0x20000ae5

100011b8 <irq_init_priorities>:
100011b8:	b580      	push	{r7, lr}
100011ba:	b084      	sub	sp, #16
100011bc:	af00      	add	r7, sp, #0
100011be:	4b0b      	ldr	r3, [pc, #44]	@ (100011ec <irq_init_priorities+0x34>)
100011c0:	607b      	str	r3, [r7, #4]
100011c2:	4b0b      	ldr	r3, [pc, #44]	@ (100011f0 <irq_init_priorities+0x38>)
100011c4:	60fb      	str	r3, [r7, #12]
100011c6:	2300      	movs	r3, #0
100011c8:	60bb      	str	r3, [r7, #8]
100011ca:	e007      	b.n	100011dc <irq_init_priorities+0x24>
100011cc:	68fb      	ldr	r3, [r7, #12]
100011ce:	1d1a      	adds	r2, r3, #4
100011d0:	60fa      	str	r2, [r7, #12]
100011d2:	687a      	ldr	r2, [r7, #4]
100011d4:	601a      	str	r2, [r3, #0]
100011d6:	68bb      	ldr	r3, [r7, #8]
100011d8:	3301      	adds	r3, #1
100011da:	60bb      	str	r3, [r7, #8]
100011dc:	68bb      	ldr	r3, [r7, #8]
100011de:	2b07      	cmp	r3, #7
100011e0:	d9f4      	bls.n	100011cc <irq_init_priorities+0x14>
100011e2:	46c0      	nop			@ (mov r8, r8)
100011e4:	46c0      	nop			@ (mov r8, r8)
100011e6:	46bd      	mov	sp, r7
100011e8:	b004      	add	sp, #16
100011ea:	bd80      	pop	{r7, pc}
100011ec:	80808080 	.word	0x80808080
100011f0:	e000e400 	.word	0xe000e400

100011f4 <lock_init>:
100011f4:	b580      	push	{r7, lr}
100011f6:	b084      	sub	sp, #16
100011f8:	af00      	add	r7, sp, #0
100011fa:	6078      	str	r0, [r7, #4]
100011fc:	6039      	str	r1, [r7, #0]
100011fe:	683b      	ldr	r3, [r7, #0]
10001200:	60fb      	str	r3, [r7, #12]
10001202:	68fb      	ldr	r3, [r7, #12]
10001204:	4a05      	ldr	r2, [pc, #20]	@ (1000121c <lock_init+0x28>)
10001206:	4694      	mov	ip, r2
10001208:	4463      	add	r3, ip
1000120a:	009b      	lsls	r3, r3, #2
1000120c:	001a      	movs	r2, r3
1000120e:	687b      	ldr	r3, [r7, #4]
10001210:	601a      	str	r2, [r3, #0]
10001212:	46c0      	nop			@ (mov r8, r8)
10001214:	46bd      	mov	sp, r7
10001216:	b004      	add	sp, #16
10001218:	bd80      	pop	{r7, pc}
1000121a:	46c0      	nop			@ (mov r8, r8)
1000121c:	34000040 	.word	0x34000040

10001220 <mutex_init>:
10001220:	b590      	push	{r4, r7, lr}
10001222:	b083      	sub	sp, #12
10001224:	af00      	add	r7, sp, #0
10001226:	6078      	str	r0, [r7, #4]
10001228:	687c      	ldr	r4, [r7, #4]
1000122a:	f7ff fbb9 	bl	100009a0 <next_striped_spin_lock_num>
1000122e:	0003      	movs	r3, r0
10001230:	0019      	movs	r1, r3
10001232:	0020      	movs	r0, r4
10001234:	f7ff ffde 	bl	100011f4 <lock_init>
10001238:	687b      	ldr	r3, [r7, #4]
1000123a:	22ff      	movs	r2, #255	@ 0xff
1000123c:	711a      	strb	r2, [r3, #4]
1000123e:	f3bf 8f5f 	dmb	sy
10001242:	46c0      	nop			@ (mov r8, r8)
10001244:	46c0      	nop			@ (mov r8, r8)
10001246:	46c0      	nop			@ (mov r8, r8)
10001248:	46bd      	mov	sp, r7
1000124a:	b003      	add	sp, #12
1000124c:	bd90      	pop	{r4, r7, pc}

1000124e <recursive_mutex_init>:
1000124e:	b590      	push	{r4, r7, lr}
10001250:	b083      	sub	sp, #12
10001252:	af00      	add	r7, sp, #0
10001254:	6078      	str	r0, [r7, #4]
10001256:	687c      	ldr	r4, [r7, #4]
10001258:	f7ff fba2 	bl	100009a0 <next_striped_spin_lock_num>
1000125c:	0003      	movs	r3, r0
1000125e:	0019      	movs	r1, r3
10001260:	0020      	movs	r0, r4
10001262:	f7ff ffc7 	bl	100011f4 <lock_init>
10001266:	687b      	ldr	r3, [r7, #4]
10001268:	22ff      	movs	r2, #255	@ 0xff
1000126a:	711a      	strb	r2, [r3, #4]
1000126c:	687b      	ldr	r3, [r7, #4]
1000126e:	2200      	movs	r2, #0
10001270:	715a      	strb	r2, [r3, #5]
10001272:	f3bf 8f5f 	dmb	sy
10001276:	46c0      	nop			@ (mov r8, r8)
10001278:	46c0      	nop			@ (mov r8, r8)
1000127a:	46c0      	nop			@ (mov r8, r8)
1000127c:	46bd      	mov	sp, r7
1000127e:	b003      	add	sp, #12
10001280:	bd90      	pop	{r4, r7, pc}

10001282 <to_us_since_boot>:
10001282:	b580      	push	{r7, lr}
10001284:	b082      	sub	sp, #8
10001286:	af00      	add	r7, sp, #0
10001288:	6038      	str	r0, [r7, #0]
1000128a:	6079      	str	r1, [r7, #4]
1000128c:	683a      	ldr	r2, [r7, #0]
1000128e:	687b      	ldr	r3, [r7, #4]
10001290:	0010      	movs	r0, r2
10001292:	0019      	movs	r1, r3
10001294:	46bd      	mov	sp, r7
10001296:	b002      	add	sp, #8
10001298:	bd80      	pop	{r7, pc}
	...

1000129c <update_us_since_boot>:
1000129c:	b580      	push	{r7, lr}
1000129e:	b084      	sub	sp, #16
100012a0:	af00      	add	r7, sp, #0
100012a2:	60f8      	str	r0, [r7, #12]
100012a4:	603a      	str	r2, [r7, #0]
100012a6:	607b      	str	r3, [r7, #4]
100012a8:	683a      	ldr	r2, [r7, #0]
100012aa:	687b      	ldr	r3, [r7, #4]
100012ac:	2b00      	cmp	r3, #0
100012ae:	da05      	bge.n	100012bc <update_us_since_boot+0x20>
100012b0:	4b07      	ldr	r3, [pc, #28]	@ (100012d0 <update_us_since_boot+0x34>)
100012b2:	4a08      	ldr	r2, [pc, #32]	@ (100012d4 <update_us_since_boot+0x38>)
100012b4:	4808      	ldr	r0, [pc, #32]	@ (100012d8 <update_us_since_boot+0x3c>)
100012b6:	213f      	movs	r1, #63	@ 0x3f
100012b8:	f002 fd5e 	bl	10003d78 <__assert_func>
100012bc:	68f9      	ldr	r1, [r7, #12]
100012be:	683a      	ldr	r2, [r7, #0]
100012c0:	687b      	ldr	r3, [r7, #4]
100012c2:	600a      	str	r2, [r1, #0]
100012c4:	604b      	str	r3, [r1, #4]
100012c6:	46c0      	nop			@ (mov r8, r8)
100012c8:	46bd      	mov	sp, r7
100012ca:	b004      	add	sp, #16
100012cc:	bd80      	pop	{r7, pc}
100012ce:	46c0      	nop			@ (mov r8, r8)
100012d0:	10009784 	.word	0x10009784
100012d4:	10009b18 	.word	0x10009b18
100012d8:	100097a0 	.word	0x100097a0

100012dc <time_reached>:
100012dc:	b5b0      	push	{r4, r5, r7, lr}
100012de:	b086      	sub	sp, #24
100012e0:	af00      	add	r7, sp, #0
100012e2:	6038      	str	r0, [r7, #0]
100012e4:	6079      	str	r1, [r7, #4]
100012e6:	683a      	ldr	r2, [r7, #0]
100012e8:	687b      	ldr	r3, [r7, #4]
100012ea:	0010      	movs	r0, r2
100012ec:	0019      	movs	r1, r3
100012ee:	f7ff ffc8 	bl	10001282 <to_us_since_boot>
100012f2:	0002      	movs	r2, r0
100012f4:	000b      	movs	r3, r1
100012f6:	613a      	str	r2, [r7, #16]
100012f8:	617b      	str	r3, [r7, #20]
100012fa:	697b      	ldr	r3, [r7, #20]
100012fc:	001c      	movs	r4, r3
100012fe:	2300      	movs	r3, #0
10001300:	001d      	movs	r5, r3
10001302:	0023      	movs	r3, r4
10001304:	60fb      	str	r3, [r7, #12]
10001306:	4b0d      	ldr	r3, [pc, #52]	@ (1000133c <time_reached+0x60>)
10001308:	6a5b      	ldr	r3, [r3, #36]	@ 0x24
1000130a:	60bb      	str	r3, [r7, #8]
1000130c:	68ba      	ldr	r2, [r7, #8]
1000130e:	68fb      	ldr	r3, [r7, #12]
10001310:	429a      	cmp	r2, r3
10001312:	d30a      	bcc.n	1000132a <time_reached+0x4e>
10001314:	4b09      	ldr	r3, [pc, #36]	@ (1000133c <time_reached+0x60>)
10001316:	6a9a      	ldr	r2, [r3, #40]	@ 0x28
10001318:	693b      	ldr	r3, [r7, #16]
1000131a:	429a      	cmp	r2, r3
1000131c:	d203      	bcs.n	10001326 <time_reached+0x4a>
1000131e:	68ba      	ldr	r2, [r7, #8]
10001320:	68fb      	ldr	r3, [r7, #12]
10001322:	429a      	cmp	r2, r3
10001324:	d001      	beq.n	1000132a <time_reached+0x4e>
10001326:	2301      	movs	r3, #1
10001328:	e000      	b.n	1000132c <time_reached+0x50>
1000132a:	2300      	movs	r3, #0
1000132c:	1c1a      	adds	r2, r3, #0
1000132e:	2301      	movs	r3, #1
10001330:	4013      	ands	r3, r2
10001332:	b2db      	uxtb	r3, r3
10001334:	0018      	movs	r0, r3
10001336:	46bd      	mov	sp, r7
10001338:	b006      	add	sp, #24
1000133a:	bdb0      	pop	{r4, r5, r7, pc}
1000133c:	40054000 	.word	0x40054000

10001340 <get_absolute_time>:
10001340:	b580      	push	{r7, lr}
10001342:	b084      	sub	sp, #16
10001344:	af00      	add	r7, sp, #0
10001346:	6078      	str	r0, [r7, #4]
10001348:	f001 f8d4 	bl	100024f4 <time_us_64>
1000134c:	0002      	movs	r2, r0
1000134e:	000b      	movs	r3, r1
10001350:	2108      	movs	r1, #8
10001352:	1879      	adds	r1, r7, r1
10001354:	0008      	movs	r0, r1
10001356:	f7ff ffa1 	bl	1000129c <update_us_since_boot>
1000135a:	6879      	ldr	r1, [r7, #4]
1000135c:	68ba      	ldr	r2, [r7, #8]
1000135e:	68fb      	ldr	r3, [r7, #12]
10001360:	600a      	str	r2, [r1, #0]
10001362:	604b      	str	r3, [r1, #4]
10001364:	6878      	ldr	r0, [r7, #4]
10001366:	46bd      	mov	sp, r7
10001368:	b004      	add	sp, #16
1000136a:	bd80      	pop	{r7, pc}

1000136c <delayed_by_us>:
1000136c:	b580      	push	{r7, lr}
1000136e:	b08a      	sub	sp, #40	@ 0x28
10001370:	af00      	add	r7, sp, #0
10001372:	60f8      	str	r0, [r7, #12]
10001374:	603a      	str	r2, [r7, #0]
10001376:	607b      	str	r3, [r7, #4]
10001378:	683a      	ldr	r2, [r7, #0]
1000137a:	687b      	ldr	r3, [r7, #4]
1000137c:	0010      	movs	r0, r2
1000137e:	0019      	movs	r1, r3
10001380:	f7ff ff7f 	bl	10001282 <to_us_since_boot>
10001384:	0002      	movs	r2, r0
10001386:	000b      	movs	r3, r1
10001388:	61ba      	str	r2, [r7, #24]
1000138a:	61fb      	str	r3, [r7, #28]
1000138c:	69b8      	ldr	r0, [r7, #24]
1000138e:	69f9      	ldr	r1, [r7, #28]
10001390:	6b3a      	ldr	r2, [r7, #48]	@ 0x30
10001392:	6b7b      	ldr	r3, [r7, #52]	@ 0x34
10001394:	1812      	adds	r2, r2, r0
10001396:	414b      	adcs	r3, r1
10001398:	623a      	str	r2, [r7, #32]
1000139a:	627b      	str	r3, [r7, #36]	@ 0x24
1000139c:	6a3a      	ldr	r2, [r7, #32]
1000139e:	6a7b      	ldr	r3, [r7, #36]	@ 0x24
100013a0:	2b00      	cmp	r3, #0
100013a2:	da04      	bge.n	100013ae <delayed_by_us+0x42>
100013a4:	2201      	movs	r2, #1
100013a6:	4252      	negs	r2, r2
100013a8:	4b09      	ldr	r3, [pc, #36]	@ (100013d0 <delayed_by_us+0x64>)
100013aa:	623a      	str	r2, [r7, #32]
100013ac:	627b      	str	r3, [r7, #36]	@ 0x24
100013ae:	6a3a      	ldr	r2, [r7, #32]
100013b0:	6a7b      	ldr	r3, [r7, #36]	@ 0x24
100013b2:	2110      	movs	r1, #16
100013b4:	1879      	adds	r1, r7, r1
100013b6:	0008      	movs	r0, r1
100013b8:	f7ff ff70 	bl	1000129c <update_us_since_boot>
100013bc:	68f9      	ldr	r1, [r7, #12]
100013be:	693a      	ldr	r2, [r7, #16]
100013c0:	697b      	ldr	r3, [r7, #20]
100013c2:	600a      	str	r2, [r1, #0]
100013c4:	604b      	str	r3, [r1, #4]
100013c6:	68f8      	ldr	r0, [r7, #12]
100013c8:	46bd      	mov	sp, r7
100013ca:	b00a      	add	sp, #40	@ 0x28
100013cc:	bd80      	pop	{r7, pc}
100013ce:	46c0      	nop			@ (mov r8, r8)
100013d0:	7fffffff 	.word	0x7fffffff

100013d4 <make_timeout_time_us>:
100013d4:	b590      	push	{r4, r7, lr}
100013d6:	b089      	sub	sp, #36	@ 0x24
100013d8:	af02      	add	r7, sp, #8
100013da:	60f8      	str	r0, [r7, #12]
100013dc:	603a      	str	r2, [r7, #0]
100013de:	607b      	str	r3, [r7, #4]
100013e0:	2310      	movs	r3, #16
100013e2:	18fb      	adds	r3, r7, r3
100013e4:	0018      	movs	r0, r3
100013e6:	f7ff ffab 	bl	10001340 <get_absolute_time>
100013ea:	68fc      	ldr	r4, [r7, #12]
100013ec:	6938      	ldr	r0, [r7, #16]
100013ee:	6979      	ldr	r1, [r7, #20]
100013f0:	683a      	ldr	r2, [r7, #0]
100013f2:	687b      	ldr	r3, [r7, #4]
100013f4:	9200      	str	r2, [sp, #0]
100013f6:	9301      	str	r3, [sp, #4]
100013f8:	0002      	movs	r2, r0
100013fa:	000b      	movs	r3, r1
100013fc:	0020      	movs	r0, r4
100013fe:	f7ff ffb5 	bl	1000136c <delayed_by_us>
10001402:	68f8      	ldr	r0, [r7, #12]
10001404:	46bd      	mov	sp, r7
10001406:	b007      	add	sp, #28
10001408:	bd90      	pop	{r4, r7, pc}

1000140a <absolute_time_diff_us>:
1000140a:	b5b0      	push	{r4, r5, r7, lr}
1000140c:	b084      	sub	sp, #16
1000140e:	af00      	add	r7, sp, #0
10001410:	60b8      	str	r0, [r7, #8]
10001412:	60f9      	str	r1, [r7, #12]
10001414:	603a      	str	r2, [r7, #0]
10001416:	607b      	str	r3, [r7, #4]
10001418:	683a      	ldr	r2, [r7, #0]
1000141a:	687b      	ldr	r3, [r7, #4]
1000141c:	0010      	movs	r0, r2
1000141e:	0019      	movs	r1, r3
10001420:	f7ff ff2f 	bl	10001282 <to_us_since_boot>
10001424:	0004      	movs	r4, r0
10001426:	000d      	movs	r5, r1
10001428:	68ba      	ldr	r2, [r7, #8]
1000142a:	68fb      	ldr	r3, [r7, #12]
1000142c:	0010      	movs	r0, r2
1000142e:	0019      	movs	r1, r3
10001430:	f7ff ff27 	bl	10001282 <to_us_since_boot>
10001434:	0002      	movs	r2, r0
10001436:	000b      	movs	r3, r1
10001438:	1aa4      	subs	r4, r4, r2
1000143a:	419d      	sbcs	r5, r3
1000143c:	0022      	movs	r2, r4
1000143e:	002b      	movs	r3, r5
10001440:	0010      	movs	r0, r2
10001442:	0019      	movs	r1, r3
10001444:	46bd      	mov	sp, r7
10001446:	b004      	add	sp, #16
10001448:	bdb0      	pop	{r4, r5, r7, pc}

1000144a <add_alarm_at>:
1000144a:	b580      	push	{r7, lr}
1000144c:	b088      	sub	sp, #32
1000144e:	af04      	add	r7, sp, #16
10001450:	60b8      	str	r0, [r7, #8]
10001452:	60f9      	str	r1, [r7, #12]
10001454:	607a      	str	r2, [r7, #4]
10001456:	603b      	str	r3, [r7, #0]
10001458:	f000 fab2 	bl	100019c0 <alarm_pool_get_default>
1000145c:	68ba      	ldr	r2, [r7, #8]
1000145e:	68fb      	ldr	r3, [r7, #12]
10001460:	2118      	movs	r1, #24
10001462:	1879      	adds	r1, r7, r1
10001464:	7809      	ldrb	r1, [r1, #0]
10001466:	9102      	str	r1, [sp, #8]
10001468:	6839      	ldr	r1, [r7, #0]
1000146a:	9101      	str	r1, [sp, #4]
1000146c:	6879      	ldr	r1, [r7, #4]
1000146e:	9100      	str	r1, [sp, #0]
10001470:	f000 fd90 	bl	10001f94 <alarm_pool_add_alarm_at>
10001474:	0003      	movs	r3, r0
10001476:	0018      	movs	r0, r3
10001478:	46bd      	mov	sp, r7
1000147a:	b004      	add	sp, #16
1000147c:	bd80      	pop	{r7, pc}

1000147e <cancel_alarm>:
1000147e:	b580      	push	{r7, lr}
10001480:	b082      	sub	sp, #8
10001482:	af00      	add	r7, sp, #0
10001484:	6078      	str	r0, [r7, #4]
10001486:	f000 fa9b 	bl	100019c0 <alarm_pool_get_default>
1000148a:	0002      	movs	r2, r0
1000148c:	687b      	ldr	r3, [r7, #4]
1000148e:	0019      	movs	r1, r3
10001490:	0010      	movs	r0, r2
10001492:	f000 fe49 	bl	10002128 <alarm_pool_cancel_alarm>
10001496:	0003      	movs	r3, r0
10001498:	0018      	movs	r0, r3
1000149a:	46bd      	mov	sp, r7
1000149c:	b002      	add	sp, #8
1000149e:	bd80      	pop	{r7, pc}

100014a0 <ph_get_node>:
100014a0:	b580      	push	{r7, lr}
100014a2:	b082      	sub	sp, #8
100014a4:	af00      	add	r7, sp, #0
100014a6:	6078      	str	r0, [r7, #4]
100014a8:	000a      	movs	r2, r1
100014aa:	1cfb      	adds	r3, r7, #3
100014ac:	701a      	strb	r2, [r3, #0]
100014ae:	1cfb      	adds	r3, r7, #3
100014b0:	781b      	ldrb	r3, [r3, #0]
100014b2:	2b00      	cmp	r3, #0
100014b4:	d005      	beq.n	100014c2 <ph_get_node+0x22>
100014b6:	687b      	ldr	r3, [r7, #4]
100014b8:	7b1b      	ldrb	r3, [r3, #12]
100014ba:	1cfa      	adds	r2, r7, #3
100014bc:	7812      	ldrb	r2, [r2, #0]
100014be:	429a      	cmp	r2, r3
100014c0:	d905      	bls.n	100014ce <ph_get_node+0x2e>
100014c2:	4b09      	ldr	r3, [pc, #36]	@ (100014e8 <ph_get_node+0x48>)
100014c4:	4a09      	ldr	r2, [pc, #36]	@ (100014ec <ph_get_node+0x4c>)
100014c6:	480a      	ldr	r0, [pc, #40]	@ (100014f0 <ph_get_node+0x50>)
100014c8:	2168      	movs	r1, #104	@ 0x68
100014ca:	f002 fc55 	bl	10003d78 <__assert_func>
100014ce:	687b      	ldr	r3, [r7, #4]
100014d0:	6819      	ldr	r1, [r3, #0]
100014d2:	1cfb      	adds	r3, r7, #3
100014d4:	781a      	ldrb	r2, [r3, #0]
100014d6:	0013      	movs	r3, r2
100014d8:	005b      	lsls	r3, r3, #1
100014da:	189b      	adds	r3, r3, r2
100014dc:	3b03      	subs	r3, #3
100014de:	18cb      	adds	r3, r1, r3
100014e0:	0018      	movs	r0, r3
100014e2:	46bd      	mov	sp, r7
100014e4:	b002      	add	sp, #8
100014e6:	bd80      	pop	{r7, pc}
100014e8:	100097e8 	.word	0x100097e8
100014ec:	10009aa4 	.word	0x10009aa4
100014f0:	10009804 	.word	0x10009804

100014f4 <ph_add_child_node>:
100014f4:	b580      	push	{r7, lr}
100014f6:	b084      	sub	sp, #16
100014f8:	af00      	add	r7, sp, #0
100014fa:	6078      	str	r0, [r7, #4]
100014fc:	0008      	movs	r0, r1
100014fe:	0011      	movs	r1, r2
10001500:	1cfb      	adds	r3, r7, #3
10001502:	1c02      	adds	r2, r0, #0
10001504:	701a      	strb	r2, [r3, #0]
10001506:	1cbb      	adds	r3, r7, #2
10001508:	1c0a      	adds	r2, r1, #0
1000150a:	701a      	strb	r2, [r3, #0]
1000150c:	1cfb      	adds	r3, r7, #3
1000150e:	781a      	ldrb	r2, [r3, #0]
10001510:	687b      	ldr	r3, [r7, #4]
10001512:	0011      	movs	r1, r2
10001514:	0018      	movs	r0, r3
10001516:	f7ff ffc3 	bl	100014a0 <ph_get_node>
1000151a:	0003      	movs	r3, r0
1000151c:	60fb      	str	r3, [r7, #12]
1000151e:	1cfb      	adds	r3, r7, #3
10001520:	781b      	ldrb	r3, [r3, #0]
10001522:	2b00      	cmp	r3, #0
10001524:	d105      	bne.n	10001532 <ph_add_child_node+0x3e>
10001526:	4b1f      	ldr	r3, [pc, #124]	@ (100015a4 <ph_add_child_node+0xb0>)
10001528:	4a1f      	ldr	r2, [pc, #124]	@ (100015a8 <ph_add_child_node+0xb4>)
1000152a:	4820      	ldr	r0, [pc, #128]	@ (100015ac <ph_add_child_node+0xb8>)
1000152c:	216f      	movs	r1, #111	@ 0x6f
1000152e:	f002 fc23 	bl	10003d78 <__assert_func>
10001532:	1cbb      	adds	r3, r7, #2
10001534:	781b      	ldrb	r3, [r3, #0]
10001536:	2b00      	cmp	r3, #0
10001538:	d105      	bne.n	10001546 <ph_add_child_node+0x52>
1000153a:	4b1d      	ldr	r3, [pc, #116]	@ (100015b0 <ph_add_child_node+0xbc>)
1000153c:	4a1a      	ldr	r2, [pc, #104]	@ (100015a8 <ph_add_child_node+0xb4>)
1000153e:	481b      	ldr	r0, [pc, #108]	@ (100015ac <ph_add_child_node+0xb8>)
10001540:	2170      	movs	r1, #112	@ 0x70
10001542:	f002 fc19 	bl	10003d78 <__assert_func>
10001546:	1cfa      	adds	r2, r7, #3
10001548:	1cbb      	adds	r3, r7, #2
1000154a:	7812      	ldrb	r2, [r2, #0]
1000154c:	781b      	ldrb	r3, [r3, #0]
1000154e:	429a      	cmp	r2, r3
10001550:	d105      	bne.n	1000155e <ph_add_child_node+0x6a>
10001552:	4b18      	ldr	r3, [pc, #96]	@ (100015b4 <ph_add_child_node+0xc0>)
10001554:	4a14      	ldr	r2, [pc, #80]	@ (100015a8 <ph_add_child_node+0xb4>)
10001556:	4815      	ldr	r0, [pc, #84]	@ (100015ac <ph_add_child_node+0xb8>)
10001558:	2171      	movs	r1, #113	@ 0x71
1000155a:	f002 fc0d 	bl	10003d78 <__assert_func>
1000155e:	1cbb      	adds	r3, r7, #2
10001560:	781a      	ldrb	r2, [r3, #0]
10001562:	687b      	ldr	r3, [r7, #4]
10001564:	0011      	movs	r1, r2
10001566:	0018      	movs	r0, r3
10001568:	f7ff ff9a 	bl	100014a0 <ph_get_node>
1000156c:	0003      	movs	r3, r0
1000156e:	60bb      	str	r3, [r7, #8]
10001570:	68bb      	ldr	r3, [r7, #8]
10001572:	1cfa      	adds	r2, r7, #3
10001574:	7812      	ldrb	r2, [r2, #0]
10001576:	709a      	strb	r2, [r3, #2]
10001578:	68fb      	ldr	r3, [r7, #12]
1000157a:	781b      	ldrb	r3, [r3, #0]
1000157c:	2b00      	cmp	r3, #0
1000157e:	d104      	bne.n	1000158a <ph_add_child_node+0x96>
10001580:	68fb      	ldr	r3, [r7, #12]
10001582:	1cba      	adds	r2, r7, #2
10001584:	7812      	ldrb	r2, [r2, #0]
10001586:	701a      	strb	r2, [r3, #0]
10001588:	e007      	b.n	1000159a <ph_add_child_node+0xa6>
1000158a:	68fb      	ldr	r3, [r7, #12]
1000158c:	781a      	ldrb	r2, [r3, #0]
1000158e:	68bb      	ldr	r3, [r7, #8]
10001590:	705a      	strb	r2, [r3, #1]
10001592:	68fb      	ldr	r3, [r7, #12]
10001594:	1cba      	adds	r2, r7, #2
10001596:	7812      	ldrb	r2, [r2, #0]
10001598:	701a      	strb	r2, [r3, #0]
1000159a:	46c0      	nop			@ (mov r8, r8)
1000159c:	46bd      	mov	sp, r7
1000159e:	b004      	add	sp, #16
100015a0:	bd80      	pop	{r7, pc}
100015a2:	46c0      	nop			@ (mov r8, r8)
100015a4:	10009850 	.word	0x10009850
100015a8:	10009a90 	.word	0x10009a90
100015ac:	10009804 	.word	0x10009804
100015b0:	1000985c 	.word	0x1000985c
100015b4:	10009868 	.word	0x10009868

100015b8 <ph_merge_nodes>:
100015b8:	b590      	push	{r4, r7, lr}
100015ba:	b083      	sub	sp, #12
100015bc:	af00      	add	r7, sp, #0
100015be:	6078      	str	r0, [r7, #4]
100015c0:	0008      	movs	r0, r1
100015c2:	0011      	movs	r1, r2
100015c4:	1cfb      	adds	r3, r7, #3
100015c6:	1c02      	adds	r2, r0, #0
100015c8:	701a      	strb	r2, [r3, #0]
100015ca:	1cbb      	adds	r3, r7, #2
100015cc:	1c0a      	adds	r2, r1, #0
100015ce:	701a      	strb	r2, [r3, #0]
100015d0:	1cfb      	adds	r3, r7, #3
100015d2:	781b      	ldrb	r3, [r3, #0]
100015d4:	2b00      	cmp	r3, #0
100015d6:	d102      	bne.n	100015de <ph_merge_nodes+0x26>
100015d8:	1cbb      	adds	r3, r7, #2
100015da:	781b      	ldrb	r3, [r3, #0]
100015dc:	e027      	b.n	1000162e <ph_merge_nodes+0x76>
100015de:	1cbb      	adds	r3, r7, #2
100015e0:	781b      	ldrb	r3, [r3, #0]
100015e2:	2b00      	cmp	r3, #0
100015e4:	d102      	bne.n	100015ec <ph_merge_nodes+0x34>
100015e6:	1cfb      	adds	r3, r7, #3
100015e8:	781b      	ldrb	r3, [r3, #0]
100015ea:	e020      	b.n	1000162e <ph_merge_nodes+0x76>
100015ec:	687b      	ldr	r3, [r7, #4]
100015ee:	685c      	ldr	r4, [r3, #4]
100015f0:	687b      	ldr	r3, [r7, #4]
100015f2:	6898      	ldr	r0, [r3, #8]
100015f4:	1cbb      	adds	r3, r7, #2
100015f6:	781a      	ldrb	r2, [r3, #0]
100015f8:	1cfb      	adds	r3, r7, #3
100015fa:	781b      	ldrb	r3, [r3, #0]
100015fc:	0019      	movs	r1, r3
100015fe:	47a0      	blx	r4
10001600:	1e03      	subs	r3, r0, #0
10001602:	d00a      	beq.n	1000161a <ph_merge_nodes+0x62>
10001604:	1cbb      	adds	r3, r7, #2
10001606:	781a      	ldrb	r2, [r3, #0]
10001608:	1cfb      	adds	r3, r7, #3
1000160a:	7819      	ldrb	r1, [r3, #0]
1000160c:	687b      	ldr	r3, [r7, #4]
1000160e:	0018      	movs	r0, r3
10001610:	f7ff ff70 	bl	100014f4 <ph_add_child_node>
10001614:	1cfb      	adds	r3, r7, #3
10001616:	781b      	ldrb	r3, [r3, #0]
10001618:	e009      	b.n	1000162e <ph_merge_nodes+0x76>
1000161a:	1cfb      	adds	r3, r7, #3
1000161c:	781a      	ldrb	r2, [r3, #0]
1000161e:	1cbb      	adds	r3, r7, #2
10001620:	7819      	ldrb	r1, [r3, #0]
10001622:	687b      	ldr	r3, [r7, #4]
10001624:	0018      	movs	r0, r3
10001626:	f7ff ff65 	bl	100014f4 <ph_add_child_node>
1000162a:	1cbb      	adds	r3, r7, #2
1000162c:	781b      	ldrb	r3, [r3, #0]
1000162e:	0018      	movs	r0, r3
10001630:	46bd      	mov	sp, r7
10001632:	b003      	add	sp, #12
10001634:	bd90      	pop	{r4, r7, pc}

10001636 <ph_new_node>:
10001636:	b580      	push	{r7, lr}
10001638:	b084      	sub	sp, #16
1000163a:	af00      	add	r7, sp, #0
1000163c:	6078      	str	r0, [r7, #4]
1000163e:	687b      	ldr	r3, [r7, #4]
10001640:	7b9b      	ldrb	r3, [r3, #14]
10001642:	2b00      	cmp	r3, #0
10001644:	d101      	bne.n	1000164a <ph_new_node+0x14>
10001646:	2300      	movs	r3, #0
10001648:	e026      	b.n	10001698 <ph_new_node+0x62>
1000164a:	210f      	movs	r1, #15
1000164c:	187b      	adds	r3, r7, r1
1000164e:	687a      	ldr	r2, [r7, #4]
10001650:	7b92      	ldrb	r2, [r2, #14]
10001652:	701a      	strb	r2, [r3, #0]
10001654:	187b      	adds	r3, r7, r1
10001656:	781a      	ldrb	r2, [r3, #0]
10001658:	687b      	ldr	r3, [r7, #4]
1000165a:	0011      	movs	r1, r2
1000165c:	0018      	movs	r0, r3
1000165e:	f7ff ff1f 	bl	100014a0 <ph_get_node>
10001662:	0003      	movs	r3, r0
10001664:	60bb      	str	r3, [r7, #8]
10001666:	68bb      	ldr	r3, [r7, #8]
10001668:	785a      	ldrb	r2, [r3, #1]
1000166a:	687b      	ldr	r3, [r7, #4]
1000166c:	739a      	strb	r2, [r3, #14]
1000166e:	687b      	ldr	r3, [r7, #4]
10001670:	7b9b      	ldrb	r3, [r3, #14]
10001672:	2b00      	cmp	r3, #0
10001674:	d102      	bne.n	1000167c <ph_new_node+0x46>
10001676:	687b      	ldr	r3, [r7, #4]
10001678:	2200      	movs	r2, #0
1000167a:	73da      	strb	r2, [r3, #15]
1000167c:	68bb      	ldr	r3, [r7, #8]
1000167e:	2200      	movs	r2, #0
10001680:	709a      	strb	r2, [r3, #2]
10001682:	68bb      	ldr	r3, [r7, #8]
10001684:	789a      	ldrb	r2, [r3, #2]
10001686:	68bb      	ldr	r3, [r7, #8]
10001688:	705a      	strb	r2, [r3, #1]
1000168a:	68bb      	ldr	r3, [r7, #8]
1000168c:	785a      	ldrb	r2, [r3, #1]
1000168e:	68bb      	ldr	r3, [r7, #8]
10001690:	701a      	strb	r2, [r3, #0]
10001692:	230f      	movs	r3, #15
10001694:	18fb      	adds	r3, r7, r3
10001696:	781b      	ldrb	r3, [r3, #0]
10001698:	0018      	movs	r0, r3
1000169a:	46bd      	mov	sp, r7
1000169c:	b004      	add	sp, #16
1000169e:	bd80      	pop	{r7, pc}

100016a0 <ph_insert_node>:
100016a0:	b580      	push	{r7, lr}
100016a2:	b084      	sub	sp, #16
100016a4:	af00      	add	r7, sp, #0
100016a6:	6078      	str	r0, [r7, #4]
100016a8:	000a      	movs	r2, r1
100016aa:	1cfb      	adds	r3, r7, #3
100016ac:	701a      	strb	r2, [r3, #0]
100016ae:	1cfb      	adds	r3, r7, #3
100016b0:	781b      	ldrb	r3, [r3, #0]
100016b2:	2b00      	cmp	r3, #0
100016b4:	d105      	bne.n	100016c2 <ph_insert_node+0x22>
100016b6:	4b16      	ldr	r3, [pc, #88]	@ (10001710 <ph_insert_node+0x70>)
100016b8:	4a16      	ldr	r2, [pc, #88]	@ (10001714 <ph_insert_node+0x74>)
100016ba:	4817      	ldr	r0, [pc, #92]	@ (10001718 <ph_insert_node+0x78>)
100016bc:	21a5      	movs	r1, #165	@ 0xa5
100016be:	f002 fb5b 	bl	10003d78 <__assert_func>
100016c2:	1cfb      	adds	r3, r7, #3
100016c4:	781a      	ldrb	r2, [r3, #0]
100016c6:	687b      	ldr	r3, [r7, #4]
100016c8:	0011      	movs	r1, r2
100016ca:	0018      	movs	r0, r3
100016cc:	f7ff fee8 	bl	100014a0 <ph_get_node>
100016d0:	0003      	movs	r3, r0
100016d2:	60fb      	str	r3, [r7, #12]
100016d4:	68fb      	ldr	r3, [r7, #12]
100016d6:	2200      	movs	r2, #0
100016d8:	709a      	strb	r2, [r3, #2]
100016da:	68fb      	ldr	r3, [r7, #12]
100016dc:	789a      	ldrb	r2, [r3, #2]
100016de:	68fb      	ldr	r3, [r7, #12]
100016e0:	705a      	strb	r2, [r3, #1]
100016e2:	68fb      	ldr	r3, [r7, #12]
100016e4:	785a      	ldrb	r2, [r3, #1]
100016e6:	68fb      	ldr	r3, [r7, #12]
100016e8:	701a      	strb	r2, [r3, #0]
100016ea:	687b      	ldr	r3, [r7, #4]
100016ec:	7b59      	ldrb	r1, [r3, #13]
100016ee:	1cfb      	adds	r3, r7, #3
100016f0:	781a      	ldrb	r2, [r3, #0]
100016f2:	687b      	ldr	r3, [r7, #4]
100016f4:	0018      	movs	r0, r3
100016f6:	f7ff ff5f 	bl	100015b8 <ph_merge_nodes>
100016fa:	0003      	movs	r3, r0
100016fc:	001a      	movs	r2, r3
100016fe:	687b      	ldr	r3, [r7, #4]
10001700:	735a      	strb	r2, [r3, #13]
10001702:	687b      	ldr	r3, [r7, #4]
10001704:	7b5b      	ldrb	r3, [r3, #13]
10001706:	0018      	movs	r0, r3
10001708:	46bd      	mov	sp, r7
1000170a:	b004      	add	sp, #16
1000170c:	bd80      	pop	{r7, pc}
1000170e:	46c0      	nop			@ (mov r8, r8)
10001710:	10009880 	.word	0x10009880
10001714:	10009aec 	.word	0x10009aec
10001718:	10009804 	.word	0x10009804

1000171c <ph_peek_head>:
1000171c:	b580      	push	{r7, lr}
1000171e:	b082      	sub	sp, #8
10001720:	af00      	add	r7, sp, #0
10001722:	6078      	str	r0, [r7, #4]
10001724:	687b      	ldr	r3, [r7, #4]
10001726:	7b5b      	ldrb	r3, [r3, #13]
10001728:	0018      	movs	r0, r3
1000172a:	46bd      	mov	sp, r7
1000172c:	b002      	add	sp, #8
1000172e:	bd80      	pop	{r7, pc}

10001730 <ph_contains_node>:
10001730:	b580      	push	{r7, lr}
10001732:	b082      	sub	sp, #8
10001734:	af00      	add	r7, sp, #0
10001736:	6078      	str	r0, [r7, #4]
10001738:	000a      	movs	r2, r1
1000173a:	1cfb      	adds	r3, r7, #3
1000173c:	701a      	strb	r2, [r3, #0]
1000173e:	687b      	ldr	r3, [r7, #4]
10001740:	7b5b      	ldrb	r3, [r3, #13]
10001742:	1cfa      	adds	r2, r7, #3
10001744:	7812      	ldrb	r2, [r2, #0]
10001746:	429a      	cmp	r2, r3
10001748:	d00a      	beq.n	10001760 <ph_contains_node+0x30>
1000174a:	1cfb      	adds	r3, r7, #3
1000174c:	781a      	ldrb	r2, [r3, #0]
1000174e:	687b      	ldr	r3, [r7, #4]
10001750:	0011      	movs	r1, r2
10001752:	0018      	movs	r0, r3
10001754:	f7ff fea4 	bl	100014a0 <ph_get_node>
10001758:	0003      	movs	r3, r0
1000175a:	789b      	ldrb	r3, [r3, #2]
1000175c:	2b00      	cmp	r3, #0
1000175e:	d001      	beq.n	10001764 <ph_contains_node+0x34>
10001760:	2301      	movs	r3, #1
10001762:	e000      	b.n	10001766 <ph_contains_node+0x36>
10001764:	2300      	movs	r3, #0
10001766:	1c1a      	adds	r2, r3, #0
10001768:	2301      	movs	r3, #1
1000176a:	4013      	ands	r3, r2
1000176c:	b2db      	uxtb	r3, r3
1000176e:	0018      	movs	r0, r3
10001770:	46bd      	mov	sp, r7
10001772:	b002      	add	sp, #8
10001774:	bd80      	pop	{r7, pc}
	...

10001778 <ph_free_node>:
10001778:	b580      	push	{r7, lr}
1000177a:	b082      	sub	sp, #8
1000177c:	af00      	add	r7, sp, #0
1000177e:	6078      	str	r0, [r7, #4]
10001780:	000a      	movs	r2, r1
10001782:	1cfb      	adds	r3, r7, #3
10001784:	701a      	strb	r2, [r3, #0]
10001786:	1cfb      	adds	r3, r7, #3
10001788:	781b      	ldrb	r3, [r3, #0]
1000178a:	2b00      	cmp	r3, #0
1000178c:	d008      	beq.n	100017a0 <ph_free_node+0x28>
1000178e:	1cfb      	adds	r3, r7, #3
10001790:	781a      	ldrb	r2, [r3, #0]
10001792:	687b      	ldr	r3, [r7, #4]
10001794:	0011      	movs	r1, r2
10001796:	0018      	movs	r0, r3
10001798:	f7ff ffca 	bl	10001730 <ph_contains_node>
1000179c:	1e03      	subs	r3, r0, #0
1000179e:	d005      	beq.n	100017ac <ph_free_node+0x34>
100017a0:	4b17      	ldr	r3, [pc, #92]	@ (10001800 <ph_free_node+0x88>)
100017a2:	4a18      	ldr	r2, [pc, #96]	@ (10001804 <ph_free_node+0x8c>)
100017a4:	4818      	ldr	r0, [pc, #96]	@ (10001808 <ph_free_node+0x90>)
100017a6:	21f6      	movs	r1, #246	@ 0xf6
100017a8:	f002 fae6 	bl	10003d78 <__assert_func>
100017ac:	687b      	ldr	r3, [r7, #4]
100017ae:	7bdb      	ldrb	r3, [r3, #15]
100017b0:	2b00      	cmp	r3, #0
100017b2:	d00a      	beq.n	100017ca <ph_free_node+0x52>
100017b4:	687b      	ldr	r3, [r7, #4]
100017b6:	7bda      	ldrb	r2, [r3, #15]
100017b8:	687b      	ldr	r3, [r7, #4]
100017ba:	0011      	movs	r1, r2
100017bc:	0018      	movs	r0, r3
100017be:	f7ff fe6f 	bl	100014a0 <ph_get_node>
100017c2:	0002      	movs	r2, r0
100017c4:	1cfb      	adds	r3, r7, #3
100017c6:	781b      	ldrb	r3, [r3, #0]
100017c8:	7053      	strb	r3, [r2, #1]
100017ca:	687b      	ldr	r3, [r7, #4]
100017cc:	7b9b      	ldrb	r3, [r3, #14]
100017ce:	2b00      	cmp	r3, #0
100017d0:	d10d      	bne.n	100017ee <ph_free_node+0x76>
100017d2:	687b      	ldr	r3, [r7, #4]
100017d4:	7bdb      	ldrb	r3, [r3, #15]
100017d6:	2b00      	cmp	r3, #0
100017d8:	d005      	beq.n	100017e6 <ph_free_node+0x6e>
100017da:	4b0c      	ldr	r3, [pc, #48]	@ (1000180c <ph_free_node+0x94>)
100017dc:	4a09      	ldr	r2, [pc, #36]	@ (10001804 <ph_free_node+0x8c>)
100017de:	480a      	ldr	r0, [pc, #40]	@ (10001808 <ph_free_node+0x90>)
100017e0:	21fb      	movs	r1, #251	@ 0xfb
100017e2:	f002 fac9 	bl	10003d78 <__assert_func>
100017e6:	687b      	ldr	r3, [r7, #4]
100017e8:	1cfa      	adds	r2, r7, #3
100017ea:	7812      	ldrb	r2, [r2, #0]
100017ec:	739a      	strb	r2, [r3, #14]
100017ee:	687b      	ldr	r3, [r7, #4]
100017f0:	1cfa      	adds	r2, r7, #3
100017f2:	7812      	ldrb	r2, [r2, #0]
100017f4:	73da      	strb	r2, [r3, #15]
100017f6:	46c0      	nop			@ (mov r8, r8)
100017f8:	46bd      	mov	sp, r7
100017fa:	b002      	add	sp, #8
100017fc:	bd80      	pop	{r7, pc}
100017fe:	46c0      	nop			@ (mov r8, r8)
10001800:	10009884 	.word	0x10009884
10001804:	10009b30 	.word	0x10009b30
10001808:	10009804 	.word	0x10009804
1000180c:	100098a8 	.word	0x100098a8

10001810 <default_alarm_pool_initialized>:
10001810:	b580      	push	{r7, lr}
10001812:	af00      	add	r7, sp, #0
10001814:	4b03      	ldr	r3, [pc, #12]	@ (10001824 <default_alarm_pool_initialized+0x14>)
10001816:	685b      	ldr	r3, [r3, #4]
10001818:	1e5a      	subs	r2, r3, #1
1000181a:	4193      	sbcs	r3, r2
1000181c:	b2db      	uxtb	r3, r3
1000181e:	0018      	movs	r0, r3
10001820:	46bd      	mov	sp, r7
10001822:	bd80      	pop	{r7, pc}
10001824:	2000055c 	.word	0x2000055c

10001828 <get_entry>:
10001828:	b580      	push	{r7, lr}
1000182a:	b082      	sub	sp, #8
1000182c:	af00      	add	r7, sp, #0
1000182e:	6078      	str	r0, [r7, #4]
10001830:	000a      	movs	r2, r1
10001832:	1cfb      	adds	r3, r7, #3
10001834:	701a      	strb	r2, [r3, #0]
10001836:	1cfb      	adds	r3, r7, #3
10001838:	781b      	ldrb	r3, [r3, #0]
1000183a:	2b00      	cmp	r3, #0
1000183c:	d006      	beq.n	1000184c <get_entry+0x24>
1000183e:	687b      	ldr	r3, [r7, #4]
10001840:	681b      	ldr	r3, [r3, #0]
10001842:	7b1b      	ldrb	r3, [r3, #12]
10001844:	1cfa      	adds	r2, r7, #3
10001846:	7812      	ldrb	r2, [r2, #0]
10001848:	429a      	cmp	r2, r3
1000184a:	d905      	bls.n	10001858 <get_entry+0x30>
1000184c:	4b09      	ldr	r3, [pc, #36]	@ (10001874 <get_entry+0x4c>)
1000184e:	4a0a      	ldr	r2, [pc, #40]	@ (10001878 <get_entry+0x50>)
10001850:	480a      	ldr	r0, [pc, #40]	@ (1000187c <get_entry+0x54>)
10001852:	213c      	movs	r1, #60	@ 0x3c
10001854:	f002 fa90 	bl	10003d78 <__assert_func>
10001858:	687b      	ldr	r3, [r7, #4]
1000185a:	689a      	ldr	r2, [r3, #8]
1000185c:	1cfb      	adds	r3, r7, #3
1000185e:	781b      	ldrb	r3, [r3, #0]
10001860:	4907      	ldr	r1, [pc, #28]	@ (10001880 <get_entry+0x58>)
10001862:	468c      	mov	ip, r1
10001864:	4463      	add	r3, ip
10001866:	011b      	lsls	r3, r3, #4
10001868:	18d3      	adds	r3, r2, r3
1000186a:	0018      	movs	r0, r3
1000186c:	46bd      	mov	sp, r7
1000186e:	b002      	add	sp, #8
10001870:	bd80      	pop	{r7, pc}
10001872:	46c0      	nop			@ (mov r8, r8)
10001874:	100098bc 	.word	0x100098bc
10001878:	10009ab0 	.word	0x10009ab0
1000187c:	100098e0 	.word	0x100098e0
10001880:	0fffffff 	.word	0x0fffffff

10001884 <get_entry_id_high>:
10001884:	b580      	push	{r7, lr}
10001886:	b082      	sub	sp, #8
10001888:	af00      	add	r7, sp, #0
1000188a:	6078      	str	r0, [r7, #4]
1000188c:	000a      	movs	r2, r1
1000188e:	1cfb      	adds	r3, r7, #3
10001890:	701a      	strb	r2, [r3, #0]
10001892:	1cfb      	adds	r3, r7, #3
10001894:	781b      	ldrb	r3, [r3, #0]
10001896:	2b00      	cmp	r3, #0
10001898:	d006      	beq.n	100018a8 <get_entry_id_high+0x24>
1000189a:	687b      	ldr	r3, [r7, #4]
1000189c:	681b      	ldr	r3, [r3, #0]
1000189e:	7b1b      	ldrb	r3, [r3, #12]
100018a0:	1cfa      	adds	r2, r7, #3
100018a2:	7812      	ldrb	r2, [r2, #0]
100018a4:	429a      	cmp	r2, r3
100018a6:	d905      	bls.n	100018b4 <get_entry_id_high+0x30>
100018a8:	4b07      	ldr	r3, [pc, #28]	@ (100018c8 <get_entry_id_high+0x44>)
100018aa:	4a08      	ldr	r2, [pc, #32]	@ (100018cc <get_entry_id_high+0x48>)
100018ac:	4808      	ldr	r0, [pc, #32]	@ (100018d0 <get_entry_id_high+0x4c>)
100018ae:	2141      	movs	r1, #65	@ 0x41
100018b0:	f002 fa62 	bl	10003d78 <__assert_func>
100018b4:	687b      	ldr	r3, [r7, #4]
100018b6:	68da      	ldr	r2, [r3, #12]
100018b8:	1cfb      	adds	r3, r7, #3
100018ba:	781b      	ldrb	r3, [r3, #0]
100018bc:	3b01      	subs	r3, #1
100018be:	18d3      	adds	r3, r2, r3
100018c0:	0018      	movs	r0, r3
100018c2:	46bd      	mov	sp, r7
100018c4:	b002      	add	sp, #8
100018c6:	bd80      	pop	{r7, pc}
100018c8:	100098bc 	.word	0x100098bc
100018cc:	10009b40 	.word	0x10009b40
100018d0:	100098e0 	.word	0x100098e0

100018d4 <timer_pool_entry_comparator>:
100018d4:	b5b0      	push	{r4, r5, r7, lr}
100018d6:	b084      	sub	sp, #16
100018d8:	af00      	add	r7, sp, #0
100018da:	6078      	str	r0, [r7, #4]
100018dc:	0008      	movs	r0, r1
100018de:	0011      	movs	r1, r2
100018e0:	1cfb      	adds	r3, r7, #3
100018e2:	1c02      	adds	r2, r0, #0
100018e4:	701a      	strb	r2, [r3, #0]
100018e6:	1cbb      	adds	r3, r7, #2
100018e8:	1c0a      	adds	r2, r1, #0
100018ea:	701a      	strb	r2, [r3, #0]
100018ec:	687b      	ldr	r3, [r7, #4]
100018ee:	60fb      	str	r3, [r7, #12]
100018f0:	1cfb      	adds	r3, r7, #3
100018f2:	781a      	ldrb	r2, [r3, #0]
100018f4:	68fb      	ldr	r3, [r7, #12]
100018f6:	0011      	movs	r1, r2
100018f8:	0018      	movs	r0, r3
100018fa:	f7ff ff95 	bl	10001828 <get_entry>
100018fe:	0003      	movs	r3, r0
10001900:	681a      	ldr	r2, [r3, #0]
10001902:	685b      	ldr	r3, [r3, #4]
10001904:	0010      	movs	r0, r2
10001906:	0019      	movs	r1, r3
10001908:	f7ff fcbb 	bl	10001282 <to_us_since_boot>
1000190c:	0004      	movs	r4, r0
1000190e:	000d      	movs	r5, r1
10001910:	1cbb      	adds	r3, r7, #2
10001912:	781a      	ldrb	r2, [r3, #0]
10001914:	68fb      	ldr	r3, [r7, #12]
10001916:	0011      	movs	r1, r2
10001918:	0018      	movs	r0, r3
1000191a:	f7ff ff85 	bl	10001828 <get_entry>
1000191e:	0003      	movs	r3, r0
10001920:	681a      	ldr	r2, [r3, #0]
10001922:	685b      	ldr	r3, [r3, #4]
10001924:	0010      	movs	r0, r2
10001926:	0019      	movs	r1, r3
10001928:	f7ff fcab 	bl	10001282 <to_us_since_boot>
1000192c:	0002      	movs	r2, r0
1000192e:	000b      	movs	r3, r1
10001930:	2101      	movs	r1, #1
10001932:	42ab      	cmp	r3, r5
10001934:	d804      	bhi.n	10001940 <timer_pool_entry_comparator+0x6c>
10001936:	d101      	bne.n	1000193c <timer_pool_entry_comparator+0x68>
10001938:	42a2      	cmp	r2, r4
1000193a:	d801      	bhi.n	10001940 <timer_pool_entry_comparator+0x6c>
1000193c:	2300      	movs	r3, #0
1000193e:	1c19      	adds	r1, r3, #0
10001940:	b2cb      	uxtb	r3, r1
10001942:	0018      	movs	r0, r3
10001944:	46bd      	mov	sp, r7
10001946:	b004      	add	sp, #16
10001948:	bdb0      	pop	{r4, r5, r7, pc}

1000194a <make_public_id>:
1000194a:	b580      	push	{r7, lr}
1000194c:	b082      	sub	sp, #8
1000194e:	af00      	add	r7, sp, #0
10001950:	0002      	movs	r2, r0
10001952:	1dfb      	adds	r3, r7, #7
10001954:	701a      	strb	r2, [r3, #0]
10001956:	1dbb      	adds	r3, r7, #6
10001958:	1c0a      	adds	r2, r1, #0
1000195a:	701a      	strb	r2, [r3, #0]
1000195c:	1dfb      	adds	r3, r7, #7
1000195e:	781b      	ldrb	r3, [r3, #0]
10001960:	021a      	lsls	r2, r3, #8
10001962:	1dbb      	adds	r3, r7, #6
10001964:	781b      	ldrb	r3, [r3, #0]
10001966:	4313      	orrs	r3, r2
10001968:	0018      	movs	r0, r3
1000196a:	46bd      	mov	sp, r7
1000196c:	b002      	add	sp, #8
1000196e:	bd80      	pop	{r7, pc}

10001970 <alarm_pool_init_default>:
10001970:	b580      	push	{r7, lr}
10001972:	af00      	add	r7, sp, #0
10001974:	f7ff ff4c 	bl	10001810 <default_alarm_pool_initialized>
10001978:	0003      	movs	r3, r0
1000197a:	001a      	movs	r2, r3
1000197c:	2301      	movs	r3, #1
1000197e:	4053      	eors	r3, r2
10001980:	b2db      	uxtb	r3, r3
10001982:	2b00      	cmp	r3, #0
10001984:	d00e      	beq.n	100019a4 <alarm_pool_init_default+0x34>
10001986:	4b0b      	ldr	r3, [pc, #44]	@ (100019b4 <alarm_pool_init_default+0x44>)
10001988:	6818      	ldr	r0, [r3, #0]
1000198a:	4b0a      	ldr	r3, [pc, #40]	@ (100019b4 <alarm_pool_init_default+0x44>)
1000198c:	4a0a      	ldr	r2, [pc, #40]	@ (100019b8 <alarm_pool_init_default+0x48>)
1000198e:	2110      	movs	r1, #16
10001990:	f001 f9af 	bl	10002cf2 <ph_post_alloc_init>
10001994:	2003      	movs	r0, #3
10001996:	f000 fd97 	bl	100024c8 <hardware_alarm_claim>
1000199a:	4b06      	ldr	r3, [pc, #24]	@ (100019b4 <alarm_pool_init_default+0x44>)
1000199c:	2103      	movs	r1, #3
1000199e:	0018      	movs	r0, r3
100019a0:	f000 fac4 	bl	10001f2c <alarm_pool_post_alloc_init>
100019a4:	4b05      	ldr	r3, [pc, #20]	@ (100019bc <alarm_pool_init_default+0x4c>)
100019a6:	210a      	movs	r1, #10
100019a8:	0018      	movs	r0, r3
100019aa:	f7ff fc23 	bl	100011f4 <lock_init>
100019ae:	46c0      	nop			@ (mov r8, r8)
100019b0:	46bd      	mov	sp, r7
100019b2:	bd80      	pop	{r7, pc}
100019b4:	2000055c 	.word	0x2000055c
100019b8:	100018d5 	.word	0x100018d5
100019bc:	200009a0 	.word	0x200009a0

100019c0 <alarm_pool_get_default>:
100019c0:	b580      	push	{r7, lr}
100019c2:	af00      	add	r7, sp, #0
100019c4:	f7ff ff24 	bl	10001810 <default_alarm_pool_initialized>
100019c8:	1e03      	subs	r3, r0, #0
100019ca:	d105      	bne.n	100019d8 <alarm_pool_get_default+0x18>
100019cc:	4b04      	ldr	r3, [pc, #16]	@ (100019e0 <alarm_pool_get_default+0x20>)
100019ce:	4a05      	ldr	r2, [pc, #20]	@ (100019e4 <alarm_pool_get_default+0x24>)
100019d0:	4805      	ldr	r0, [pc, #20]	@ (100019e8 <alarm_pool_get_default+0x28>)
100019d2:	215e      	movs	r1, #94	@ 0x5e
100019d4:	f002 f9d0 	bl	10003d78 <__assert_func>
100019d8:	4b04      	ldr	r3, [pc, #16]	@ (100019ec <alarm_pool_get_default+0x2c>)
100019da:	0018      	movs	r0, r3
100019dc:	46bd      	mov	sp, r7
100019de:	bd80      	pop	{r7, pc}
100019e0:	10009918 	.word	0x10009918
100019e4:	10009abc 	.word	0x10009abc
100019e8:	100098e0 	.word	0x100098e0
100019ec:	2000055c 	.word	0x2000055c

100019f0 <add_alarm_under_lock>:
100019f0:	b5f0      	push	{r4, r5, r6, r7, lr}
100019f2:	b089      	sub	sp, #36	@ 0x24
100019f4:	af00      	add	r7, sp, #0
100019f6:	60f8      	str	r0, [r7, #12]
100019f8:	603a      	str	r2, [r7, #0]
100019fa:	607b      	str	r3, [r7, #4]
100019fc:	2138      	movs	r1, #56	@ 0x38
100019fe:	2008      	movs	r0, #8
10001a00:	180b      	adds	r3, r1, r0
10001a02:	19db      	adds	r3, r3, r7
10001a04:	781b      	ldrb	r3, [r3, #0]
10001a06:	2b00      	cmp	r3, #0
10001a08:	d01e      	beq.n	10001a48 <add_alarm_under_lock+0x58>
10001a0a:	68fb      	ldr	r3, [r7, #12]
10001a0c:	681a      	ldr	r2, [r3, #0]
10001a0e:	180b      	adds	r3, r1, r0
10001a10:	19db      	adds	r3, r3, r7
10001a12:	781b      	ldrb	r3, [r3, #0]
10001a14:	0019      	movs	r1, r3
10001a16:	0010      	movs	r0, r2
10001a18:	f7ff fe8a 	bl	10001730 <ph_contains_node>
10001a1c:	0003      	movs	r3, r0
10001a1e:	001a      	movs	r2, r3
10001a20:	2301      	movs	r3, #1
10001a22:	4053      	eors	r3, r2
10001a24:	b2db      	uxtb	r3, r3
10001a26:	2b00      	cmp	r3, #0
10001a28:	d105      	bne.n	10001a36 <add_alarm_under_lock+0x46>
10001a2a:	4b38      	ldr	r3, [pc, #224]	@ (10001b0c <add_alarm_under_lock+0x11c>)
10001a2c:	4a38      	ldr	r2, [pc, #224]	@ (10001b10 <add_alarm_under_lock+0x120>)
10001a2e:	4839      	ldr	r0, [pc, #228]	@ (10001b14 <add_alarm_under_lock+0x124>)
10001a30:	2167      	movs	r1, #103	@ 0x67
10001a32:	f002 f9a1 	bl	10003d78 <__assert_func>
10001a36:	231f      	movs	r3, #31
10001a38:	18fb      	adds	r3, r7, r3
10001a3a:	2238      	movs	r2, #56	@ 0x38
10001a3c:	2108      	movs	r1, #8
10001a3e:	1852      	adds	r2, r2, r1
10001a40:	19d2      	adds	r2, r2, r7
10001a42:	7812      	ldrb	r2, [r2, #0]
10001a44:	701a      	strb	r2, [r3, #0]
10001a46:	e008      	b.n	10001a5a <add_alarm_under_lock+0x6a>
10001a48:	68fb      	ldr	r3, [r7, #12]
10001a4a:	681b      	ldr	r3, [r3, #0]
10001a4c:	221f      	movs	r2, #31
10001a4e:	18bc      	adds	r4, r7, r2
10001a50:	0018      	movs	r0, r3
10001a52:	f7ff fdf0 	bl	10001636 <ph_new_node>
10001a56:	0003      	movs	r3, r0
10001a58:	7023      	strb	r3, [r4, #0]
10001a5a:	251f      	movs	r5, #31
10001a5c:	197b      	adds	r3, r7, r5
10001a5e:	781b      	ldrb	r3, [r3, #0]
10001a60:	2b00      	cmp	r3, #0
10001a62:	d04b      	beq.n	10001afc <add_alarm_under_lock+0x10c>
10001a64:	197b      	adds	r3, r7, r5
10001a66:	781a      	ldrb	r2, [r3, #0]
10001a68:	68fb      	ldr	r3, [r7, #12]
10001a6a:	0011      	movs	r1, r2
10001a6c:	0018      	movs	r0, r3
10001a6e:	f7ff fedb 	bl	10001828 <get_entry>
10001a72:	0003      	movs	r3, r0
10001a74:	61bb      	str	r3, [r7, #24]
10001a76:	69b9      	ldr	r1, [r7, #24]
10001a78:	683a      	ldr	r2, [r7, #0]
10001a7a:	687b      	ldr	r3, [r7, #4]
10001a7c:	600a      	str	r2, [r1, #0]
10001a7e:	604b      	str	r3, [r1, #4]
10001a80:	69bb      	ldr	r3, [r7, #24]
10001a82:	6bba      	ldr	r2, [r7, #56]	@ 0x38
10001a84:	609a      	str	r2, [r3, #8]
10001a86:	69bb      	ldr	r3, [r7, #24]
10001a88:	6bfa      	ldr	r2, [r7, #60]	@ 0x3c
10001a8a:	60da      	str	r2, [r3, #12]
10001a8c:	68fb      	ldr	r3, [r7, #12]
10001a8e:	681a      	ldr	r2, [r3, #0]
10001a90:	197b      	adds	r3, r7, r5
10001a92:	781b      	ldrb	r3, [r3, #0]
10001a94:	0019      	movs	r1, r3
10001a96:	0010      	movs	r0, r2
10001a98:	f7ff fe02 	bl	100016a0 <ph_insert_node>
10001a9c:	0003      	movs	r3, r0
10001a9e:	001a      	movs	r2, r3
10001aa0:	197b      	adds	r3, r7, r5
10001aa2:	781b      	ldrb	r3, [r3, #0]
10001aa4:	4293      	cmp	r3, r2
10001aa6:	d129      	bne.n	10001afc <add_alarm_under_lock+0x10c>
10001aa8:	68fb      	ldr	r3, [r7, #12]
10001aaa:	7d1b      	ldrb	r3, [r3, #20]
10001aac:	0019      	movs	r1, r3
10001aae:	2617      	movs	r6, #23
10001ab0:	19bc      	adds	r4, r7, r6
10001ab2:	683a      	ldr	r2, [r7, #0]
10001ab4:	687b      	ldr	r3, [r7, #4]
10001ab6:	0008      	movs	r0, r1
10001ab8:	f000 fefa 	bl	100028b0 <hardware_alarm_set_target>
10001abc:	0003      	movs	r3, r0
10001abe:	7023      	strb	r3, [r4, #0]
10001ac0:	19bb      	adds	r3, r7, r6
10001ac2:	781b      	ldrb	r3, [r3, #0]
10001ac4:	2b00      	cmp	r3, #0
10001ac6:	d011      	beq.n	10001aec <add_alarm_under_lock+0xfc>
10001ac8:	233c      	movs	r3, #60	@ 0x3c
10001aca:	2208      	movs	r2, #8
10001acc:	189b      	adds	r3, r3, r2
10001ace:	19db      	adds	r3, r3, r7
10001ad0:	781b      	ldrb	r3, [r3, #0]
10001ad2:	2201      	movs	r2, #1
10001ad4:	4053      	eors	r3, r2
10001ad6:	b2db      	uxtb	r3, r3
10001ad8:	2b00      	cmp	r3, #0
10001ada:	d007      	beq.n	10001aec <add_alarm_under_lock+0xfc>
10001adc:	68fb      	ldr	r3, [r7, #12]
10001ade:	681a      	ldr	r2, [r3, #0]
10001ae0:	197b      	adds	r3, r7, r5
10001ae2:	781b      	ldrb	r3, [r3, #0]
10001ae4:	0019      	movs	r1, r3
10001ae6:	0010      	movs	r0, r2
10001ae8:	f001 fa82 	bl	10002ff0 <ph_remove_and_free_node>
10001aec:	6cbb      	ldr	r3, [r7, #72]	@ 0x48
10001aee:	2b00      	cmp	r3, #0
10001af0:	d004      	beq.n	10001afc <add_alarm_under_lock+0x10c>
10001af2:	6cbb      	ldr	r3, [r7, #72]	@ 0x48
10001af4:	2217      	movs	r2, #23
10001af6:	18ba      	adds	r2, r7, r2
10001af8:	7812      	ldrb	r2, [r2, #0]
10001afa:	701a      	strb	r2, [r3, #0]
10001afc:	231f      	movs	r3, #31
10001afe:	18fb      	adds	r3, r7, r3
10001b00:	781b      	ldrb	r3, [r3, #0]
10001b02:	0018      	movs	r0, r3
10001b04:	46bd      	mov	sp, r7
10001b06:	b009      	add	sp, #36	@ 0x24
10001b08:	bdf0      	pop	{r4, r5, r6, r7, pc}
10001b0a:	46c0      	nop			@ (mov r8, r8)
10001b0c:	1000993c 	.word	0x1000993c
10001b10:	10009ad4 	.word	0x10009ad4
10001b14:	100098e0 	.word	0x100098e0

10001b18 <alarm_pool_alarm_callback>:
10001b18:	b5f0      	push	{r4, r5, r6, r7, lr}
10001b1a:	b0af      	sub	sp, #188	@ 0xbc
10001b1c:	af06      	add	r7, sp, #24
10001b1e:	6078      	str	r0, [r7, #4]
10001b20:	4bd9      	ldr	r3, [pc, #868]	@ (10001e88 <alarm_pool_alarm_callback+0x370>)
10001b22:	687a      	ldr	r2, [r7, #4]
10001b24:	0092      	lsls	r2, r2, #2
10001b26:	58d3      	ldr	r3, [r2, r3]
10001b28:	228c      	movs	r2, #140	@ 0x8c
10001b2a:	18ba      	adds	r2, r7, r2
10001b2c:	6013      	str	r3, [r2, #0]
10001b2e:	2310      	movs	r3, #16
10001b30:	18fb      	adds	r3, r7, r3
10001b32:	0018      	movs	r0, r3
10001b34:	f7ff fc04 	bl	10001340 <get_absolute_time>
10001b38:	2300      	movs	r3, #0
10001b3a:	2298      	movs	r2, #152	@ 0x98
10001b3c:	18ba      	adds	r2, r7, r2
10001b3e:	6013      	str	r3, [r2, #0]
10001b40:	2200      	movs	r2, #0
10001b42:	2300      	movs	r3, #0
10001b44:	60ba      	str	r2, [r7, #8]
10001b46:	60fb      	str	r3, [r7, #12]
10001b48:	2300      	movs	r3, #0
10001b4a:	2294      	movs	r2, #148	@ 0x94
10001b4c:	18ba      	adds	r2, r7, r2
10001b4e:	6013      	str	r3, [r2, #0]
10001b50:	239f      	movs	r3, #159	@ 0x9f
10001b52:	18fb      	adds	r3, r7, r3
10001b54:	2200      	movs	r2, #0
10001b56:	701a      	strb	r2, [r3, #0]
10001b58:	238c      	movs	r3, #140	@ 0x8c
10001b5a:	18fb      	adds	r3, r7, r3
10001b5c:	681b      	ldr	r3, [r3, #0]
10001b5e:	685b      	ldr	r3, [r3, #4]
10001b60:	66fb      	str	r3, [r7, #108]	@ 0x6c
10001b62:	f3ef 8310 	mrs	r3, PRIMASK
10001b66:	b672      	cpsid	i
10001b68:	66bb      	str	r3, [r7, #104]	@ 0x68
10001b6a:	6ebb      	ldr	r3, [r7, #104]	@ 0x68
10001b6c:	667b      	str	r3, [r7, #100]	@ 0x64
10001b6e:	6efb      	ldr	r3, [r7, #108]	@ 0x6c
10001b70:	663b      	str	r3, [r7, #96]	@ 0x60
10001b72:	46c0      	nop			@ (mov r8, r8)
10001b74:	6e3b      	ldr	r3, [r7, #96]	@ 0x60
10001b76:	681b      	ldr	r3, [r3, #0]
10001b78:	425a      	negs	r2, r3
10001b7a:	4153      	adcs	r3, r2
10001b7c:	b2db      	uxtb	r3, r3
10001b7e:	2b00      	cmp	r3, #0
10001b80:	d1f8      	bne.n	10001b74 <alarm_pool_alarm_callback+0x5c>
10001b82:	f3bf 8f5f 	dmb	sy
10001b86:	46c0      	nop			@ (mov r8, r8)
10001b88:	46c0      	nop			@ (mov r8, r8)
10001b8a:	46c0      	nop			@ (mov r8, r8)
10001b8c:	6e7b      	ldr	r3, [r7, #100]	@ 0x64
10001b8e:	2288      	movs	r2, #136	@ 0x88
10001b90:	18ba      	adds	r2, r7, r2
10001b92:	6013      	str	r3, [r2, #0]
10001b94:	268c      	movs	r6, #140	@ 0x8c
10001b96:	19bb      	adds	r3, r7, r6
10001b98:	681b      	ldr	r3, [r3, #0]
10001b9a:	681b      	ldr	r3, [r3, #0]
10001b9c:	2587      	movs	r5, #135	@ 0x87
10001b9e:	197c      	adds	r4, r7, r5
10001ba0:	0018      	movs	r0, r3
10001ba2:	f7ff fdbb 	bl	1000171c <ph_peek_head>
10001ba6:	0003      	movs	r3, r0
10001ba8:	7023      	strb	r3, [r4, #0]
10001baa:	197b      	adds	r3, r7, r5
10001bac:	781b      	ldrb	r3, [r3, #0]
10001bae:	2b00      	cmp	r3, #0
10001bb0:	d100      	bne.n	10001bb4 <alarm_pool_alarm_callback+0x9c>
10001bb2:	e07d      	b.n	10001cb0 <alarm_pool_alarm_callback+0x198>
10001bb4:	197b      	adds	r3, r7, r5
10001bb6:	781a      	ldrb	r2, [r3, #0]
10001bb8:	19bb      	adds	r3, r7, r6
10001bba:	681b      	ldr	r3, [r3, #0]
10001bbc:	0011      	movs	r1, r2
10001bbe:	0018      	movs	r0, r3
10001bc0:	f7ff fe32 	bl	10001828 <get_entry>
10001bc4:	0003      	movs	r3, r0
10001bc6:	2280      	movs	r2, #128	@ 0x80
10001bc8:	18b9      	adds	r1, r7, r2
10001bca:	600b      	str	r3, [r1, #0]
10001bcc:	18bb      	adds	r3, r7, r2
10001bce:	681b      	ldr	r3, [r3, #0]
10001bd0:	681a      	ldr	r2, [r3, #0]
10001bd2:	685b      	ldr	r3, [r3, #4]
10001bd4:	6938      	ldr	r0, [r7, #16]
10001bd6:	6979      	ldr	r1, [r7, #20]
10001bd8:	f7ff fc17 	bl	1000140a <absolute_time_diff_us>
10001bdc:	0002      	movs	r2, r0
10001bde:	000b      	movs	r3, r1
10001be0:	2b00      	cmp	r3, #0
10001be2:	dc56      	bgt.n	10001c92 <alarm_pool_alarm_callback+0x17a>
10001be4:	d101      	bne.n	10001bea <alarm_pool_alarm_callback+0xd2>
10001be6:	2a00      	cmp	r2, #0
10001be8:	d153      	bne.n	10001c92 <alarm_pool_alarm_callback+0x17a>
10001bea:	238c      	movs	r3, #140	@ 0x8c
10001bec:	18fb      	adds	r3, r7, r3
10001bee:	681b      	ldr	r3, [r3, #0]
10001bf0:	681b      	ldr	r3, [r3, #0]
10001bf2:	257f      	movs	r5, #127	@ 0x7f
10001bf4:	197c      	adds	r4, r7, r5
10001bf6:	2100      	movs	r1, #0
10001bf8:	0018      	movs	r0, r3
10001bfa:	f001 f9d7 	bl	10002fac <ph_remove_head>
10001bfe:	0003      	movs	r3, r0
10001c00:	7023      	strb	r3, [r4, #0]
10001c02:	197a      	adds	r2, r7, r5
10001c04:	2387      	movs	r3, #135	@ 0x87
10001c06:	18fb      	adds	r3, r7, r3
10001c08:	7812      	ldrb	r2, [r2, #0]
10001c0a:	781b      	ldrb	r3, [r3, #0]
10001c0c:	429a      	cmp	r2, r3
10001c0e:	d005      	beq.n	10001c1c <alarm_pool_alarm_callback+0x104>
10001c10:	4b9e      	ldr	r3, [pc, #632]	@ (10001e8c <alarm_pool_alarm_callback+0x374>)
10001c12:	4a9f      	ldr	r2, [pc, #636]	@ (10001e90 <alarm_pool_alarm_callback+0x378>)
10001c14:	489f      	ldr	r0, [pc, #636]	@ (10001e94 <alarm_pool_alarm_callback+0x37c>)
10001c16:	218e      	movs	r1, #142	@ 0x8e
10001c18:	f002 f8ae 	bl	10003d78 <__assert_func>
10001c1c:	2180      	movs	r1, #128	@ 0x80
10001c1e:	187b      	adds	r3, r7, r1
10001c20:	681b      	ldr	r3, [r3, #0]
10001c22:	681a      	ldr	r2, [r3, #0]
10001c24:	685b      	ldr	r3, [r3, #4]
10001c26:	60ba      	str	r2, [r7, #8]
10001c28:	60fb      	str	r3, [r7, #12]
10001c2a:	000a      	movs	r2, r1
10001c2c:	18bb      	adds	r3, r7, r2
10001c2e:	681b      	ldr	r3, [r3, #0]
10001c30:	689b      	ldr	r3, [r3, #8]
10001c32:	2198      	movs	r1, #152	@ 0x98
10001c34:	1878      	adds	r0, r7, r1
10001c36:	6003      	str	r3, [r0, #0]
10001c38:	18bb      	adds	r3, r7, r2
10001c3a:	681b      	ldr	r3, [r3, #0]
10001c3c:	68db      	ldr	r3, [r3, #12]
10001c3e:	2294      	movs	r2, #148	@ 0x94
10001c40:	18ba      	adds	r2, r7, r2
10001c42:	6013      	str	r3, [r2, #0]
10001c44:	187b      	adds	r3, r7, r1
10001c46:	681b      	ldr	r3, [r3, #0]
10001c48:	2b00      	cmp	r3, #0
10001c4a:	d105      	bne.n	10001c58 <alarm_pool_alarm_callback+0x140>
10001c4c:	4b92      	ldr	r3, [pc, #584]	@ (10001e98 <alarm_pool_alarm_callback+0x380>)
10001c4e:	4a90      	ldr	r2, [pc, #576]	@ (10001e90 <alarm_pool_alarm_callback+0x378>)
10001c50:	4890      	ldr	r0, [pc, #576]	@ (10001e94 <alarm_pool_alarm_callback+0x37c>)
10001c52:	2192      	movs	r1, #146	@ 0x92
10001c54:	f002 f890 	bl	10003d78 <__assert_func>
10001c58:	2387      	movs	r3, #135	@ 0x87
10001c5a:	18fb      	adds	r3, r7, r3
10001c5c:	781a      	ldrb	r2, [r3, #0]
10001c5e:	248c      	movs	r4, #140	@ 0x8c
10001c60:	193b      	adds	r3, r7, r4
10001c62:	681b      	ldr	r3, [r3, #0]
10001c64:	0011      	movs	r1, r2
10001c66:	0018      	movs	r0, r3
10001c68:	f7ff fe0c 	bl	10001884 <get_entry_id_high>
10001c6c:	0002      	movs	r2, r0
10001c6e:	2193      	movs	r1, #147	@ 0x93
10001c70:	187b      	adds	r3, r7, r1
10001c72:	7812      	ldrb	r2, [r2, #0]
10001c74:	701a      	strb	r2, [r3, #0]
10001c76:	237f      	movs	r3, #127	@ 0x7f
10001c78:	18fb      	adds	r3, r7, r3
10001c7a:	781a      	ldrb	r2, [r3, #0]
10001c7c:	187b      	adds	r3, r7, r1
10001c7e:	781b      	ldrb	r3, [r3, #0]
10001c80:	0011      	movs	r1, r2
10001c82:	0018      	movs	r0, r3
10001c84:	f7ff fe61 	bl	1000194a <make_public_id>
10001c88:	0002      	movs	r2, r0
10001c8a:	193b      	adds	r3, r7, r4
10001c8c:	681b      	ldr	r3, [r3, #0]
10001c8e:	611a      	str	r2, [r3, #16]
10001c90:	e00e      	b.n	10001cb0 <alarm_pool_alarm_callback+0x198>
10001c92:	2380      	movs	r3, #128	@ 0x80
10001c94:	18fb      	adds	r3, r7, r3
10001c96:	681b      	ldr	r3, [r3, #0]
10001c98:	681a      	ldr	r2, [r3, #0]
10001c9a:	685b      	ldr	r3, [r3, #4]
10001c9c:	6879      	ldr	r1, [r7, #4]
10001c9e:	0008      	movs	r0, r1
10001ca0:	f000 fe06 	bl	100028b0 <hardware_alarm_set_target>
10001ca4:	1e03      	subs	r3, r0, #0
10001ca6:	d003      	beq.n	10001cb0 <alarm_pool_alarm_callback+0x198>
10001ca8:	239f      	movs	r3, #159	@ 0x9f
10001caa:	18fb      	adds	r3, r7, r3
10001cac:	2201      	movs	r2, #1
10001cae:	701a      	strb	r2, [r3, #0]
10001cb0:	248c      	movs	r4, #140	@ 0x8c
10001cb2:	193b      	adds	r3, r7, r4
10001cb4:	681b      	ldr	r3, [r3, #0]
10001cb6:	685b      	ldr	r3, [r3, #4]
10001cb8:	65fb      	str	r3, [r7, #92]	@ 0x5c
10001cba:	2388      	movs	r3, #136	@ 0x88
10001cbc:	18fb      	adds	r3, r7, r3
10001cbe:	681b      	ldr	r3, [r3, #0]
10001cc0:	65bb      	str	r3, [r7, #88]	@ 0x58
10001cc2:	6dfb      	ldr	r3, [r7, #92]	@ 0x5c
10001cc4:	657b      	str	r3, [r7, #84]	@ 0x54
10001cc6:	f3bf 8f5f 	dmb	sy
10001cca:	46c0      	nop			@ (mov r8, r8)
10001ccc:	46c0      	nop			@ (mov r8, r8)
10001cce:	6d7b      	ldr	r3, [r7, #84]	@ 0x54
10001cd0:	2200      	movs	r2, #0
10001cd2:	601a      	str	r2, [r3, #0]
10001cd4:	46c0      	nop			@ (mov r8, r8)
10001cd6:	6dbb      	ldr	r3, [r7, #88]	@ 0x58
10001cd8:	653b      	str	r3, [r7, #80]	@ 0x50
10001cda:	6d3b      	ldr	r3, [r7, #80]	@ 0x50
10001cdc:	f383 8810 	msr	PRIMASK, r3
10001ce0:	46c0      	nop			@ (mov r8, r8)
10001ce2:	46c0      	nop			@ (mov r8, r8)
10001ce4:	2598      	movs	r5, #152	@ 0x98
10001ce6:	197b      	adds	r3, r7, r5
10001ce8:	681b      	ldr	r3, [r3, #0]
10001cea:	2b00      	cmp	r3, #0
10001cec:	d100      	bne.n	10001cf0 <alarm_pool_alarm_callback+0x1d8>
10001cee:	e111      	b.n	10001f14 <alarm_pool_alarm_callback+0x3fc>
10001cf0:	2387      	movs	r3, #135	@ 0x87
10001cf2:	18fb      	adds	r3, r7, r3
10001cf4:	781a      	ldrb	r2, [r3, #0]
10001cf6:	2393      	movs	r3, #147	@ 0x93
10001cf8:	18fb      	adds	r3, r7, r3
10001cfa:	781b      	ldrb	r3, [r3, #0]
10001cfc:	0011      	movs	r1, r2
10001cfe:	0018      	movs	r0, r3
10001d00:	f7ff fe23 	bl	1000194a <make_public_id>
10001d04:	2394      	movs	r3, #148	@ 0x94
10001d06:	18fb      	adds	r3, r7, r3
10001d08:	681a      	ldr	r2, [r3, #0]
10001d0a:	197b      	adds	r3, r7, r5
10001d0c:	681b      	ldr	r3, [r3, #0]
10001d0e:	0011      	movs	r1, r2
10001d10:	4798      	blx	r3
10001d12:	0002      	movs	r2, r0
10001d14:	000b      	movs	r3, r1
10001d16:	673a      	str	r2, [r7, #112]	@ 0x70
10001d18:	677b      	str	r3, [r7, #116]	@ 0x74
10001d1a:	193b      	adds	r3, r7, r4
10001d1c:	681b      	ldr	r3, [r3, #0]
10001d1e:	685b      	ldr	r3, [r3, #4]
10001d20:	64fb      	str	r3, [r7, #76]	@ 0x4c
10001d22:	f3ef 8310 	mrs	r3, PRIMASK
10001d26:	b672      	cpsid	i
10001d28:	64bb      	str	r3, [r7, #72]	@ 0x48
10001d2a:	6cbb      	ldr	r3, [r7, #72]	@ 0x48
10001d2c:	647b      	str	r3, [r7, #68]	@ 0x44
10001d2e:	6cfb      	ldr	r3, [r7, #76]	@ 0x4c
10001d30:	643b      	str	r3, [r7, #64]	@ 0x40
10001d32:	46c0      	nop			@ (mov r8, r8)
10001d34:	6c3b      	ldr	r3, [r7, #64]	@ 0x40
10001d36:	681b      	ldr	r3, [r3, #0]
10001d38:	425a      	negs	r2, r3
10001d3a:	4153      	adcs	r3, r2
10001d3c:	b2db      	uxtb	r3, r3
10001d3e:	2b00      	cmp	r3, #0
10001d40:	d1f8      	bne.n	10001d34 <alarm_pool_alarm_callback+0x21c>
10001d42:	f3bf 8f5f 	dmb	sy
10001d46:	46c0      	nop			@ (mov r8, r8)
10001d48:	46c0      	nop			@ (mov r8, r8)
10001d4a:	46c0      	nop			@ (mov r8, r8)
10001d4c:	6c7b      	ldr	r3, [r7, #68]	@ 0x44
10001d4e:	2288      	movs	r2, #136	@ 0x88
10001d50:	18ba      	adds	r2, r7, r2
10001d52:	6013      	str	r3, [r2, #0]
10001d54:	6f7b      	ldr	r3, [r7, #116]	@ 0x74
10001d56:	2b00      	cmp	r3, #0
10001d58:	da46      	bge.n	10001de8 <alarm_pool_alarm_callback+0x2d0>
10001d5a:	228c      	movs	r2, #140	@ 0x8c
10001d5c:	18bb      	adds	r3, r7, r2
10001d5e:	681b      	ldr	r3, [r3, #0]
10001d60:	691b      	ldr	r3, [r3, #16]
10001d62:	2b00      	cmp	r3, #0
10001d64:	d040      	beq.n	10001de8 <alarm_pool_alarm_callback+0x2d0>
10001d66:	18bb      	adds	r3, r7, r2
10001d68:	681b      	ldr	r3, [r3, #0]
10001d6a:	691c      	ldr	r4, [r3, #16]
10001d6c:	2387      	movs	r3, #135	@ 0x87
10001d6e:	18fb      	adds	r3, r7, r3
10001d70:	781a      	ldrb	r2, [r3, #0]
10001d72:	2393      	movs	r3, #147	@ 0x93
10001d74:	18fb      	adds	r3, r7, r3
10001d76:	781b      	ldrb	r3, [r3, #0]
10001d78:	0011      	movs	r1, r2
10001d7a:	0018      	movs	r0, r3
10001d7c:	f7ff fde5 	bl	1000194a <make_public_id>
10001d80:	0003      	movs	r3, r0
10001d82:	429c      	cmp	r4, r3
10001d84:	d005      	beq.n	10001d92 <alarm_pool_alarm_callback+0x27a>
10001d86:	4b45      	ldr	r3, [pc, #276]	@ (10001e9c <alarm_pool_alarm_callback+0x384>)
10001d88:	4a41      	ldr	r2, [pc, #260]	@ (10001e90 <alarm_pool_alarm_callback+0x378>)
10001d8a:	4842      	ldr	r0, [pc, #264]	@ (10001e94 <alarm_pool_alarm_callback+0x37c>)
10001d8c:	21a1      	movs	r1, #161	@ 0xa1
10001d8e:	f001 fff3 	bl	10003d78 <__assert_func>
10001d92:	6f3a      	ldr	r2, [r7, #112]	@ 0x70
10001d94:	6f7b      	ldr	r3, [r7, #116]	@ 0x74
10001d96:	2000      	movs	r0, #0
10001d98:	2100      	movs	r1, #0
10001d9a:	1a80      	subs	r0, r0, r2
10001d9c:	4199      	sbcs	r1, r3
10001d9e:	0002      	movs	r2, r0
10001da0:	000b      	movs	r3, r1
10001da2:	0010      	movs	r0, r2
10001da4:	0019      	movs	r1, r3
10001da6:	2318      	movs	r3, #24
10001da8:	18fc      	adds	r4, r7, r3
10001daa:	68ba      	ldr	r2, [r7, #8]
10001dac:	68fb      	ldr	r3, [r7, #12]
10001dae:	9000      	str	r0, [sp, #0]
10001db0:	9101      	str	r1, [sp, #4]
10001db2:	0020      	movs	r0, r4
10001db4:	f7ff fada 	bl	1000136c <delayed_by_us>
10001db8:	69ba      	ldr	r2, [r7, #24]
10001dba:	69fb      	ldr	r3, [r7, #28]
10001dbc:	218c      	movs	r1, #140	@ 0x8c
10001dbe:	1879      	adds	r1, r7, r1
10001dc0:	6808      	ldr	r0, [r1, #0]
10001dc2:	2100      	movs	r1, #0
10001dc4:	9104      	str	r1, [sp, #16]
10001dc6:	2101      	movs	r1, #1
10001dc8:	9103      	str	r1, [sp, #12]
10001dca:	2187      	movs	r1, #135	@ 0x87
10001dcc:	1879      	adds	r1, r7, r1
10001dce:	7809      	ldrb	r1, [r1, #0]
10001dd0:	9102      	str	r1, [sp, #8]
10001dd2:	2194      	movs	r1, #148	@ 0x94
10001dd4:	1879      	adds	r1, r7, r1
10001dd6:	6809      	ldr	r1, [r1, #0]
10001dd8:	9101      	str	r1, [sp, #4]
10001dda:	2198      	movs	r1, #152	@ 0x98
10001ddc:	1879      	adds	r1, r7, r1
10001dde:	6809      	ldr	r1, [r1, #0]
10001de0:	9100      	str	r1, [sp, #0]
10001de2:	f7ff fe05 	bl	100019f0 <add_alarm_under_lock>
10001de6:	e073      	b.n	10001ed0 <alarm_pool_alarm_callback+0x3b8>
10001de8:	6f7b      	ldr	r3, [r7, #116]	@ 0x74
10001dea:	2b00      	cmp	r3, #0
10001dec:	dc05      	bgt.n	10001dfa <alarm_pool_alarm_callback+0x2e2>
10001dee:	6f7b      	ldr	r3, [r7, #116]	@ 0x74
10001df0:	2b00      	cmp	r3, #0
10001df2:	d155      	bne.n	10001ea0 <alarm_pool_alarm_callback+0x388>
10001df4:	6f3b      	ldr	r3, [r7, #112]	@ 0x70
10001df6:	2b00      	cmp	r3, #0
10001df8:	d052      	beq.n	10001ea0 <alarm_pool_alarm_callback+0x388>
10001dfa:	228c      	movs	r2, #140	@ 0x8c
10001dfc:	18bb      	adds	r3, r7, r2
10001dfe:	681b      	ldr	r3, [r3, #0]
10001e00:	691b      	ldr	r3, [r3, #16]
10001e02:	2b00      	cmp	r3, #0
10001e04:	d04c      	beq.n	10001ea0 <alarm_pool_alarm_callback+0x388>
10001e06:	18bb      	adds	r3, r7, r2
10001e08:	681b      	ldr	r3, [r3, #0]
10001e0a:	691c      	ldr	r4, [r3, #16]
10001e0c:	2387      	movs	r3, #135	@ 0x87
10001e0e:	18fb      	adds	r3, r7, r3
10001e10:	781a      	ldrb	r2, [r3, #0]
10001e12:	2393      	movs	r3, #147	@ 0x93
10001e14:	18fb      	adds	r3, r7, r3
10001e16:	781b      	ldrb	r3, [r3, #0]
10001e18:	0011      	movs	r1, r2
10001e1a:	0018      	movs	r0, r3
10001e1c:	f7ff fd95 	bl	1000194a <make_public_id>
10001e20:	0003      	movs	r3, r0
10001e22:	429c      	cmp	r4, r3
10001e24:	d005      	beq.n	10001e32 <alarm_pool_alarm_callback+0x31a>
10001e26:	4b1d      	ldr	r3, [pc, #116]	@ (10001e9c <alarm_pool_alarm_callback+0x384>)
10001e28:	4a19      	ldr	r2, [pc, #100]	@ (10001e90 <alarm_pool_alarm_callback+0x378>)
10001e2a:	481a      	ldr	r0, [pc, #104]	@ (10001e94 <alarm_pool_alarm_callback+0x37c>)
10001e2c:	21a4      	movs	r1, #164	@ 0xa4
10001e2e:	f001 ffa3 	bl	10003d78 <__assert_func>
10001e32:	2320      	movs	r3, #32
10001e34:	18fb      	adds	r3, r7, r3
10001e36:	0018      	movs	r0, r3
10001e38:	f7ff fa82 	bl	10001340 <get_absolute_time>
10001e3c:	6f3a      	ldr	r2, [r7, #112]	@ 0x70
10001e3e:	6f7b      	ldr	r3, [r7, #116]	@ 0x74
10001e40:	2128      	movs	r1, #40	@ 0x28
10001e42:	187c      	adds	r4, r7, r1
10001e44:	6a38      	ldr	r0, [r7, #32]
10001e46:	6a79      	ldr	r1, [r7, #36]	@ 0x24
10001e48:	9200      	str	r2, [sp, #0]
10001e4a:	9301      	str	r3, [sp, #4]
10001e4c:	0002      	movs	r2, r0
10001e4e:	000b      	movs	r3, r1
10001e50:	0020      	movs	r0, r4
10001e52:	f7ff fa8b 	bl	1000136c <delayed_by_us>
10001e56:	6aba      	ldr	r2, [r7, #40]	@ 0x28
10001e58:	6afb      	ldr	r3, [r7, #44]	@ 0x2c
10001e5a:	218c      	movs	r1, #140	@ 0x8c
10001e5c:	1879      	adds	r1, r7, r1
10001e5e:	6808      	ldr	r0, [r1, #0]
10001e60:	2100      	movs	r1, #0
10001e62:	9104      	str	r1, [sp, #16]
10001e64:	2101      	movs	r1, #1
10001e66:	9103      	str	r1, [sp, #12]
10001e68:	2187      	movs	r1, #135	@ 0x87
10001e6a:	1879      	adds	r1, r7, r1
10001e6c:	7809      	ldrb	r1, [r1, #0]
10001e6e:	9102      	str	r1, [sp, #8]
10001e70:	2194      	movs	r1, #148	@ 0x94
10001e72:	1879      	adds	r1, r7, r1
10001e74:	6809      	ldr	r1, [r1, #0]
10001e76:	9101      	str	r1, [sp, #4]
10001e78:	2198      	movs	r1, #152	@ 0x98
10001e7a:	1879      	adds	r1, r7, r1
10001e7c:	6809      	ldr	r1, [r1, #0]
10001e7e:	9100      	str	r1, [sp, #0]
10001e80:	f7ff fdb6 	bl	100019f0 <add_alarm_under_lock>
10001e84:	e024      	b.n	10001ed0 <alarm_pool_alarm_callback+0x3b8>
10001e86:	46c0      	nop			@ (mov r8, r8)
10001e88:	2000078c 	.word	0x2000078c
10001e8c:	10009964 	.word	0x10009964
10001e90:	10009afc 	.word	0x10009afc
10001e94:	100098e0 	.word	0x100098e0
10001e98:	1000997c 	.word	0x1000997c
10001e9c:	10009988 	.word	0x10009988
10001ea0:	248c      	movs	r4, #140	@ 0x8c
10001ea2:	193b      	adds	r3, r7, r4
10001ea4:	681b      	ldr	r3, [r3, #0]
10001ea6:	681a      	ldr	r2, [r3, #0]
10001ea8:	2587      	movs	r5, #135	@ 0x87
10001eaa:	197b      	adds	r3, r7, r5
10001eac:	781b      	ldrb	r3, [r3, #0]
10001eae:	0019      	movs	r1, r3
10001eb0:	0010      	movs	r0, r2
10001eb2:	f7ff fc61 	bl	10001778 <ph_free_node>
10001eb6:	197b      	adds	r3, r7, r5
10001eb8:	781a      	ldrb	r2, [r3, #0]
10001eba:	193b      	adds	r3, r7, r4
10001ebc:	681b      	ldr	r3, [r3, #0]
10001ebe:	0011      	movs	r1, r2
10001ec0:	0018      	movs	r0, r3
10001ec2:	f7ff fcdf 	bl	10001884 <get_entry_id_high>
10001ec6:	0003      	movs	r3, r0
10001ec8:	781a      	ldrb	r2, [r3, #0]
10001eca:	3201      	adds	r2, #1
10001ecc:	b2d2      	uxtb	r2, r2
10001ece:	701a      	strb	r2, [r3, #0]
10001ed0:	218c      	movs	r1, #140	@ 0x8c
10001ed2:	187b      	adds	r3, r7, r1
10001ed4:	681b      	ldr	r3, [r3, #0]
10001ed6:	2200      	movs	r2, #0
10001ed8:	611a      	str	r2, [r3, #16]
10001eda:	187b      	adds	r3, r7, r1
10001edc:	681b      	ldr	r3, [r3, #0]
10001ede:	685b      	ldr	r3, [r3, #4]
10001ee0:	63fb      	str	r3, [r7, #60]	@ 0x3c
10001ee2:	2388      	movs	r3, #136	@ 0x88
10001ee4:	18fb      	adds	r3, r7, r3
10001ee6:	681b      	ldr	r3, [r3, #0]
10001ee8:	63bb      	str	r3, [r7, #56]	@ 0x38
10001eea:	6bfb      	ldr	r3, [r7, #60]	@ 0x3c
10001eec:	637b      	str	r3, [r7, #52]	@ 0x34
10001eee:	f3bf 8f5f 	dmb	sy
10001ef2:	46c0      	nop			@ (mov r8, r8)
10001ef4:	46c0      	nop			@ (mov r8, r8)
10001ef6:	6b7b      	ldr	r3, [r7, #52]	@ 0x34
10001ef8:	2200      	movs	r2, #0
10001efa:	601a      	str	r2, [r3, #0]
10001efc:	46c0      	nop			@ (mov r8, r8)
10001efe:	6bbb      	ldr	r3, [r7, #56]	@ 0x38
10001f00:	633b      	str	r3, [r7, #48]	@ 0x30
10001f02:	6b3b      	ldr	r3, [r7, #48]	@ 0x30
10001f04:	f383 8810 	msr	PRIMASK, r3
10001f08:	46c0      	nop			@ (mov r8, r8)
10001f0a:	46c0      	nop			@ (mov r8, r8)
10001f0c:	239f      	movs	r3, #159	@ 0x9f
10001f0e:	18fb      	adds	r3, r7, r3
10001f10:	2201      	movs	r2, #1
10001f12:	701a      	strb	r2, [r3, #0]
10001f14:	239f      	movs	r3, #159	@ 0x9f
10001f16:	18fb      	adds	r3, r7, r3
10001f18:	781b      	ldrb	r3, [r3, #0]
10001f1a:	2b00      	cmp	r3, #0
10001f1c:	d000      	beq.n	10001f20 <alarm_pool_alarm_callback+0x408>
10001f1e:	e606      	b.n	10001b2e <alarm_pool_alarm_callback+0x16>
10001f20:	46c0      	nop			@ (mov r8, r8)
10001f22:	46c0      	nop			@ (mov r8, r8)
10001f24:	46bd      	mov	sp, r7
10001f26:	b029      	add	sp, #164	@ 0xa4
10001f28:	bdf0      	pop	{r4, r5, r6, r7, pc}
10001f2a:	46c0      	nop			@ (mov r8, r8)

10001f2c <alarm_pool_post_alloc_init>:
10001f2c:	b580      	push	{r7, lr}
10001f2e:	b084      	sub	sp, #16
10001f30:	af00      	add	r7, sp, #0
10001f32:	6078      	str	r0, [r7, #4]
10001f34:	6039      	str	r1, [r7, #0]
10001f36:	683b      	ldr	r3, [r7, #0]
10001f38:	0018      	movs	r0, r3
10001f3a:	f000 fd9b 	bl	10002a74 <hardware_alarm_cancel>
10001f3e:	4a12      	ldr	r2, [pc, #72]	@ (10001f88 <alarm_pool_post_alloc_init+0x5c>)
10001f40:	683b      	ldr	r3, [r7, #0]
10001f42:	0011      	movs	r1, r2
10001f44:	0018      	movs	r0, r3
10001f46:	f000 fc19 	bl	1000277c <hardware_alarm_set_callback>
10001f4a:	f7fe fd29 	bl	100009a0 <next_striped_spin_lock_num>
10001f4e:	0003      	movs	r3, r0
10001f50:	60fb      	str	r3, [r7, #12]
10001f52:	68fb      	ldr	r3, [r7, #12]
10001f54:	4a0d      	ldr	r2, [pc, #52]	@ (10001f8c <alarm_pool_post_alloc_init+0x60>)
10001f56:	4694      	mov	ip, r2
10001f58:	4463      	add	r3, ip
10001f5a:	009b      	lsls	r3, r3, #2
10001f5c:	001a      	movs	r2, r3
10001f5e:	687b      	ldr	r3, [r7, #4]
10001f60:	605a      	str	r2, [r3, #4]
10001f62:	683b      	ldr	r3, [r7, #0]
10001f64:	b2da      	uxtb	r2, r3
10001f66:	687b      	ldr	r3, [r7, #4]
10001f68:	751a      	strb	r2, [r3, #20]
10001f6a:	23d0      	movs	r3, #208	@ 0xd0
10001f6c:	061b      	lsls	r3, r3, #24
10001f6e:	681b      	ldr	r3, [r3, #0]
10001f70:	b2da      	uxtb	r2, r3
10001f72:	687b      	ldr	r3, [r7, #4]
10001f74:	755a      	strb	r2, [r3, #21]
10001f76:	4b06      	ldr	r3, [pc, #24]	@ (10001f90 <alarm_pool_post_alloc_init+0x64>)
10001f78:	683a      	ldr	r2, [r7, #0]
10001f7a:	0092      	lsls	r2, r2, #2
10001f7c:	6879      	ldr	r1, [r7, #4]
10001f7e:	50d1      	str	r1, [r2, r3]
10001f80:	46c0      	nop			@ (mov r8, r8)
10001f82:	46bd      	mov	sp, r7
10001f84:	b004      	add	sp, #16
10001f86:	bd80      	pop	{r7, pc}
10001f88:	10001b19 	.word	0x10001b19
10001f8c:	34000040 	.word	0x34000040
10001f90:	2000078c 	.word	0x2000078c

10001f94 <alarm_pool_add_alarm_at>:
10001f94:	b5b0      	push	{r4, r5, r7, lr}
10001f96:	b09e      	sub	sp, #120	@ 0x78
10001f98:	af06      	add	r7, sp, #24
10001f9a:	6178      	str	r0, [r7, #20]
10001f9c:	60ba      	str	r2, [r7, #8]
10001f9e:	60fb      	str	r3, [r7, #12]
10001fa0:	231f      	movs	r3, #31
10001fa2:	18fb      	adds	r3, r7, r3
10001fa4:	2200      	movs	r2, #0
10001fa6:	701a      	strb	r2, [r3, #0]
10001fa8:	235b      	movs	r3, #91	@ 0x5b
10001faa:	18fb      	adds	r3, r7, r3
10001fac:	2200      	movs	r2, #0
10001fae:	701a      	strb	r2, [r3, #0]
10001fb0:	697b      	ldr	r3, [r7, #20]
10001fb2:	685b      	ldr	r3, [r3, #4]
10001fb4:	647b      	str	r3, [r7, #68]	@ 0x44
10001fb6:	f3ef 8310 	mrs	r3, PRIMASK
10001fba:	b672      	cpsid	i
10001fbc:	643b      	str	r3, [r7, #64]	@ 0x40
10001fbe:	6c3b      	ldr	r3, [r7, #64]	@ 0x40
10001fc0:	63fb      	str	r3, [r7, #60]	@ 0x3c
10001fc2:	6c7b      	ldr	r3, [r7, #68]	@ 0x44
10001fc4:	63bb      	str	r3, [r7, #56]	@ 0x38
10001fc6:	46c0      	nop			@ (mov r8, r8)
10001fc8:	6bbb      	ldr	r3, [r7, #56]	@ 0x38
10001fca:	681b      	ldr	r3, [r3, #0]
10001fcc:	425a      	negs	r2, r3
10001fce:	4153      	adcs	r3, r2
10001fd0:	b2db      	uxtb	r3, r3
10001fd2:	2b00      	cmp	r3, #0
10001fd4:	d1f8      	bne.n	10001fc8 <alarm_pool_add_alarm_at+0x34>
10001fd6:	f3bf 8f5f 	dmb	sy
10001fda:	46c0      	nop			@ (mov r8, r8)
10001fdc:	46c0      	nop			@ (mov r8, r8)
10001fde:	46c0      	nop			@ (mov r8, r8)
10001fe0:	6bfb      	ldr	r3, [r7, #60]	@ 0x3c
10001fe2:	657b      	str	r3, [r7, #84]	@ 0x54
10001fe4:	2553      	movs	r5, #83	@ 0x53
10001fe6:	197c      	adds	r4, r7, r5
10001fe8:	68ba      	ldr	r2, [r7, #8]
10001fea:	68fb      	ldr	r3, [r7, #12]
10001fec:	6978      	ldr	r0, [r7, #20]
10001fee:	211f      	movs	r1, #31
10001ff0:	1879      	adds	r1, r7, r1
10001ff2:	9104      	str	r1, [sp, #16]
10001ff4:	2100      	movs	r1, #0
10001ff6:	9103      	str	r1, [sp, #12]
10001ff8:	2100      	movs	r1, #0
10001ffa:	9102      	str	r1, [sp, #8]
10001ffc:	6f79      	ldr	r1, [r7, #116]	@ 0x74
10001ffe:	9101      	str	r1, [sp, #4]
10002000:	6f39      	ldr	r1, [r7, #112]	@ 0x70
10002002:	9100      	str	r1, [sp, #0]
10002004:	f7ff fcf4 	bl	100019f0 <add_alarm_under_lock>
10002008:	0003      	movs	r3, r0
1000200a:	7023      	strb	r3, [r4, #0]
1000200c:	197b      	adds	r3, r7, r5
1000200e:	781b      	ldrb	r3, [r3, #0]
10002010:	2b00      	cmp	r3, #0
10002012:	d00b      	beq.n	1000202c <alarm_pool_add_alarm_at+0x98>
10002014:	197b      	adds	r3, r7, r5
10002016:	781a      	ldrb	r2, [r3, #0]
10002018:	697b      	ldr	r3, [r7, #20]
1000201a:	0011      	movs	r1, r2
1000201c:	0018      	movs	r0, r3
1000201e:	f7ff fc31 	bl	10001884 <get_entry_id_high>
10002022:	0002      	movs	r2, r0
10002024:	235b      	movs	r3, #91	@ 0x5b
10002026:	18fb      	adds	r3, r7, r3
10002028:	7812      	ldrb	r2, [r2, #0]
1000202a:	701a      	strb	r2, [r3, #0]
1000202c:	697b      	ldr	r3, [r7, #20]
1000202e:	685b      	ldr	r3, [r3, #4]
10002030:	637b      	str	r3, [r7, #52]	@ 0x34
10002032:	6d7b      	ldr	r3, [r7, #84]	@ 0x54
10002034:	633b      	str	r3, [r7, #48]	@ 0x30
10002036:	6b7b      	ldr	r3, [r7, #52]	@ 0x34
10002038:	62fb      	str	r3, [r7, #44]	@ 0x2c
1000203a:	f3bf 8f5f 	dmb	sy
1000203e:	46c0      	nop			@ (mov r8, r8)
10002040:	46c0      	nop			@ (mov r8, r8)
10002042:	6afb      	ldr	r3, [r7, #44]	@ 0x2c
10002044:	2200      	movs	r2, #0
10002046:	601a      	str	r2, [r3, #0]
10002048:	46c0      	nop			@ (mov r8, r8)
1000204a:	6b3b      	ldr	r3, [r7, #48]	@ 0x30
1000204c:	62bb      	str	r3, [r7, #40]	@ 0x28
1000204e:	6abb      	ldr	r3, [r7, #40]	@ 0x28
10002050:	f383 8810 	msr	PRIMASK, r3
10002054:	46c0      	nop			@ (mov r8, r8)
10002056:	46c0      	nop			@ (mov r8, r8)
10002058:	2353      	movs	r3, #83	@ 0x53
1000205a:	18fb      	adds	r3, r7, r3
1000205c:	781b      	ldrb	r3, [r3, #0]
1000205e:	2b00      	cmp	r3, #0
10002060:	d102      	bne.n	10002068 <alarm_pool_add_alarm_at+0xd4>
10002062:	2301      	movs	r3, #1
10002064:	425b      	negs	r3, r3
10002066:	e05a      	b.n	1000211e <alarm_pool_add_alarm_at+0x18a>
10002068:	231f      	movs	r3, #31
1000206a:	18fb      	adds	r3, r7, r3
1000206c:	781b      	ldrb	r3, [r3, #0]
1000206e:	2b00      	cmp	r3, #0
10002070:	d10b      	bne.n	1000208a <alarm_pool_add_alarm_at+0xf6>
10002072:	2353      	movs	r3, #83	@ 0x53
10002074:	18fb      	adds	r3, r7, r3
10002076:	781a      	ldrb	r2, [r3, #0]
10002078:	235b      	movs	r3, #91	@ 0x5b
1000207a:	18fb      	adds	r3, r7, r3
1000207c:	781b      	ldrb	r3, [r3, #0]
1000207e:	0011      	movs	r1, r2
10002080:	0018      	movs	r0, r3
10002082:	f7ff fc62 	bl	1000194a <make_public_id>
10002086:	0003      	movs	r3, r0
10002088:	e000      	b.n	1000208c <alarm_pool_add_alarm_at+0xf8>
1000208a:	2300      	movs	r3, #0
1000208c:	65fb      	str	r3, [r7, #92]	@ 0x5c
1000208e:	231f      	movs	r3, #31
10002090:	18fb      	adds	r3, r7, r3
10002092:	781b      	ldrb	r3, [r3, #0]
10002094:	2b00      	cmp	r3, #0
10002096:	d041      	beq.n	1000211c <alarm_pool_add_alarm_at+0x188>
10002098:	2378      	movs	r3, #120	@ 0x78
1000209a:	18fb      	adds	r3, r7, r3
1000209c:	781b      	ldrb	r3, [r3, #0]
1000209e:	2b00      	cmp	r3, #0
100020a0:	d03c      	beq.n	1000211c <alarm_pool_add_alarm_at+0x188>
100020a2:	6f79      	ldr	r1, [r7, #116]	@ 0x74
100020a4:	6dfa      	ldr	r2, [r7, #92]	@ 0x5c
100020a6:	6f3b      	ldr	r3, [r7, #112]	@ 0x70
100020a8:	0010      	movs	r0, r2
100020aa:	4798      	blx	r3
100020ac:	0002      	movs	r2, r0
100020ae:	000b      	movs	r3, r1
100020b0:	64ba      	str	r2, [r7, #72]	@ 0x48
100020b2:	64fb      	str	r3, [r7, #76]	@ 0x4c
100020b4:	6cbb      	ldr	r3, [r7, #72]	@ 0x48
100020b6:	6cfa      	ldr	r2, [r7, #76]	@ 0x4c
100020b8:	4313      	orrs	r3, r2
100020ba:	d102      	bne.n	100020c2 <alarm_pool_add_alarm_at+0x12e>
100020bc:	2300      	movs	r3, #0
100020be:	65fb      	str	r3, [r7, #92]	@ 0x5c
100020c0:	e02c      	b.n	1000211c <alarm_pool_add_alarm_at+0x188>
100020c2:	6cfb      	ldr	r3, [r7, #76]	@ 0x4c
100020c4:	2b00      	cmp	r3, #0
100020c6:	da13      	bge.n	100020f0 <alarm_pool_add_alarm_at+0x15c>
100020c8:	6cba      	ldr	r2, [r7, #72]	@ 0x48
100020ca:	6cfb      	ldr	r3, [r7, #76]	@ 0x4c
100020cc:	2000      	movs	r0, #0
100020ce:	2100      	movs	r1, #0
100020d0:	1a80      	subs	r0, r0, r2
100020d2:	4199      	sbcs	r1, r3
100020d4:	0002      	movs	r2, r0
100020d6:	000b      	movs	r3, r1
100020d8:	0010      	movs	r0, r2
100020da:	0019      	movs	r1, r3
100020dc:	2308      	movs	r3, #8
100020de:	18fc      	adds	r4, r7, r3
100020e0:	68ba      	ldr	r2, [r7, #8]
100020e2:	68fb      	ldr	r3, [r7, #12]
100020e4:	9000      	str	r0, [sp, #0]
100020e6:	9101      	str	r1, [sp, #4]
100020e8:	0020      	movs	r0, r4
100020ea:	f7ff f93f 	bl	1000136c <delayed_by_us>
100020ee:	e75b      	b.n	10001fa8 <alarm_pool_add_alarm_at+0x14>
100020f0:	2320      	movs	r3, #32
100020f2:	18fb      	adds	r3, r7, r3
100020f4:	0018      	movs	r0, r3
100020f6:	f7ff f923 	bl	10001340 <get_absolute_time>
100020fa:	6cba      	ldr	r2, [r7, #72]	@ 0x48
100020fc:	6cfb      	ldr	r3, [r7, #76]	@ 0x4c
100020fe:	003c      	movs	r4, r7
10002100:	6a38      	ldr	r0, [r7, #32]
10002102:	6a79      	ldr	r1, [r7, #36]	@ 0x24
10002104:	9200      	str	r2, [sp, #0]
10002106:	9301      	str	r3, [sp, #4]
10002108:	0002      	movs	r2, r0
1000210a:	000b      	movs	r3, r1
1000210c:	0020      	movs	r0, r4
1000210e:	f7ff f92d 	bl	1000136c <delayed_by_us>
10002112:	683a      	ldr	r2, [r7, #0]
10002114:	687b      	ldr	r3, [r7, #4]
10002116:	60ba      	str	r2, [r7, #8]
10002118:	60fb      	str	r3, [r7, #12]
1000211a:	e745      	b.n	10001fa8 <alarm_pool_add_alarm_at+0x14>
1000211c:	6dfb      	ldr	r3, [r7, #92]	@ 0x5c
1000211e:	0018      	movs	r0, r3
10002120:	46bd      	mov	sp, r7
10002122:	b018      	add	sp, #96	@ 0x60
10002124:	bdb0      	pop	{r4, r5, r7, pc}
	...

10002128 <alarm_pool_cancel_alarm>:
10002128:	b5f0      	push	{r4, r5, r6, r7, lr}
1000212a:	b08f      	sub	sp, #60	@ 0x3c
1000212c:	af00      	add	r7, sp, #0
1000212e:	6078      	str	r0, [r7, #4]
10002130:	6039      	str	r1, [r7, #0]
10002132:	683b      	ldr	r3, [r7, #0]
10002134:	2b00      	cmp	r3, #0
10002136:	d101      	bne.n	1000213c <alarm_pool_cancel_alarm+0x14>
10002138:	2300      	movs	r3, #0
1000213a:	e082      	b.n	10002242 <alarm_pool_cancel_alarm+0x11a>
1000213c:	2337      	movs	r3, #55	@ 0x37
1000213e:	18fb      	adds	r3, r7, r3
10002140:	2200      	movs	r2, #0
10002142:	701a      	strb	r2, [r3, #0]
10002144:	687b      	ldr	r3, [r7, #4]
10002146:	685b      	ldr	r3, [r3, #4]
10002148:	62bb      	str	r3, [r7, #40]	@ 0x28
1000214a:	f3ef 8310 	mrs	r3, PRIMASK
1000214e:	b672      	cpsid	i
10002150:	627b      	str	r3, [r7, #36]	@ 0x24
10002152:	6a7b      	ldr	r3, [r7, #36]	@ 0x24
10002154:	623b      	str	r3, [r7, #32]
10002156:	6abb      	ldr	r3, [r7, #40]	@ 0x28
10002158:	61fb      	str	r3, [r7, #28]
1000215a:	46c0      	nop			@ (mov r8, r8)
1000215c:	69fb      	ldr	r3, [r7, #28]
1000215e:	681b      	ldr	r3, [r3, #0]
10002160:	425a      	negs	r2, r3
10002162:	4153      	adcs	r3, r2
10002164:	b2db      	uxtb	r3, r3
10002166:	2b00      	cmp	r3, #0
10002168:	d1f8      	bne.n	1000215c <alarm_pool_cancel_alarm+0x34>
1000216a:	f3bf 8f5f 	dmb	sy
1000216e:	46c0      	nop			@ (mov r8, r8)
10002170:	46c0      	nop			@ (mov r8, r8)
10002172:	46c0      	nop			@ (mov r8, r8)
10002174:	6a3b      	ldr	r3, [r7, #32]
10002176:	633b      	str	r3, [r7, #48]	@ 0x30
10002178:	212f      	movs	r1, #47	@ 0x2f
1000217a:	187b      	adds	r3, r7, r1
1000217c:	683a      	ldr	r2, [r7, #0]
1000217e:	701a      	strb	r2, [r3, #0]
10002180:	687b      	ldr	r3, [r7, #4]
10002182:	681a      	ldr	r2, [r3, #0]
10002184:	187b      	adds	r3, r7, r1
10002186:	781b      	ldrb	r3, [r3, #0]
10002188:	0019      	movs	r1, r3
1000218a:	0010      	movs	r0, r2
1000218c:	f7ff fad0 	bl	10001730 <ph_contains_node>
10002190:	1e03      	subs	r3, r0, #0
10002192:	d035      	beq.n	10002200 <alarm_pool_cancel_alarm+0xd8>
10002194:	687b      	ldr	r3, [r7, #4]
10002196:	691b      	ldr	r3, [r3, #16]
10002198:	683a      	ldr	r2, [r7, #0]
1000219a:	429a      	cmp	r2, r3
1000219c:	d106      	bne.n	100021ac <alarm_pool_cancel_alarm+0x84>
1000219e:	4b2b      	ldr	r3, [pc, #172]	@ (1000224c <alarm_pool_cancel_alarm+0x124>)
100021a0:	4a2b      	ldr	r2, [pc, #172]	@ (10002250 <alarm_pool_cancel_alarm+0x128>)
100021a2:	212c      	movs	r1, #44	@ 0x2c
100021a4:	31ff      	adds	r1, #255	@ 0xff
100021a6:	482b      	ldr	r0, [pc, #172]	@ (10002254 <alarm_pool_cancel_alarm+0x12c>)
100021a8:	f001 fde6 	bl	10003d78 <__assert_func>
100021ac:	683b      	ldr	r3, [r7, #0]
100021ae:	0a1a      	lsrs	r2, r3, #8
100021b0:	242e      	movs	r4, #46	@ 0x2e
100021b2:	193b      	adds	r3, r7, r4
100021b4:	701a      	strb	r2, [r3, #0]
100021b6:	252f      	movs	r5, #47	@ 0x2f
100021b8:	197b      	adds	r3, r7, r5
100021ba:	781a      	ldrb	r2, [r3, #0]
100021bc:	687b      	ldr	r3, [r7, #4]
100021be:	0011      	movs	r1, r2
100021c0:	0018      	movs	r0, r3
100021c2:	f7ff fb5f 	bl	10001884 <get_entry_id_high>
100021c6:	0003      	movs	r3, r0
100021c8:	781b      	ldrb	r3, [r3, #0]
100021ca:	193a      	adds	r2, r7, r4
100021cc:	7812      	ldrb	r2, [r2, #0]
100021ce:	429a      	cmp	r2, r3
100021d0:	d11e      	bne.n	10002210 <alarm_pool_cancel_alarm+0xe8>
100021d2:	687b      	ldr	r3, [r7, #4]
100021d4:	681a      	ldr	r2, [r3, #0]
100021d6:	2637      	movs	r6, #55	@ 0x37
100021d8:	19bc      	adds	r4, r7, r6
100021da:	197b      	adds	r3, r7, r5
100021dc:	781b      	ldrb	r3, [r3, #0]
100021de:	0019      	movs	r1, r3
100021e0:	0010      	movs	r0, r2
100021e2:	f000 ff05 	bl	10002ff0 <ph_remove_and_free_node>
100021e6:	0003      	movs	r3, r0
100021e8:	7023      	strb	r3, [r4, #0]
100021ea:	19bb      	adds	r3, r7, r6
100021ec:	781b      	ldrb	r3, [r3, #0]
100021ee:	2b00      	cmp	r3, #0
100021f0:	d10e      	bne.n	10002210 <alarm_pool_cancel_alarm+0xe8>
100021f2:	4b19      	ldr	r3, [pc, #100]	@ (10002258 <alarm_pool_cancel_alarm+0x130>)
100021f4:	4a16      	ldr	r2, [pc, #88]	@ (10002250 <alarm_pool_cancel_alarm+0x128>)
100021f6:	2199      	movs	r1, #153	@ 0x99
100021f8:	0049      	lsls	r1, r1, #1
100021fa:	4816      	ldr	r0, [pc, #88]	@ (10002254 <alarm_pool_cancel_alarm+0x12c>)
100021fc:	f001 fdbc 	bl	10003d78 <__assert_func>
10002200:	687b      	ldr	r3, [r7, #4]
10002202:	691b      	ldr	r3, [r3, #16]
10002204:	683a      	ldr	r2, [r7, #0]
10002206:	429a      	cmp	r2, r3
10002208:	d102      	bne.n	10002210 <alarm_pool_cancel_alarm+0xe8>
1000220a:	687b      	ldr	r3, [r7, #4]
1000220c:	2200      	movs	r2, #0
1000220e:	611a      	str	r2, [r3, #16]
10002210:	687b      	ldr	r3, [r7, #4]
10002212:	685b      	ldr	r3, [r3, #4]
10002214:	61bb      	str	r3, [r7, #24]
10002216:	6b3b      	ldr	r3, [r7, #48]	@ 0x30
10002218:	617b      	str	r3, [r7, #20]
1000221a:	69bb      	ldr	r3, [r7, #24]
1000221c:	613b      	str	r3, [r7, #16]
1000221e:	f3bf 8f5f 	dmb	sy
10002222:	46c0      	nop			@ (mov r8, r8)
10002224:	46c0      	nop			@ (mov r8, r8)
10002226:	693b      	ldr	r3, [r7, #16]
10002228:	2200      	movs	r2, #0
1000222a:	601a      	str	r2, [r3, #0]
1000222c:	46c0      	nop			@ (mov r8, r8)
1000222e:	697b      	ldr	r3, [r7, #20]
10002230:	60fb      	str	r3, [r7, #12]
10002232:	68fb      	ldr	r3, [r7, #12]
10002234:	f383 8810 	msr	PRIMASK, r3
10002238:	46c0      	nop			@ (mov r8, r8)
1000223a:	46c0      	nop			@ (mov r8, r8)
1000223c:	2337      	movs	r3, #55	@ 0x37
1000223e:	18fb      	adds	r3, r7, r3
10002240:	781b      	ldrb	r3, [r3, #0]
10002242:	0018      	movs	r0, r3
10002244:	46bd      	mov	sp, r7
10002246:	b00f      	add	sp, #60	@ 0x3c
10002248:	bdf0      	pop	{r4, r5, r6, r7, pc}
1000224a:	46c0      	nop			@ (mov r8, r8)
1000224c:	100099f4 	.word	0x100099f4
10002250:	10009b54 	.word	0x10009b54
10002254:	100098e0 	.word	0x100098e0
10002258:	10009a18 	.word	0x10009a18

1000225c <repeating_timer_callback>:
1000225c:	b580      	push	{r7, lr}
1000225e:	b084      	sub	sp, #16
10002260:	af00      	add	r7, sp, #0
10002262:	6078      	str	r0, [r7, #4]
10002264:	6039      	str	r1, [r7, #0]
10002266:	683b      	ldr	r3, [r7, #0]
10002268:	60fb      	str	r3, [r7, #12]
1000226a:	68fb      	ldr	r3, [r7, #12]
1000226c:	68db      	ldr	r3, [r3, #12]
1000226e:	687a      	ldr	r2, [r7, #4]
10002270:	429a      	cmp	r2, r3
10002272:	d006      	beq.n	10002282 <repeating_timer_callback+0x26>
10002274:	4b0d      	ldr	r3, [pc, #52]	@ (100022ac <repeating_timer_callback+0x50>)
10002276:	4a0e      	ldr	r2, [pc, #56]	@ (100022b0 <repeating_timer_callback+0x54>)
10002278:	2152      	movs	r1, #82	@ 0x52
1000227a:	31ff      	adds	r1, #255	@ 0xff
1000227c:	480d      	ldr	r0, [pc, #52]	@ (100022b4 <repeating_timer_callback+0x58>)
1000227e:	f001 fd7b 	bl	10003d78 <__assert_func>
10002282:	68fb      	ldr	r3, [r7, #12]
10002284:	691b      	ldr	r3, [r3, #16]
10002286:	68fa      	ldr	r2, [r7, #12]
10002288:	0010      	movs	r0, r2
1000228a:	4798      	blx	r3
1000228c:	1e03      	subs	r3, r0, #0
1000228e:	d003      	beq.n	10002298 <repeating_timer_callback+0x3c>
10002290:	68fb      	ldr	r3, [r7, #12]
10002292:	681a      	ldr	r2, [r3, #0]
10002294:	685b      	ldr	r3, [r3, #4]
10002296:	e004      	b.n	100022a2 <repeating_timer_callback+0x46>
10002298:	68fb      	ldr	r3, [r7, #12]
1000229a:	2200      	movs	r2, #0
1000229c:	60da      	str	r2, [r3, #12]
1000229e:	2200      	movs	r2, #0
100022a0:	2300      	movs	r3, #0
100022a2:	0010      	movs	r0, r2
100022a4:	0019      	movs	r1, r3
100022a6:	46bd      	mov	sp, r7
100022a8:	b004      	add	sp, #16
100022aa:	bd80      	pop	{r7, pc}
100022ac:	10009a2c 	.word	0x10009a2c
100022b0:	10009b6c 	.word	0x10009b6c
100022b4:	100098e0 	.word	0x100098e0

100022b8 <alarm_pool_add_repeating_timer_us>:
100022b8:	b580      	push	{r7, lr}
100022ba:	b08a      	sub	sp, #40	@ 0x28
100022bc:	af04      	add	r7, sp, #16
100022be:	60f8      	str	r0, [r7, #12]
100022c0:	603a      	str	r2, [r7, #0]
100022c2:	607b      	str	r3, [r7, #4]
100022c4:	683b      	ldr	r3, [r7, #0]
100022c6:	687a      	ldr	r2, [r7, #4]
100022c8:	4313      	orrs	r3, r2
100022ca:	d103      	bne.n	100022d4 <alarm_pool_add_repeating_timer_us+0x1c>
100022cc:	2201      	movs	r2, #1
100022ce:	2300      	movs	r3, #0
100022d0:	603a      	str	r2, [r7, #0]
100022d2:	607b      	str	r3, [r7, #4]
100022d4:	6abb      	ldr	r3, [r7, #40]	@ 0x28
100022d6:	68fa      	ldr	r2, [r7, #12]
100022d8:	609a      	str	r2, [r3, #8]
100022da:	6abb      	ldr	r3, [r7, #40]	@ 0x28
100022dc:	6a3a      	ldr	r2, [r7, #32]
100022de:	611a      	str	r2, [r3, #16]
100022e0:	6ab9      	ldr	r1, [r7, #40]	@ 0x28
100022e2:	683a      	ldr	r2, [r7, #0]
100022e4:	687b      	ldr	r3, [r7, #4]
100022e6:	600a      	str	r2, [r1, #0]
100022e8:	604b      	str	r3, [r1, #4]
100022ea:	6abb      	ldr	r3, [r7, #40]	@ 0x28
100022ec:	6a7a      	ldr	r2, [r7, #36]	@ 0x24
100022ee:	615a      	str	r2, [r3, #20]
100022f0:	683a      	ldr	r2, [r7, #0]
100022f2:	687b      	ldr	r3, [r7, #4]
100022f4:	2b00      	cmp	r3, #0
100022f6:	da05      	bge.n	10002304 <alarm_pool_add_repeating_timer_us+0x4c>
100022f8:	2000      	movs	r0, #0
100022fa:	2100      	movs	r1, #0
100022fc:	1a80      	subs	r0, r0, r2
100022fe:	4199      	sbcs	r1, r3
10002300:	0002      	movs	r2, r0
10002302:	000b      	movs	r3, r1
10002304:	2110      	movs	r1, #16
10002306:	1879      	adds	r1, r7, r1
10002308:	0008      	movs	r0, r1
1000230a:	f7ff f863 	bl	100013d4 <make_timeout_time_us>
1000230e:	693a      	ldr	r2, [r7, #16]
10002310:	697b      	ldr	r3, [r7, #20]
10002312:	68f8      	ldr	r0, [r7, #12]
10002314:	2101      	movs	r1, #1
10002316:	9102      	str	r1, [sp, #8]
10002318:	6ab9      	ldr	r1, [r7, #40]	@ 0x28
1000231a:	9101      	str	r1, [sp, #4]
1000231c:	4907      	ldr	r1, [pc, #28]	@ (1000233c <alarm_pool_add_repeating_timer_us+0x84>)
1000231e:	9100      	str	r1, [sp, #0]
10002320:	f7ff fe38 	bl	10001f94 <alarm_pool_add_alarm_at>
10002324:	0002      	movs	r2, r0
10002326:	6abb      	ldr	r3, [r7, #40]	@ 0x28
10002328:	60da      	str	r2, [r3, #12]
1000232a:	6abb      	ldr	r3, [r7, #40]	@ 0x28
1000232c:	68db      	ldr	r3, [r3, #12]
1000232e:	43db      	mvns	r3, r3
10002330:	0fdb      	lsrs	r3, r3, #31
10002332:	b2db      	uxtb	r3, r3
10002334:	0018      	movs	r0, r3
10002336:	46bd      	mov	sp, r7
10002338:	b006      	add	sp, #24
1000233a:	bd80      	pop	{r7, pc}
1000233c:	1000225d 	.word	0x1000225d

10002340 <sleep_until_callback>:
10002340:	b580      	push	{r7, lr}
10002342:	b08c      	sub	sp, #48	@ 0x30
10002344:	af00      	add	r7, sp, #0
10002346:	6078      	str	r0, [r7, #4]
10002348:	6039      	str	r1, [r7, #0]
1000234a:	4b1c      	ldr	r3, [pc, #112]	@ (100023bc <sleep_until_callback+0x7c>)
1000234c:	681b      	ldr	r3, [r3, #0]
1000234e:	61bb      	str	r3, [r7, #24]
10002350:	f3ef 8310 	mrs	r3, PRIMASK
10002354:	b672      	cpsid	i
10002356:	617b      	str	r3, [r7, #20]
10002358:	697b      	ldr	r3, [r7, #20]
1000235a:	613b      	str	r3, [r7, #16]
1000235c:	69bb      	ldr	r3, [r7, #24]
1000235e:	60fb      	str	r3, [r7, #12]
10002360:	46c0      	nop			@ (mov r8, r8)
10002362:	68fb      	ldr	r3, [r7, #12]
10002364:	681b      	ldr	r3, [r3, #0]
10002366:	425a      	negs	r2, r3
10002368:	4153      	adcs	r3, r2
1000236a:	b2db      	uxtb	r3, r3
1000236c:	2b00      	cmp	r3, #0
1000236e:	d1f8      	bne.n	10002362 <sleep_until_callback+0x22>
10002370:	f3bf 8f5f 	dmb	sy
10002374:	46c0      	nop			@ (mov r8, r8)
10002376:	46c0      	nop			@ (mov r8, r8)
10002378:	46c0      	nop			@ (mov r8, r8)
1000237a:	693b      	ldr	r3, [r7, #16]
1000237c:	62fb      	str	r3, [r7, #44]	@ 0x2c
1000237e:	4b0f      	ldr	r3, [pc, #60]	@ (100023bc <sleep_until_callback+0x7c>)
10002380:	681b      	ldr	r3, [r3, #0]
10002382:	62bb      	str	r3, [r7, #40]	@ 0x28
10002384:	6afb      	ldr	r3, [r7, #44]	@ 0x2c
10002386:	627b      	str	r3, [r7, #36]	@ 0x24
10002388:	6abb      	ldr	r3, [r7, #40]	@ 0x28
1000238a:	623b      	str	r3, [r7, #32]
1000238c:	f3bf 8f5f 	dmb	sy
10002390:	46c0      	nop			@ (mov r8, r8)
10002392:	46c0      	nop			@ (mov r8, r8)
10002394:	6a3b      	ldr	r3, [r7, #32]
10002396:	2200      	movs	r2, #0
10002398:	601a      	str	r2, [r3, #0]
1000239a:	46c0      	nop			@ (mov r8, r8)
1000239c:	6a7b      	ldr	r3, [r7, #36]	@ 0x24
1000239e:	61fb      	str	r3, [r7, #28]
100023a0:	69fb      	ldr	r3, [r7, #28]
100023a2:	f383 8810 	msr	PRIMASK, r3
100023a6:	46c0      	nop			@ (mov r8, r8)
100023a8:	46c0      	nop			@ (mov r8, r8)
100023aa:	bf40      	sev
100023ac:	46c0      	nop			@ (mov r8, r8)
100023ae:	2200      	movs	r2, #0
100023b0:	2300      	movs	r3, #0
100023b2:	0010      	movs	r0, r2
100023b4:	0019      	movs	r1, r3
100023b6:	46bd      	mov	sp, r7
100023b8:	b00c      	add	sp, #48	@ 0x30
100023ba:	bd80      	pop	{r7, pc}
100023bc:	200009a0 	.word	0x200009a0

100023c0 <best_effort_wfe_or_timeout>:
100023c0:	b580      	push	{r7, lr}
100023c2:	b086      	sub	sp, #24
100023c4:	af02      	add	r7, sp, #8
100023c6:	6038      	str	r0, [r7, #0]
100023c8:	6079      	str	r1, [r7, #4]
100023ca:	f3ef 8305 	mrs	r3, IPSR
100023ce:	60bb      	str	r3, [r7, #8]
100023d0:	68bb      	ldr	r3, [r7, #8]
100023d2:	2b00      	cmp	r3, #0
100023d4:	d008      	beq.n	100023e8 <best_effort_wfe_or_timeout+0x28>
100023d6:	46c0      	nop			@ (mov r8, r8)
100023d8:	683a      	ldr	r2, [r7, #0]
100023da:	687b      	ldr	r3, [r7, #4]
100023dc:	0010      	movs	r0, r2
100023de:	0019      	movs	r1, r3
100023e0:	f7fe ff7c 	bl	100012dc <time_reached>
100023e4:	0003      	movs	r3, r0
100023e6:	e022      	b.n	1000242e <best_effort_wfe_or_timeout+0x6e>
100023e8:	4a13      	ldr	r2, [pc, #76]	@ (10002438 <best_effort_wfe_or_timeout+0x78>)
100023ea:	6838      	ldr	r0, [r7, #0]
100023ec:	6879      	ldr	r1, [r7, #4]
100023ee:	2300      	movs	r3, #0
100023f0:	9300      	str	r3, [sp, #0]
100023f2:	2300      	movs	r3, #0
100023f4:	f7ff f829 	bl	1000144a <add_alarm_at>
100023f8:	0003      	movs	r3, r0
100023fa:	60fb      	str	r3, [r7, #12]
100023fc:	68fb      	ldr	r3, [r7, #12]
100023fe:	2b00      	cmp	r3, #0
10002400:	dc08      	bgt.n	10002414 <best_effort_wfe_or_timeout+0x54>
10002402:	46c0      	nop			@ (mov r8, r8)
10002404:	683a      	ldr	r2, [r7, #0]
10002406:	687b      	ldr	r3, [r7, #4]
10002408:	0010      	movs	r0, r2
1000240a:	0019      	movs	r1, r3
1000240c:	f7fe ff66 	bl	100012dc <time_reached>
10002410:	0003      	movs	r3, r0
10002412:	e00c      	b.n	1000242e <best_effort_wfe_or_timeout+0x6e>
10002414:	bf20      	wfe
10002416:	46c0      	nop			@ (mov r8, r8)
10002418:	68fb      	ldr	r3, [r7, #12]
1000241a:	0018      	movs	r0, r3
1000241c:	f7ff f82f 	bl	1000147e <cancel_alarm>
10002420:	683a      	ldr	r2, [r7, #0]
10002422:	687b      	ldr	r3, [r7, #4]
10002424:	0010      	movs	r0, r2
10002426:	0019      	movs	r1, r3
10002428:	f7fe ff58 	bl	100012dc <time_reached>
1000242c:	0003      	movs	r3, r0
1000242e:	0018      	movs	r0, r3
10002430:	46bd      	mov	sp, r7
10002432:	b004      	add	sp, #16
10002434:	bd80      	pop	{r7, pc}
10002436:	46c0      	nop			@ (mov r8, r8)
10002438:	10002341 	.word	0x10002341

1000243c <to_us_since_boot>:
1000243c:	b580      	push	{r7, lr}
1000243e:	b082      	sub	sp, #8
10002440:	af00      	add	r7, sp, #0
10002442:	6038      	str	r0, [r7, #0]
10002444:	6079      	str	r1, [r7, #4]
10002446:	683a      	ldr	r2, [r7, #0]
10002448:	687b      	ldr	r3, [r7, #4]
1000244a:	0010      	movs	r0, r2
1000244c:	0019      	movs	r1, r3
1000244e:	46bd      	mov	sp, r7
10002450:	b002      	add	sp, #8
10002452:	bd80      	pop	{r7, pc}

10002454 <update_us_since_boot>:
10002454:	b580      	push	{r7, lr}
10002456:	b084      	sub	sp, #16
10002458:	af00      	add	r7, sp, #0
1000245a:	60f8      	str	r0, [r7, #12]
1000245c:	603a      	str	r2, [r7, #0]
1000245e:	607b      	str	r3, [r7, #4]
10002460:	683a      	ldr	r2, [r7, #0]
10002462:	687b      	ldr	r3, [r7, #4]
10002464:	2b00      	cmp	r3, #0
10002466:	da05      	bge.n	10002474 <update_us_since_boot+0x20>
10002468:	4b07      	ldr	r3, [pc, #28]	@ (10002488 <update_us_since_boot+0x34>)
1000246a:	4a08      	ldr	r2, [pc, #32]	@ (1000248c <update_us_since_boot+0x38>)
1000246c:	4808      	ldr	r0, [pc, #32]	@ (10002490 <update_us_since_boot+0x3c>)
1000246e:	213f      	movs	r1, #63	@ 0x3f
10002470:	f001 fc82 	bl	10003d78 <__assert_func>
10002474:	68f9      	ldr	r1, [r7, #12]
10002476:	683a      	ldr	r2, [r7, #0]
10002478:	687b      	ldr	r3, [r7, #4]
1000247a:	600a      	str	r2, [r1, #0]
1000247c:	604b      	str	r3, [r1, #4]
1000247e:	46c0      	nop			@ (mov r8, r8)
10002480:	46bd      	mov	sp, r7
10002482:	b004      	add	sp, #16
10002484:	bd80      	pop	{r7, pc}
10002486:	46c0      	nop			@ (mov r8, r8)
10002488:	10009b88 	.word	0x10009b88
1000248c:	10009c8c 	.word	0x10009c8c
10002490:	10009ba4 	.word	0x10009ba4

10002494 <check_hardware_alarm_num_param>:
10002494:	b580      	push	{r7, lr}
10002496:	b082      	sub	sp, #8
10002498:	af00      	add	r7, sp, #0
1000249a:	6078      	str	r0, [r7, #4]
1000249c:	46c0      	nop			@ (mov r8, r8)
1000249e:	46bd      	mov	sp, r7
100024a0:	b002      	add	sp, #8
100024a2:	bd80      	pop	{r7, pc}

100024a4 <irq_clear>:
100024a4:	b580      	push	{r7, lr}
100024a6:	b082      	sub	sp, #8
100024a8:	af00      	add	r7, sp, #0
100024aa:	6078      	str	r0, [r7, #4]
100024ac:	687b      	ldr	r3, [r7, #4]
100024ae:	221f      	movs	r2, #31
100024b0:	401a      	ands	r2, r3
100024b2:	4b04      	ldr	r3, [pc, #16]	@ (100024c4 <irq_clear+0x20>)
100024b4:	2101      	movs	r1, #1
100024b6:	4091      	lsls	r1, r2
100024b8:	000a      	movs	r2, r1
100024ba:	601a      	str	r2, [r3, #0]
100024bc:	46c0      	nop			@ (mov r8, r8)
100024be:	46bd      	mov	sp, r7
100024c0:	b002      	add	sp, #8
100024c2:	bd80      	pop	{r7, pc}
100024c4:	e000e280 	.word	0xe000e280

100024c8 <hardware_alarm_claim>:
100024c8:	b580      	push	{r7, lr}
100024ca:	b082      	sub	sp, #8
100024cc:	af00      	add	r7, sp, #0
100024ce:	6078      	str	r0, [r7, #4]
100024d0:	687b      	ldr	r3, [r7, #4]
100024d2:	0018      	movs	r0, r3
100024d4:	f7ff ffde 	bl	10002494 <check_hardware_alarm_num_param>
100024d8:	4a04      	ldr	r2, [pc, #16]	@ (100024ec <hardware_alarm_claim+0x24>)
100024da:	6879      	ldr	r1, [r7, #4]
100024dc:	4b04      	ldr	r3, [pc, #16]	@ (100024f0 <hardware_alarm_claim+0x28>)
100024de:	0018      	movs	r0, r3
100024e0:	f7fe fa07 	bl	100008f2 <hw_claim_or_assert>
100024e4:	46c0      	nop			@ (mov r8, r8)
100024e6:	46bd      	mov	sp, r7
100024e8:	b002      	add	sp, #8
100024ea:	bd80      	pop	{r7, pc}
100024ec:	10009bec 	.word	0x10009bec
100024f0:	20000ae4 	.word	0x20000ae4

100024f4 <time_us_64>:
100024f4:	b5f0      	push	{r4, r5, r6, r7, lr}
100024f6:	b087      	sub	sp, #28
100024f8:	af00      	add	r7, sp, #0
100024fa:	4e15      	ldr	r6, [pc, #84]	@ (10002550 <time_us_64+0x5c>)
100024fc:	6a76      	ldr	r6, [r6, #36]	@ 0x24
100024fe:	617e      	str	r6, [r7, #20]
10002500:	4e13      	ldr	r6, [pc, #76]	@ (10002550 <time_us_64+0x5c>)
10002502:	6ab6      	ldr	r6, [r6, #40]	@ 0x28
10002504:	613e      	str	r6, [r7, #16]
10002506:	4e12      	ldr	r6, [pc, #72]	@ (10002550 <time_us_64+0x5c>)
10002508:	6a76      	ldr	r6, [r6, #36]	@ 0x24
1000250a:	60fe      	str	r6, [r7, #12]
1000250c:	697e      	ldr	r6, [r7, #20]
1000250e:	46b4      	mov	ip, r6
10002510:	68fe      	ldr	r6, [r7, #12]
10002512:	45b4      	cmp	ip, r6
10002514:	d002      	beq.n	1000251c <time_us_64+0x28>
10002516:	68fe      	ldr	r6, [r7, #12]
10002518:	617e      	str	r6, [r7, #20]
1000251a:	e7f1      	b.n	10002500 <time_us_64+0xc>
1000251c:	46c0      	nop			@ (mov r8, r8)
1000251e:	697e      	ldr	r6, [r7, #20]
10002520:	603e      	str	r6, [r7, #0]
10002522:	2600      	movs	r6, #0
10002524:	607e      	str	r6, [r7, #4]
10002526:	683e      	ldr	r6, [r7, #0]
10002528:	0033      	movs	r3, r6
1000252a:	2600      	movs	r6, #0
1000252c:	0032      	movs	r2, r6
1000252e:	693e      	ldr	r6, [r7, #16]
10002530:	0030      	movs	r0, r6
10002532:	2600      	movs	r6, #0
10002534:	0031      	movs	r1, r6
10002536:	0016      	movs	r6, r2
10002538:	4306      	orrs	r6, r0
1000253a:	0034      	movs	r4, r6
1000253c:	430b      	orrs	r3, r1
1000253e:	001d      	movs	r5, r3
10002540:	0022      	movs	r2, r4
10002542:	002b      	movs	r3, r5
10002544:	0010      	movs	r0, r2
10002546:	0019      	movs	r1, r3
10002548:	46bd      	mov	sp, r7
1000254a:	b007      	add	sp, #28
1000254c:	bdf0      	pop	{r4, r5, r6, r7, pc}
1000254e:	46c0      	nop			@ (mov r8, r8)
10002550:	40054000 	.word	0x40054000

10002554 <busy_wait_us>:
10002554:	b580      	push	{r7, lr}
10002556:	b088      	sub	sp, #32
10002558:	af00      	add	r7, sp, #0
1000255a:	6038      	str	r0, [r7, #0]
1000255c:	6079      	str	r1, [r7, #4]
1000255e:	f7ff ffc9 	bl	100024f4 <time_us_64>
10002562:	0002      	movs	r2, r0
10002564:	000b      	movs	r3, r1
10002566:	613a      	str	r2, [r7, #16]
10002568:	617b      	str	r3, [r7, #20]
1000256a:	6938      	ldr	r0, [r7, #16]
1000256c:	6979      	ldr	r1, [r7, #20]
1000256e:	683a      	ldr	r2, [r7, #0]
10002570:	687b      	ldr	r3, [r7, #4]
10002572:	1812      	adds	r2, r2, r0
10002574:	414b      	adcs	r3, r1
10002576:	61ba      	str	r2, [r7, #24]
10002578:	61fb      	str	r3, [r7, #28]
1000257a:	697a      	ldr	r2, [r7, #20]
1000257c:	69fb      	ldr	r3, [r7, #28]
1000257e:	429a      	cmp	r2, r3
10002580:	d807      	bhi.n	10002592 <busy_wait_us+0x3e>
10002582:	697a      	ldr	r2, [r7, #20]
10002584:	69fb      	ldr	r3, [r7, #28]
10002586:	429a      	cmp	r2, r3
10002588:	d108      	bne.n	1000259c <busy_wait_us+0x48>
1000258a:	693a      	ldr	r2, [r7, #16]
1000258c:	69bb      	ldr	r3, [r7, #24]
1000258e:	429a      	cmp	r2, r3
10002590:	d904      	bls.n	1000259c <busy_wait_us+0x48>
10002592:	2201      	movs	r2, #1
10002594:	4252      	negs	r2, r2
10002596:	17d3      	asrs	r3, r2, #31
10002598:	61ba      	str	r2, [r7, #24]
1000259a:	61fb      	str	r3, [r7, #28]
1000259c:	69ba      	ldr	r2, [r7, #24]
1000259e:	69fb      	ldr	r3, [r7, #28]
100025a0:	2108      	movs	r1, #8
100025a2:	1879      	adds	r1, r7, r1
100025a4:	0008      	movs	r0, r1
100025a6:	f7ff ff55 	bl	10002454 <update_us_since_boot>
100025aa:	68ba      	ldr	r2, [r7, #8]
100025ac:	68fb      	ldr	r3, [r7, #12]
100025ae:	0010      	movs	r0, r2
100025b0:	0019      	movs	r1, r3
100025b2:	f000 f805 	bl	100025c0 <busy_wait_until>
100025b6:	46c0      	nop			@ (mov r8, r8)
100025b8:	46bd      	mov	sp, r7
100025ba:	b008      	add	sp, #32
100025bc:	bd80      	pop	{r7, pc}
	...

100025c0 <busy_wait_until>:
100025c0:	b5b0      	push	{r4, r5, r7, lr}
100025c2:	b088      	sub	sp, #32
100025c4:	af00      	add	r7, sp, #0
100025c6:	6038      	str	r0, [r7, #0]
100025c8:	6079      	str	r1, [r7, #4]
100025ca:	683a      	ldr	r2, [r7, #0]
100025cc:	687b      	ldr	r3, [r7, #4]
100025ce:	0010      	movs	r0, r2
100025d0:	0019      	movs	r1, r3
100025d2:	f7ff ff33 	bl	1000243c <to_us_since_boot>
100025d6:	0002      	movs	r2, r0
100025d8:	000b      	movs	r3, r1
100025da:	613a      	str	r2, [r7, #16]
100025dc:	617b      	str	r3, [r7, #20]
100025de:	697b      	ldr	r3, [r7, #20]
100025e0:	001c      	movs	r4, r3
100025e2:	2300      	movs	r3, #0
100025e4:	001d      	movs	r5, r3
100025e6:	0023      	movs	r3, r4
100025e8:	60fb      	str	r3, [r7, #12]
100025ea:	4b0f      	ldr	r3, [pc, #60]	@ (10002628 <busy_wait_until+0x68>)
100025ec:	6a5b      	ldr	r3, [r3, #36]	@ 0x24
100025ee:	61fb      	str	r3, [r7, #28]
100025f0:	e003      	b.n	100025fa <busy_wait_until+0x3a>
100025f2:	4b0d      	ldr	r3, [pc, #52]	@ (10002628 <busy_wait_until+0x68>)
100025f4:	6a5b      	ldr	r3, [r3, #36]	@ 0x24
100025f6:	61fb      	str	r3, [r7, #28]
100025f8:	46c0      	nop			@ (mov r8, r8)
100025fa:	69fa      	ldr	r2, [r7, #28]
100025fc:	68fb      	ldr	r3, [r7, #12]
100025fe:	429a      	cmp	r2, r3
10002600:	d3f7      	bcc.n	100025f2 <busy_wait_until+0x32>
10002602:	e003      	b.n	1000260c <busy_wait_until+0x4c>
10002604:	4b08      	ldr	r3, [pc, #32]	@ (10002628 <busy_wait_until+0x68>)
10002606:	6a5b      	ldr	r3, [r3, #36]	@ 0x24
10002608:	61fb      	str	r3, [r7, #28]
1000260a:	46c0      	nop			@ (mov r8, r8)
1000260c:	69fa      	ldr	r2, [r7, #28]
1000260e:	68fb      	ldr	r3, [r7, #12]
10002610:	429a      	cmp	r2, r3
10002612:	d104      	bne.n	1000261e <busy_wait_until+0x5e>
10002614:	4b04      	ldr	r3, [pc, #16]	@ (10002628 <busy_wait_until+0x68>)
10002616:	6a9a      	ldr	r2, [r3, #40]	@ 0x28
10002618:	693b      	ldr	r3, [r7, #16]
1000261a:	429a      	cmp	r2, r3
1000261c:	d3f2      	bcc.n	10002604 <busy_wait_until+0x44>
1000261e:	46c0      	nop			@ (mov r8, r8)
10002620:	46bd      	mov	sp, r7
10002622:	b008      	add	sp, #32
10002624:	bdb0      	pop	{r4, r5, r7, pc}
10002626:	46c0      	nop			@ (mov r8, r8)
10002628:	40054000 	.word	0x40054000

1000262c <harware_alarm_irq_number>:
1000262c:	b580      	push	{r7, lr}
1000262e:	b082      	sub	sp, #8
10002630:	af00      	add	r7, sp, #0
10002632:	6078      	str	r0, [r7, #4]
10002634:	687b      	ldr	r3, [r7, #4]
10002636:	0018      	movs	r0, r3
10002638:	46bd      	mov	sp, r7
1000263a:	b002      	add	sp, #8
1000263c:	bd80      	pop	{r7, pc}
	...

10002640 <hardware_alarm_irq_handler>:
10002640:	b580      	push	{r7, lr}
10002642:	b090      	sub	sp, #64	@ 0x40
10002644:	af00      	add	r7, sp, #0
10002646:	f3ef 8305 	mrs	r3, IPSR
1000264a:	613b      	str	r3, [r7, #16]
1000264c:	693b      	ldr	r3, [r7, #16]
1000264e:	3b10      	subs	r3, #16
10002650:	63bb      	str	r3, [r7, #56]	@ 0x38
10002652:	6bbb      	ldr	r3, [r7, #56]	@ 0x38
10002654:	0018      	movs	r0, r3
10002656:	f7ff ff1d 	bl	10002494 <check_hardware_alarm_num_param>
1000265a:	2300      	movs	r3, #0
1000265c:	63fb      	str	r3, [r7, #60]	@ 0x3c
1000265e:	230a      	movs	r3, #10
10002660:	617b      	str	r3, [r7, #20]
10002662:	697b      	ldr	r3, [r7, #20]
10002664:	4a3f      	ldr	r2, [pc, #252]	@ (10002764 <hardware_alarm_irq_handler+0x124>)
10002666:	4694      	mov	ip, r2
10002668:	4463      	add	r3, ip
1000266a:	009b      	lsls	r3, r3, #2
1000266c:	637b      	str	r3, [r7, #52]	@ 0x34
1000266e:	6b7b      	ldr	r3, [r7, #52]	@ 0x34
10002670:	627b      	str	r3, [r7, #36]	@ 0x24
10002672:	f3ef 8310 	mrs	r3, PRIMASK
10002676:	b672      	cpsid	i
10002678:	623b      	str	r3, [r7, #32]
1000267a:	6a3b      	ldr	r3, [r7, #32]
1000267c:	61fb      	str	r3, [r7, #28]
1000267e:	6a7b      	ldr	r3, [r7, #36]	@ 0x24
10002680:	61bb      	str	r3, [r7, #24]
10002682:	46c0      	nop			@ (mov r8, r8)
10002684:	69bb      	ldr	r3, [r7, #24]
10002686:	681b      	ldr	r3, [r3, #0]
10002688:	425a      	negs	r2, r3
1000268a:	4153      	adcs	r3, r2
1000268c:	b2db      	uxtb	r3, r3
1000268e:	2b00      	cmp	r3, #0
10002690:	d1f8      	bne.n	10002684 <hardware_alarm_irq_handler+0x44>
10002692:	f3bf 8f5f 	dmb	sy
10002696:	46c0      	nop			@ (mov r8, r8)
10002698:	46c0      	nop			@ (mov r8, r8)
1000269a:	46c0      	nop			@ (mov r8, r8)
1000269c:	69fb      	ldr	r3, [r7, #28]
1000269e:	633b      	str	r3, [r7, #48]	@ 0x30
100026a0:	4b31      	ldr	r3, [pc, #196]	@ (10002768 <hardware_alarm_irq_handler+0x128>)
100026a2:	2101      	movs	r1, #1
100026a4:	6bba      	ldr	r2, [r7, #56]	@ 0x38
100026a6:	4091      	lsls	r1, r2
100026a8:	000a      	movs	r2, r1
100026aa:	635a      	str	r2, [r3, #52]	@ 0x34
100026ac:	2201      	movs	r2, #1
100026ae:	6bbb      	ldr	r3, [r7, #56]	@ 0x38
100026b0:	409a      	lsls	r2, r3
100026b2:	0013      	movs	r3, r2
100026b4:	4a2d      	ldr	r2, [pc, #180]	@ (1000276c <hardware_alarm_irq_handler+0x12c>)
100026b6:	62fa      	str	r2, [r7, #44]	@ 0x2c
100026b8:	62bb      	str	r3, [r7, #40]	@ 0x28
100026ba:	6afb      	ldr	r3, [r7, #44]	@ 0x2c
100026bc:	22c0      	movs	r2, #192	@ 0xc0
100026be:	0192      	lsls	r2, r2, #6
100026c0:	4313      	orrs	r3, r2
100026c2:	6aba      	ldr	r2, [r7, #40]	@ 0x28
100026c4:	601a      	str	r2, [r3, #0]
100026c6:	46c0      	nop			@ (mov r8, r8)
100026c8:	4b29      	ldr	r3, [pc, #164]	@ (10002770 <hardware_alarm_irq_handler+0x130>)
100026ca:	781b      	ldrb	r3, [r3, #0]
100026cc:	001a      	movs	r2, r3
100026ce:	6bbb      	ldr	r3, [r7, #56]	@ 0x38
100026d0:	40da      	lsrs	r2, r3
100026d2:	0013      	movs	r3, r2
100026d4:	2201      	movs	r2, #1
100026d6:	4013      	ands	r3, r2
100026d8:	d024      	beq.n	10002724 <hardware_alarm_irq_handler+0xe4>
100026da:	4b23      	ldr	r3, [pc, #140]	@ (10002768 <hardware_alarm_irq_handler+0x128>)
100026dc:	6a5a      	ldr	r2, [r3, #36]	@ 0x24
100026de:	4b25      	ldr	r3, [pc, #148]	@ (10002774 <hardware_alarm_irq_handler+0x134>)
100026e0:	6bb9      	ldr	r1, [r7, #56]	@ 0x38
100026e2:	0089      	lsls	r1, r1, #2
100026e4:	58cb      	ldr	r3, [r1, r3]
100026e6:	429a      	cmp	r2, r3
100026e8:	d312      	bcc.n	10002710 <hardware_alarm_irq_handler+0xd0>
100026ea:	4b23      	ldr	r3, [pc, #140]	@ (10002778 <hardware_alarm_irq_handler+0x138>)
100026ec:	6bba      	ldr	r2, [r7, #56]	@ 0x38
100026ee:	0092      	lsls	r2, r2, #2
100026f0:	58d3      	ldr	r3, [r2, r3]
100026f2:	63fb      	str	r3, [r7, #60]	@ 0x3c
100026f4:	2201      	movs	r2, #1
100026f6:	6bbb      	ldr	r3, [r7, #56]	@ 0x38
100026f8:	409a      	lsls	r2, r3
100026fa:	0013      	movs	r3, r2
100026fc:	b2db      	uxtb	r3, r3
100026fe:	43db      	mvns	r3, r3
10002700:	b2db      	uxtb	r3, r3
10002702:	4a1b      	ldr	r2, [pc, #108]	@ (10002770 <hardware_alarm_irq_handler+0x130>)
10002704:	7812      	ldrb	r2, [r2, #0]
10002706:	4013      	ands	r3, r2
10002708:	b2da      	uxtb	r2, r3
1000270a:	4b19      	ldr	r3, [pc, #100]	@ (10002770 <hardware_alarm_irq_handler+0x130>)
1000270c:	701a      	strb	r2, [r3, #0]
1000270e:	e009      	b.n	10002724 <hardware_alarm_irq_handler+0xe4>
10002710:	4a15      	ldr	r2, [pc, #84]	@ (10002768 <hardware_alarm_irq_handler+0x128>)
10002712:	4915      	ldr	r1, [pc, #84]	@ (10002768 <hardware_alarm_irq_handler+0x128>)
10002714:	6bbb      	ldr	r3, [r7, #56]	@ 0x38
10002716:	3304      	adds	r3, #4
10002718:	009b      	lsls	r3, r3, #2
1000271a:	589a      	ldr	r2, [r3, r2]
1000271c:	6bbb      	ldr	r3, [r7, #56]	@ 0x38
1000271e:	3304      	adds	r3, #4
10002720:	009b      	lsls	r3, r3, #2
10002722:	505a      	str	r2, [r3, r1]
10002724:	6b7b      	ldr	r3, [r7, #52]	@ 0x34
10002726:	60fb      	str	r3, [r7, #12]
10002728:	6b3b      	ldr	r3, [r7, #48]	@ 0x30
1000272a:	60bb      	str	r3, [r7, #8]
1000272c:	68fb      	ldr	r3, [r7, #12]
1000272e:	607b      	str	r3, [r7, #4]
10002730:	f3bf 8f5f 	dmb	sy
10002734:	46c0      	nop			@ (mov r8, r8)
10002736:	46c0      	nop			@ (mov r8, r8)
10002738:	687b      	ldr	r3, [r7, #4]
1000273a:	2200      	movs	r2, #0
1000273c:	601a      	str	r2, [r3, #0]
1000273e:	46c0      	nop			@ (mov r8, r8)
10002740:	68bb      	ldr	r3, [r7, #8]
10002742:	603b      	str	r3, [r7, #0]
10002744:	683b      	ldr	r3, [r7, #0]
10002746:	f383 8810 	msr	PRIMASK, r3
1000274a:	46c0      	nop			@ (mov r8, r8)
1000274c:	46c0      	nop			@ (mov r8, r8)
1000274e:	6bfb      	ldr	r3, [r7, #60]	@ 0x3c
10002750:	2b00      	cmp	r3, #0
10002752:	d003      	beq.n	1000275c <hardware_alarm_irq_handler+0x11c>
10002754:	6bba      	ldr	r2, [r7, #56]	@ 0x38
10002756:	6bfb      	ldr	r3, [r7, #60]	@ 0x3c
10002758:	0010      	movs	r0, r2
1000275a:	4798      	blx	r3
1000275c:	46c0      	nop			@ (mov r8, r8)
1000275e:	46bd      	mov	sp, r7
10002760:	b010      	add	sp, #64	@ 0x40
10002762:	bd80      	pop	{r7, pc}
10002764:	34000040 	.word	0x34000040
10002768:	40054000 	.word	0x40054000
1000276c:	4005403c 	.word	0x4005403c
10002770:	20000ae6 	.word	0x20000ae6
10002774:	200009a4 	.word	0x200009a4
10002778:	200006d8 	.word	0x200006d8

1000277c <hardware_alarm_set_callback>:
1000277c:	b580      	push	{r7, lr}
1000277e:	b090      	sub	sp, #64	@ 0x40
10002780:	af00      	add	r7, sp, #0
10002782:	6078      	str	r0, [r7, #4]
10002784:	6039      	str	r1, [r7, #0]
10002786:	687b      	ldr	r3, [r7, #4]
10002788:	0018      	movs	r0, r3
1000278a:	f7ff fe83 	bl	10002494 <check_hardware_alarm_num_param>
1000278e:	687b      	ldr	r3, [r7, #4]
10002790:	0018      	movs	r0, r3
10002792:	f7ff ff4b 	bl	1000262c <harware_alarm_irq_number>
10002796:	0003      	movs	r3, r0
10002798:	63fb      	str	r3, [r7, #60]	@ 0x3c
1000279a:	230a      	movs	r3, #10
1000279c:	623b      	str	r3, [r7, #32]
1000279e:	6a3b      	ldr	r3, [r7, #32]
100027a0:	4a3e      	ldr	r2, [pc, #248]	@ (1000289c <hardware_alarm_set_callback+0x120>)
100027a2:	4694      	mov	ip, r2
100027a4:	4463      	add	r3, ip
100027a6:	009b      	lsls	r3, r3, #2
100027a8:	63bb      	str	r3, [r7, #56]	@ 0x38
100027aa:	6bbb      	ldr	r3, [r7, #56]	@ 0x38
100027ac:	633b      	str	r3, [r7, #48]	@ 0x30
100027ae:	f3ef 8310 	mrs	r3, PRIMASK
100027b2:	b672      	cpsid	i
100027b4:	62fb      	str	r3, [r7, #44]	@ 0x2c
100027b6:	6afb      	ldr	r3, [r7, #44]	@ 0x2c
100027b8:	62bb      	str	r3, [r7, #40]	@ 0x28
100027ba:	6b3b      	ldr	r3, [r7, #48]	@ 0x30
100027bc:	627b      	str	r3, [r7, #36]	@ 0x24
100027be:	46c0      	nop			@ (mov r8, r8)
100027c0:	6a7b      	ldr	r3, [r7, #36]	@ 0x24
100027c2:	681b      	ldr	r3, [r3, #0]
100027c4:	425a      	negs	r2, r3
100027c6:	4153      	adcs	r3, r2
100027c8:	b2db      	uxtb	r3, r3
100027ca:	2b00      	cmp	r3, #0
100027cc:	d1f8      	bne.n	100027c0 <hardware_alarm_set_callback+0x44>
100027ce:	f3bf 8f5f 	dmb	sy
100027d2:	46c0      	nop			@ (mov r8, r8)
100027d4:	46c0      	nop			@ (mov r8, r8)
100027d6:	46c0      	nop			@ (mov r8, r8)
100027d8:	6abb      	ldr	r3, [r7, #40]	@ 0x28
100027da:	637b      	str	r3, [r7, #52]	@ 0x34
100027dc:	683b      	ldr	r3, [r7, #0]
100027de:	2b00      	cmp	r3, #0
100027e0:	d026      	beq.n	10002830 <hardware_alarm_set_callback+0xb4>
100027e2:	6bfb      	ldr	r3, [r7, #60]	@ 0x3c
100027e4:	0018      	movs	r0, r3
100027e6:	f7fe f9b1 	bl	10000b4c <irq_get_vtable_handler>
100027ea:	0002      	movs	r2, r0
100027ec:	4b2c      	ldr	r3, [pc, #176]	@ (100028a0 <hardware_alarm_set_callback+0x124>)
100027ee:	429a      	cmp	r2, r3
100027f0:	d018      	beq.n	10002824 <hardware_alarm_set_callback+0xa8>
100027f2:	4a2b      	ldr	r2, [pc, #172]	@ (100028a0 <hardware_alarm_set_callback+0x124>)
100027f4:	6bfb      	ldr	r3, [r7, #60]	@ 0x3c
100027f6:	0011      	movs	r1, r2
100027f8:	0018      	movs	r0, r3
100027fa:	f7fe f9bb 	bl	10000b74 <irq_set_exclusive_handler>
100027fe:	6bfb      	ldr	r3, [r7, #60]	@ 0x3c
10002800:	2101      	movs	r1, #1
10002802:	0018      	movs	r0, r3
10002804:	f7fe f940 	bl	10000a88 <irq_set_enabled>
10002808:	2201      	movs	r2, #1
1000280a:	687b      	ldr	r3, [r7, #4]
1000280c:	409a      	lsls	r2, r3
1000280e:	0013      	movs	r3, r2
10002810:	4a24      	ldr	r2, [pc, #144]	@ (100028a4 <hardware_alarm_set_callback+0x128>)
10002812:	61fa      	str	r2, [r7, #28]
10002814:	61bb      	str	r3, [r7, #24]
10002816:	69fb      	ldr	r3, [r7, #28]
10002818:	2280      	movs	r2, #128	@ 0x80
1000281a:	0192      	lsls	r2, r2, #6
1000281c:	4313      	orrs	r3, r2
1000281e:	69ba      	ldr	r2, [r7, #24]
10002820:	601a      	str	r2, [r3, #0]
10002822:	46c0      	nop			@ (mov r8, r8)
10002824:	4b20      	ldr	r3, [pc, #128]	@ (100028a8 <hardware_alarm_set_callback+0x12c>)
10002826:	687a      	ldr	r2, [r7, #4]
10002828:	0092      	lsls	r2, r2, #2
1000282a:	6839      	ldr	r1, [r7, #0]
1000282c:	50d1      	str	r1, [r2, r3]
1000282e:	e01c      	b.n	1000286a <hardware_alarm_set_callback+0xee>
10002830:	4b1d      	ldr	r3, [pc, #116]	@ (100028a8 <hardware_alarm_set_callback+0x12c>)
10002832:	687a      	ldr	r2, [r7, #4]
10002834:	0092      	lsls	r2, r2, #2
10002836:	2100      	movs	r1, #0
10002838:	50d1      	str	r1, [r2, r3]
1000283a:	2201      	movs	r2, #1
1000283c:	687b      	ldr	r3, [r7, #4]
1000283e:	409a      	lsls	r2, r3
10002840:	0013      	movs	r3, r2
10002842:	b2db      	uxtb	r3, r3
10002844:	43db      	mvns	r3, r3
10002846:	b2db      	uxtb	r3, r3
10002848:	4a18      	ldr	r2, [pc, #96]	@ (100028ac <hardware_alarm_set_callback+0x130>)
1000284a:	7812      	ldrb	r2, [r2, #0]
1000284c:	4013      	ands	r3, r2
1000284e:	b2da      	uxtb	r2, r3
10002850:	4b16      	ldr	r3, [pc, #88]	@ (100028ac <hardware_alarm_set_callback+0x130>)
10002852:	701a      	strb	r2, [r3, #0]
10002854:	4a12      	ldr	r2, [pc, #72]	@ (100028a0 <hardware_alarm_set_callback+0x124>)
10002856:	6bfb      	ldr	r3, [r7, #60]	@ 0x3c
10002858:	0011      	movs	r1, r2
1000285a:	0018      	movs	r0, r3
1000285c:	f7fe faa8 	bl	10000db0 <irq_remove_handler>
10002860:	6bfb      	ldr	r3, [r7, #60]	@ 0x3c
10002862:	2100      	movs	r1, #0
10002864:	0018      	movs	r0, r3
10002866:	f7fe f90f 	bl	10000a88 <irq_set_enabled>
1000286a:	6bbb      	ldr	r3, [r7, #56]	@ 0x38
1000286c:	617b      	str	r3, [r7, #20]
1000286e:	6b7b      	ldr	r3, [r7, #52]	@ 0x34
10002870:	613b      	str	r3, [r7, #16]
10002872:	697b      	ldr	r3, [r7, #20]
10002874:	60fb      	str	r3, [r7, #12]
10002876:	f3bf 8f5f 	dmb	sy
1000287a:	46c0      	nop			@ (mov r8, r8)
1000287c:	46c0      	nop			@ (mov r8, r8)
1000287e:	68fb      	ldr	r3, [r7, #12]
10002880:	2200      	movs	r2, #0
10002882:	601a      	str	r2, [r3, #0]
10002884:	46c0      	nop			@ (mov r8, r8)
10002886:	693b      	ldr	r3, [r7, #16]
10002888:	60bb      	str	r3, [r7, #8]
1000288a:	68bb      	ldr	r3, [r7, #8]
1000288c:	f383 8810 	msr	PRIMASK, r3
10002890:	46c0      	nop			@ (mov r8, r8)
10002892:	46c0      	nop			@ (mov r8, r8)
10002894:	46c0      	nop			@ (mov r8, r8)
10002896:	46bd      	mov	sp, r7
10002898:	b010      	add	sp, #64	@ 0x40
1000289a:	bd80      	pop	{r7, pc}
1000289c:	34000040 	.word	0x34000040
100028a0:	10002641 	.word	0x10002641
100028a4:	40054038 	.word	0x40054038
100028a8:	200006d8 	.word	0x200006d8
100028ac:	20000ae6 	.word	0x20000ae6

100028b0 <hardware_alarm_set_target>:
100028b0:	b5b0      	push	{r4, r5, r7, lr}
100028b2:	b096      	sub	sp, #88	@ 0x58
100028b4:	af00      	add	r7, sp, #0
100028b6:	60f8      	str	r0, [r7, #12]
100028b8:	603a      	str	r2, [r7, #0]
100028ba:	607b      	str	r3, [r7, #4]
100028bc:	f7ff fe1a 	bl	100024f4 <time_us_64>
100028c0:	0002      	movs	r2, r0
100028c2:	000b      	movs	r3, r1
100028c4:	64ba      	str	r2, [r7, #72]	@ 0x48
100028c6:	64fb      	str	r3, [r7, #76]	@ 0x4c
100028c8:	683a      	ldr	r2, [r7, #0]
100028ca:	687b      	ldr	r3, [r7, #4]
100028cc:	0010      	movs	r0, r2
100028ce:	0019      	movs	r1, r3
100028d0:	f7ff fdb4 	bl	1000243c <to_us_since_boot>
100028d4:	0002      	movs	r2, r0
100028d6:	000b      	movs	r3, r1
100028d8:	643a      	str	r2, [r7, #64]	@ 0x40
100028da:	647b      	str	r3, [r7, #68]	@ 0x44
100028dc:	6c7a      	ldr	r2, [r7, #68]	@ 0x44
100028de:	6cfb      	ldr	r3, [r7, #76]	@ 0x4c
100028e0:	429a      	cmp	r2, r3
100028e2:	d80c      	bhi.n	100028fe <hardware_alarm_set_target+0x4e>
100028e4:	6c7a      	ldr	r2, [r7, #68]	@ 0x44
100028e6:	6cfb      	ldr	r3, [r7, #76]	@ 0x4c
100028e8:	429a      	cmp	r2, r3
100028ea:	d103      	bne.n	100028f4 <hardware_alarm_set_target+0x44>
100028ec:	6c3a      	ldr	r2, [r7, #64]	@ 0x40
100028ee:	6cbb      	ldr	r3, [r7, #72]	@ 0x48
100028f0:	429a      	cmp	r2, r3
100028f2:	d804      	bhi.n	100028fe <hardware_alarm_set_target+0x4e>
100028f4:	2357      	movs	r3, #87	@ 0x57
100028f6:	18fb      	adds	r3, r7, r3
100028f8:	2201      	movs	r2, #1
100028fa:	701a      	strb	r2, [r3, #0]
100028fc:	e0a4      	b.n	10002a48 <hardware_alarm_set_target+0x198>
100028fe:	2357      	movs	r3, #87	@ 0x57
10002900:	18fb      	adds	r3, r7, r3
10002902:	2200      	movs	r2, #0
10002904:	701a      	strb	r2, [r3, #0]
10002906:	230a      	movs	r3, #10
10002908:	623b      	str	r3, [r7, #32]
1000290a:	6a3b      	ldr	r3, [r7, #32]
1000290c:	4a52      	ldr	r2, [pc, #328]	@ (10002a58 <hardware_alarm_set_target+0x1a8>)
1000290e:	4694      	mov	ip, r2
10002910:	4463      	add	r3, ip
10002912:	009b      	lsls	r3, r3, #2
10002914:	63fb      	str	r3, [r7, #60]	@ 0x3c
10002916:	6bfb      	ldr	r3, [r7, #60]	@ 0x3c
10002918:	633b      	str	r3, [r7, #48]	@ 0x30
1000291a:	f3ef 8310 	mrs	r3, PRIMASK
1000291e:	b672      	cpsid	i
10002920:	62fb      	str	r3, [r7, #44]	@ 0x2c
10002922:	6afb      	ldr	r3, [r7, #44]	@ 0x2c
10002924:	62bb      	str	r3, [r7, #40]	@ 0x28
10002926:	6b3b      	ldr	r3, [r7, #48]	@ 0x30
10002928:	627b      	str	r3, [r7, #36]	@ 0x24
1000292a:	46c0      	nop			@ (mov r8, r8)
1000292c:	6a7b      	ldr	r3, [r7, #36]	@ 0x24
1000292e:	681b      	ldr	r3, [r3, #0]
10002930:	425a      	negs	r2, r3
10002932:	4153      	adcs	r3, r2
10002934:	b2db      	uxtb	r3, r3
10002936:	2b00      	cmp	r3, #0
10002938:	d1f8      	bne.n	1000292c <hardware_alarm_set_target+0x7c>
1000293a:	f3bf 8f5f 	dmb	sy
1000293e:	46c0      	nop			@ (mov r8, r8)
10002940:	46c0      	nop			@ (mov r8, r8)
10002942:	46c0      	nop			@ (mov r8, r8)
10002944:	6abb      	ldr	r3, [r7, #40]	@ 0x28
10002946:	63bb      	str	r3, [r7, #56]	@ 0x38
10002948:	2337      	movs	r3, #55	@ 0x37
1000294a:	18fb      	adds	r3, r7, r3
1000294c:	4a43      	ldr	r2, [pc, #268]	@ (10002a5c <hardware_alarm_set_target+0x1ac>)
1000294e:	7812      	ldrb	r2, [r2, #0]
10002950:	701a      	strb	r2, [r3, #0]
10002952:	2201      	movs	r2, #1
10002954:	68fb      	ldr	r3, [r7, #12]
10002956:	409a      	lsls	r2, r3
10002958:	0013      	movs	r3, r2
1000295a:	b2da      	uxtb	r2, r3
1000295c:	4b3f      	ldr	r3, [pc, #252]	@ (10002a5c <hardware_alarm_set_target+0x1ac>)
1000295e:	781b      	ldrb	r3, [r3, #0]
10002960:	4313      	orrs	r3, r2
10002962:	b2da      	uxtb	r2, r3
10002964:	4b3d      	ldr	r3, [pc, #244]	@ (10002a5c <hardware_alarm_set_target+0x1ac>)
10002966:	701a      	strb	r2, [r3, #0]
10002968:	4b3d      	ldr	r3, [pc, #244]	@ (10002a60 <hardware_alarm_set_target+0x1b0>)
1000296a:	2101      	movs	r1, #1
1000296c:	68fa      	ldr	r2, [r7, #12]
1000296e:	4091      	lsls	r1, r2
10002970:	000a      	movs	r2, r1
10002972:	635a      	str	r2, [r3, #52]	@ 0x34
10002974:	493a      	ldr	r1, [pc, #232]	@ (10002a60 <hardware_alarm_set_target+0x1b0>)
10002976:	6c3a      	ldr	r2, [r7, #64]	@ 0x40
10002978:	68fb      	ldr	r3, [r7, #12]
1000297a:	3304      	adds	r3, #4
1000297c:	009b      	lsls	r3, r3, #2
1000297e:	505a      	str	r2, [r3, r1]
10002980:	6c7b      	ldr	r3, [r7, #68]	@ 0x44
10002982:	001c      	movs	r4, r3
10002984:	2300      	movs	r3, #0
10002986:	001d      	movs	r5, r3
10002988:	0021      	movs	r1, r4
1000298a:	4b36      	ldr	r3, [pc, #216]	@ (10002a64 <hardware_alarm_set_target+0x1b4>)
1000298c:	68fa      	ldr	r2, [r7, #12]
1000298e:	0092      	lsls	r2, r2, #2
10002990:	50d1      	str	r1, [r2, r3]
10002992:	4b33      	ldr	r3, [pc, #204]	@ (10002a60 <hardware_alarm_set_target+0x1b0>)
10002994:	6a1b      	ldr	r3, [r3, #32]
10002996:	2101      	movs	r1, #1
10002998:	68fa      	ldr	r2, [r7, #12]
1000299a:	4091      	lsls	r1, r2
1000299c:	000a      	movs	r2, r1
1000299e:	4013      	ands	r3, r2
100029a0:	d10d      	bne.n	100029be <hardware_alarm_set_target+0x10e>
100029a2:	4b2f      	ldr	r3, [pc, #188]	@ (10002a60 <hardware_alarm_set_target+0x1b0>)
100029a4:	6c1b      	ldr	r3, [r3, #64]	@ 0x40
100029a6:	2101      	movs	r1, #1
100029a8:	68fa      	ldr	r2, [r7, #12]
100029aa:	4091      	lsls	r1, r2
100029ac:	000a      	movs	r2, r1
100029ae:	4013      	ands	r3, r2
100029b0:	d135      	bne.n	10002a1e <hardware_alarm_set_target+0x16e>
100029b2:	4b2d      	ldr	r3, [pc, #180]	@ (10002a68 <hardware_alarm_set_target+0x1b8>)
100029b4:	4a2d      	ldr	r2, [pc, #180]	@ (10002a6c <hardware_alarm_set_target+0x1bc>)
100029b6:	482e      	ldr	r0, [pc, #184]	@ (10002a70 <hardware_alarm_set_target+0x1c0>)
100029b8:	21c5      	movs	r1, #197	@ 0xc5
100029ba:	f001 f9dd 	bl	10003d78 <__assert_func>
100029be:	f7ff fd99 	bl	100024f4 <time_us_64>
100029c2:	0002      	movs	r2, r0
100029c4:	000b      	movs	r3, r1
100029c6:	6c79      	ldr	r1, [r7, #68]	@ 0x44
100029c8:	4299      	cmp	r1, r3
100029ca:	d828      	bhi.n	10002a1e <hardware_alarm_set_target+0x16e>
100029cc:	6c79      	ldr	r1, [r7, #68]	@ 0x44
100029ce:	4299      	cmp	r1, r3
100029d0:	d102      	bne.n	100029d8 <hardware_alarm_set_target+0x128>
100029d2:	6c39      	ldr	r1, [r7, #64]	@ 0x40
100029d4:	4291      	cmp	r1, r2
100029d6:	d822      	bhi.n	10002a1e <hardware_alarm_set_target+0x16e>
100029d8:	2357      	movs	r3, #87	@ 0x57
100029da:	18fb      	adds	r3, r7, r3
100029dc:	2201      	movs	r2, #1
100029de:	701a      	strb	r2, [r3, #0]
100029e0:	4b1e      	ldr	r3, [pc, #120]	@ (10002a5c <hardware_alarm_set_target+0x1ac>)
100029e2:	781b      	ldrb	r3, [r3, #0]
100029e4:	2437      	movs	r4, #55	@ 0x37
100029e6:	193a      	adds	r2, r7, r4
100029e8:	7812      	ldrb	r2, [r2, #0]
100029ea:	429a      	cmp	r2, r3
100029ec:	d017      	beq.n	10002a1e <hardware_alarm_set_target+0x16e>
100029ee:	4b1c      	ldr	r3, [pc, #112]	@ (10002a60 <hardware_alarm_set_target+0x1b0>)
100029f0:	2101      	movs	r1, #1
100029f2:	68fa      	ldr	r2, [r7, #12]
100029f4:	4091      	lsls	r1, r2
100029f6:	000a      	movs	r2, r1
100029f8:	621a      	str	r2, [r3, #32]
100029fa:	4b19      	ldr	r3, [pc, #100]	@ (10002a60 <hardware_alarm_set_target+0x1b0>)
100029fc:	2101      	movs	r1, #1
100029fe:	68fa      	ldr	r2, [r7, #12]
10002a00:	4091      	lsls	r1, r2
10002a02:	000a      	movs	r2, r1
10002a04:	635a      	str	r2, [r3, #52]	@ 0x34
10002a06:	68fb      	ldr	r3, [r7, #12]
10002a08:	0018      	movs	r0, r3
10002a0a:	f7ff fe0f 	bl	1000262c <harware_alarm_irq_number>
10002a0e:	0003      	movs	r3, r0
10002a10:	0018      	movs	r0, r3
10002a12:	f7ff fd47 	bl	100024a4 <irq_clear>
10002a16:	4b11      	ldr	r3, [pc, #68]	@ (10002a5c <hardware_alarm_set_target+0x1ac>)
10002a18:	193a      	adds	r2, r7, r4
10002a1a:	7812      	ldrb	r2, [r2, #0]
10002a1c:	701a      	strb	r2, [r3, #0]
10002a1e:	6bfb      	ldr	r3, [r7, #60]	@ 0x3c
10002a20:	61fb      	str	r3, [r7, #28]
10002a22:	6bbb      	ldr	r3, [r7, #56]	@ 0x38
10002a24:	61bb      	str	r3, [r7, #24]
10002a26:	69fb      	ldr	r3, [r7, #28]
10002a28:	617b      	str	r3, [r7, #20]
10002a2a:	f3bf 8f5f 	dmb	sy
10002a2e:	46c0      	nop			@ (mov r8, r8)
10002a30:	46c0      	nop			@ (mov r8, r8)
10002a32:	697b      	ldr	r3, [r7, #20]
10002a34:	2200      	movs	r2, #0
10002a36:	601a      	str	r2, [r3, #0]
10002a38:	46c0      	nop			@ (mov r8, r8)
10002a3a:	69bb      	ldr	r3, [r7, #24]
10002a3c:	613b      	str	r3, [r7, #16]
10002a3e:	693b      	ldr	r3, [r7, #16]
10002a40:	f383 8810 	msr	PRIMASK, r3
10002a44:	46c0      	nop			@ (mov r8, r8)
10002a46:	46c0      	nop			@ (mov r8, r8)
10002a48:	2357      	movs	r3, #87	@ 0x57
10002a4a:	18fb      	adds	r3, r7, r3
10002a4c:	781b      	ldrb	r3, [r3, #0]
10002a4e:	0018      	movs	r0, r3
10002a50:	46bd      	mov	sp, r7
10002a52:	b016      	add	sp, #88	@ 0x58
10002a54:	bdb0      	pop	{r4, r5, r7, pc}
10002a56:	46c0      	nop			@ (mov r8, r8)
10002a58:	34000040 	.word	0x34000040
10002a5c:	20000ae6 	.word	0x20000ae6
10002a60:	40054000 	.word	0x40054000
10002a64:	200009a4 	.word	0x200009a4
10002a68:	10009c24 	.word	0x10009c24
10002a6c:	10009ca4 	.word	0x10009ca4
10002a70:	10009c48 	.word	0x10009c48

10002a74 <hardware_alarm_cancel>:
10002a74:	b580      	push	{r7, lr}
10002a76:	b08e      	sub	sp, #56	@ 0x38
10002a78:	af00      	add	r7, sp, #0
10002a7a:	6078      	str	r0, [r7, #4]
10002a7c:	687b      	ldr	r3, [r7, #4]
10002a7e:	0018      	movs	r0, r3
10002a80:	f7ff fd08 	bl	10002494 <check_hardware_alarm_num_param>
10002a84:	230a      	movs	r3, #10
10002a86:	60fb      	str	r3, [r7, #12]
10002a88:	68fb      	ldr	r3, [r7, #12]
10002a8a:	4a25      	ldr	r2, [pc, #148]	@ (10002b20 <hardware_alarm_cancel+0xac>)
10002a8c:	4694      	mov	ip, r2
10002a8e:	4463      	add	r3, ip
10002a90:	009b      	lsls	r3, r3, #2
10002a92:	637b      	str	r3, [r7, #52]	@ 0x34
10002a94:	6b7b      	ldr	r3, [r7, #52]	@ 0x34
10002a96:	61fb      	str	r3, [r7, #28]
10002a98:	f3ef 8310 	mrs	r3, PRIMASK
10002a9c:	b672      	cpsid	i
10002a9e:	61bb      	str	r3, [r7, #24]
10002aa0:	69bb      	ldr	r3, [r7, #24]
10002aa2:	617b      	str	r3, [r7, #20]
10002aa4:	69fb      	ldr	r3, [r7, #28]
10002aa6:	613b      	str	r3, [r7, #16]
10002aa8:	46c0      	nop			@ (mov r8, r8)
10002aaa:	693b      	ldr	r3, [r7, #16]
10002aac:	681b      	ldr	r3, [r3, #0]
10002aae:	425a      	negs	r2, r3
10002ab0:	4153      	adcs	r3, r2
10002ab2:	b2db      	uxtb	r3, r3
10002ab4:	2b00      	cmp	r3, #0
10002ab6:	d1f8      	bne.n	10002aaa <hardware_alarm_cancel+0x36>
10002ab8:	f3bf 8f5f 	dmb	sy
10002abc:	46c0      	nop			@ (mov r8, r8)
10002abe:	46c0      	nop			@ (mov r8, r8)
10002ac0:	46c0      	nop			@ (mov r8, r8)
10002ac2:	697b      	ldr	r3, [r7, #20]
10002ac4:	633b      	str	r3, [r7, #48]	@ 0x30
10002ac6:	4b17      	ldr	r3, [pc, #92]	@ (10002b24 <hardware_alarm_cancel+0xb0>)
10002ac8:	2101      	movs	r1, #1
10002aca:	687a      	ldr	r2, [r7, #4]
10002acc:	4091      	lsls	r1, r2
10002ace:	000a      	movs	r2, r1
10002ad0:	621a      	str	r2, [r3, #32]
10002ad2:	2201      	movs	r2, #1
10002ad4:	687b      	ldr	r3, [r7, #4]
10002ad6:	409a      	lsls	r2, r3
10002ad8:	0013      	movs	r3, r2
10002ada:	b2db      	uxtb	r3, r3
10002adc:	43db      	mvns	r3, r3
10002ade:	b2db      	uxtb	r3, r3
10002ae0:	4a11      	ldr	r2, [pc, #68]	@ (10002b28 <hardware_alarm_cancel+0xb4>)
10002ae2:	7812      	ldrb	r2, [r2, #0]
10002ae4:	4013      	ands	r3, r2
10002ae6:	b2da      	uxtb	r2, r3
10002ae8:	4b0f      	ldr	r3, [pc, #60]	@ (10002b28 <hardware_alarm_cancel+0xb4>)
10002aea:	701a      	strb	r2, [r3, #0]
10002aec:	6b7b      	ldr	r3, [r7, #52]	@ 0x34
10002aee:	62fb      	str	r3, [r7, #44]	@ 0x2c
10002af0:	6b3b      	ldr	r3, [r7, #48]	@ 0x30
10002af2:	62bb      	str	r3, [r7, #40]	@ 0x28
10002af4:	6afb      	ldr	r3, [r7, #44]	@ 0x2c
10002af6:	627b      	str	r3, [r7, #36]	@ 0x24
10002af8:	f3bf 8f5f 	dmb	sy
10002afc:	46c0      	nop			@ (mov r8, r8)
10002afe:	46c0      	nop			@ (mov r8, r8)
10002b00:	6a7b      	ldr	r3, [r7, #36]	@ 0x24
10002b02:	2200      	movs	r2, #0
10002b04:	601a      	str	r2, [r3, #0]
10002b06:	46c0      	nop			@ (mov r8, r8)
10002b08:	6abb      	ldr	r3, [r7, #40]	@ 0x28
10002b0a:	623b      	str	r3, [r7, #32]
10002b0c:	6a3b      	ldr	r3, [r7, #32]
10002b0e:	f383 8810 	msr	PRIMASK, r3
10002b12:	46c0      	nop			@ (mov r8, r8)
10002b14:	46c0      	nop			@ (mov r8, r8)
10002b16:	46c0      	nop			@ (mov r8, r8)
10002b18:	46bd      	mov	sp, r7
10002b1a:	b00e      	add	sp, #56	@ 0x38
10002b1c:	bd80      	pop	{r7, pc}
10002b1e:	46c0      	nop			@ (mov r8, r8)
10002b20:	34000040 	.word	0x34000040
10002b24:	40054000 	.word	0x40054000
10002b28:	20000ae6 	.word	0x20000ae6

10002b2c <ph_get_node>:
10002b2c:	b580      	push	{r7, lr}
10002b2e:	b082      	sub	sp, #8
10002b30:	af00      	add	r7, sp, #0
10002b32:	6078      	str	r0, [r7, #4]
10002b34:	000a      	movs	r2, r1
10002b36:	1cfb      	adds	r3, r7, #3
10002b38:	701a      	strb	r2, [r3, #0]
10002b3a:	1cfb      	adds	r3, r7, #3
10002b3c:	781b      	ldrb	r3, [r3, #0]
10002b3e:	2b00      	cmp	r3, #0
10002b40:	d005      	beq.n	10002b4e <ph_get_node+0x22>
10002b42:	687b      	ldr	r3, [r7, #4]
10002b44:	7b1b      	ldrb	r3, [r3, #12]
10002b46:	1cfa      	adds	r2, r7, #3
10002b48:	7812      	ldrb	r2, [r2, #0]
10002b4a:	429a      	cmp	r2, r3
10002b4c:	d905      	bls.n	10002b5a <ph_get_node+0x2e>
10002b4e:	4b09      	ldr	r3, [pc, #36]	@ (10002b74 <ph_get_node+0x48>)
10002b50:	4a09      	ldr	r2, [pc, #36]	@ (10002b78 <ph_get_node+0x4c>)
10002b52:	480a      	ldr	r0, [pc, #40]	@ (10002b7c <ph_get_node+0x50>)
10002b54:	2168      	movs	r1, #104	@ 0x68
10002b56:	f001 f90f 	bl	10003d78 <__assert_func>
10002b5a:	687b      	ldr	r3, [r7, #4]
10002b5c:	6819      	ldr	r1, [r3, #0]
10002b5e:	1cfb      	adds	r3, r7, #3
10002b60:	781a      	ldrb	r2, [r3, #0]
10002b62:	0013      	movs	r3, r2
10002b64:	005b      	lsls	r3, r3, #1
10002b66:	189b      	adds	r3, r3, r2
10002b68:	3b03      	subs	r3, #3
10002b6a:	18cb      	adds	r3, r1, r3
10002b6c:	0018      	movs	r0, r3
10002b6e:	46bd      	mov	sp, r7
10002b70:	b002      	add	sp, #8
10002b72:	bd80      	pop	{r7, pc}
10002b74:	10009cc0 	.word	0x10009cc0
10002b78:	10009e5c 	.word	0x10009e5c
10002b7c:	10009cdc 	.word	0x10009cdc

10002b80 <ph_add_child_node>:
10002b80:	b580      	push	{r7, lr}
10002b82:	b084      	sub	sp, #16
10002b84:	af00      	add	r7, sp, #0
10002b86:	6078      	str	r0, [r7, #4]
10002b88:	0008      	movs	r0, r1
10002b8a:	0011      	movs	r1, r2
10002b8c:	1cfb      	adds	r3, r7, #3
10002b8e:	1c02      	adds	r2, r0, #0
10002b90:	701a      	strb	r2, [r3, #0]
10002b92:	1cbb      	adds	r3, r7, #2
10002b94:	1c0a      	adds	r2, r1, #0
10002b96:	701a      	strb	r2, [r3, #0]
10002b98:	1cfb      	adds	r3, r7, #3
10002b9a:	781a      	ldrb	r2, [r3, #0]
10002b9c:	687b      	ldr	r3, [r7, #4]
10002b9e:	0011      	movs	r1, r2
10002ba0:	0018      	movs	r0, r3
10002ba2:	f7ff ffc3 	bl	10002b2c <ph_get_node>
10002ba6:	0003      	movs	r3, r0
10002ba8:	60fb      	str	r3, [r7, #12]
10002baa:	1cfb      	adds	r3, r7, #3
10002bac:	781b      	ldrb	r3, [r3, #0]
10002bae:	2b00      	cmp	r3, #0
10002bb0:	d105      	bne.n	10002bbe <ph_add_child_node+0x3e>
10002bb2:	4b1f      	ldr	r3, [pc, #124]	@ (10002c30 <ph_add_child_node+0xb0>)
10002bb4:	4a1f      	ldr	r2, [pc, #124]	@ (10002c34 <ph_add_child_node+0xb4>)
10002bb6:	4820      	ldr	r0, [pc, #128]	@ (10002c38 <ph_add_child_node+0xb8>)
10002bb8:	216f      	movs	r1, #111	@ 0x6f
10002bba:	f001 f8dd 	bl	10003d78 <__assert_func>
10002bbe:	1cbb      	adds	r3, r7, #2
10002bc0:	781b      	ldrb	r3, [r3, #0]
10002bc2:	2b00      	cmp	r3, #0
10002bc4:	d105      	bne.n	10002bd2 <ph_add_child_node+0x52>
10002bc6:	4b1d      	ldr	r3, [pc, #116]	@ (10002c3c <ph_add_child_node+0xbc>)
10002bc8:	4a1a      	ldr	r2, [pc, #104]	@ (10002c34 <ph_add_child_node+0xb4>)
10002bca:	481b      	ldr	r0, [pc, #108]	@ (10002c38 <ph_add_child_node+0xb8>)
10002bcc:	2170      	movs	r1, #112	@ 0x70
10002bce:	f001 f8d3 	bl	10003d78 <__assert_func>
10002bd2:	1cfa      	adds	r2, r7, #3
10002bd4:	1cbb      	adds	r3, r7, #2
10002bd6:	7812      	ldrb	r2, [r2, #0]
10002bd8:	781b      	ldrb	r3, [r3, #0]
10002bda:	429a      	cmp	r2, r3
10002bdc:	d105      	bne.n	10002bea <ph_add_child_node+0x6a>
10002bde:	4b18      	ldr	r3, [pc, #96]	@ (10002c40 <ph_add_child_node+0xc0>)
10002be0:	4a14      	ldr	r2, [pc, #80]	@ (10002c34 <ph_add_child_node+0xb4>)
10002be2:	4815      	ldr	r0, [pc, #84]	@ (10002c38 <ph_add_child_node+0xb8>)
10002be4:	2171      	movs	r1, #113	@ 0x71
10002be6:	f001 f8c7 	bl	10003d78 <__assert_func>
10002bea:	1cbb      	adds	r3, r7, #2
10002bec:	781a      	ldrb	r2, [r3, #0]
10002bee:	687b      	ldr	r3, [r7, #4]
10002bf0:	0011      	movs	r1, r2
10002bf2:	0018      	movs	r0, r3
10002bf4:	f7ff ff9a 	bl	10002b2c <ph_get_node>
10002bf8:	0003      	movs	r3, r0
10002bfa:	60bb      	str	r3, [r7, #8]
10002bfc:	68bb      	ldr	r3, [r7, #8]
10002bfe:	1cfa      	adds	r2, r7, #3
10002c00:	7812      	ldrb	r2, [r2, #0]
10002c02:	709a      	strb	r2, [r3, #2]
10002c04:	68fb      	ldr	r3, [r7, #12]
10002c06:	781b      	ldrb	r3, [r3, #0]
10002c08:	2b00      	cmp	r3, #0
10002c0a:	d104      	bne.n	10002c16 <ph_add_child_node+0x96>
10002c0c:	68fb      	ldr	r3, [r7, #12]
10002c0e:	1cba      	adds	r2, r7, #2
10002c10:	7812      	ldrb	r2, [r2, #0]
10002c12:	701a      	strb	r2, [r3, #0]
10002c14:	e007      	b.n	10002c26 <ph_add_child_node+0xa6>
10002c16:	68fb      	ldr	r3, [r7, #12]
10002c18:	781a      	ldrb	r2, [r3, #0]
10002c1a:	68bb      	ldr	r3, [r7, #8]
10002c1c:	705a      	strb	r2, [r3, #1]
10002c1e:	68fb      	ldr	r3, [r7, #12]
10002c20:	1cba      	adds	r2, r7, #2
10002c22:	7812      	ldrb	r2, [r2, #0]
10002c24:	701a      	strb	r2, [r3, #0]
10002c26:	46c0      	nop			@ (mov r8, r8)
10002c28:	46bd      	mov	sp, r7
10002c2a:	b004      	add	sp, #16
10002c2c:	bd80      	pop	{r7, pc}
10002c2e:	46c0      	nop			@ (mov r8, r8)
10002c30:	10009d28 	.word	0x10009d28
10002c34:	10009e48 	.word	0x10009e48
10002c38:	10009cdc 	.word	0x10009cdc
10002c3c:	10009d34 	.word	0x10009d34
10002c40:	10009d40 	.word	0x10009d40

10002c44 <ph_merge_nodes>:
10002c44:	b590      	push	{r4, r7, lr}
10002c46:	b083      	sub	sp, #12
10002c48:	af00      	add	r7, sp, #0
10002c4a:	6078      	str	r0, [r7, #4]
10002c4c:	0008      	movs	r0, r1
10002c4e:	0011      	movs	r1, r2
10002c50:	1cfb      	adds	r3, r7, #3
10002c52:	1c02      	adds	r2, r0, #0
10002c54:	701a      	strb	r2, [r3, #0]
10002c56:	1cbb      	adds	r3, r7, #2
10002c58:	1c0a      	adds	r2, r1, #0
10002c5a:	701a      	strb	r2, [r3, #0]
10002c5c:	1cfb      	adds	r3, r7, #3
10002c5e:	781b      	ldrb	r3, [r3, #0]
10002c60:	2b00      	cmp	r3, #0
10002c62:	d102      	bne.n	10002c6a <ph_merge_nodes+0x26>
10002c64:	1cbb      	adds	r3, r7, #2
10002c66:	781b      	ldrb	r3, [r3, #0]
10002c68:	e027      	b.n	10002cba <ph_merge_nodes+0x76>
10002c6a:	1cbb      	adds	r3, r7, #2
10002c6c:	781b      	ldrb	r3, [r3, #0]
10002c6e:	2b00      	cmp	r3, #0
10002c70:	d102      	bne.n	10002c78 <ph_merge_nodes+0x34>
10002c72:	1cfb      	adds	r3, r7, #3
10002c74:	781b      	ldrb	r3, [r3, #0]
10002c76:	e020      	b.n	10002cba <ph_merge_nodes+0x76>
10002c78:	687b      	ldr	r3, [r7, #4]
10002c7a:	685c      	ldr	r4, [r3, #4]
10002c7c:	687b      	ldr	r3, [r7, #4]
10002c7e:	6898      	ldr	r0, [r3, #8]
10002c80:	1cbb      	adds	r3, r7, #2
10002c82:	781a      	ldrb	r2, [r3, #0]
10002c84:	1cfb      	adds	r3, r7, #3
10002c86:	781b      	ldrb	r3, [r3, #0]
10002c88:	0019      	movs	r1, r3
10002c8a:	47a0      	blx	r4
10002c8c:	1e03      	subs	r3, r0, #0
10002c8e:	d00a      	beq.n	10002ca6 <ph_merge_nodes+0x62>
10002c90:	1cbb      	adds	r3, r7, #2
10002c92:	781a      	ldrb	r2, [r3, #0]
10002c94:	1cfb      	adds	r3, r7, #3
10002c96:	7819      	ldrb	r1, [r3, #0]
10002c98:	687b      	ldr	r3, [r7, #4]
10002c9a:	0018      	movs	r0, r3
10002c9c:	f7ff ff70 	bl	10002b80 <ph_add_child_node>
10002ca0:	1cfb      	adds	r3, r7, #3
10002ca2:	781b      	ldrb	r3, [r3, #0]
10002ca4:	e009      	b.n	10002cba <ph_merge_nodes+0x76>
10002ca6:	1cfb      	adds	r3, r7, #3
10002ca8:	781a      	ldrb	r2, [r3, #0]
10002caa:	1cbb      	adds	r3, r7, #2
10002cac:	7819      	ldrb	r1, [r3, #0]
10002cae:	687b      	ldr	r3, [r7, #4]
10002cb0:	0018      	movs	r0, r3
10002cb2:	f7ff ff65 	bl	10002b80 <ph_add_child_node>
10002cb6:	1cbb      	adds	r3, r7, #2
10002cb8:	781b      	ldrb	r3, [r3, #0]
10002cba:	0018      	movs	r0, r3
10002cbc:	46bd      	mov	sp, r7
10002cbe:	b003      	add	sp, #12
10002cc0:	bd90      	pop	{r4, r7, pc}

10002cc2 <ph_peek_head>:
10002cc2:	b580      	push	{r7, lr}
10002cc4:	b082      	sub	sp, #8
10002cc6:	af00      	add	r7, sp, #0
10002cc8:	6078      	str	r0, [r7, #4]
10002cca:	687b      	ldr	r3, [r7, #4]
10002ccc:	7b5b      	ldrb	r3, [r3, #13]
10002cce:	0018      	movs	r0, r3
10002cd0:	46bd      	mov	sp, r7
10002cd2:	b002      	add	sp, #8
10002cd4:	bd80      	pop	{r7, pc}

10002cd6 <ph_remove_and_free_head>:
10002cd6:	b580      	push	{r7, lr}
10002cd8:	b082      	sub	sp, #8
10002cda:	af00      	add	r7, sp, #0
10002cdc:	6078      	str	r0, [r7, #4]
10002cde:	687b      	ldr	r3, [r7, #4]
10002ce0:	2101      	movs	r1, #1
10002ce2:	0018      	movs	r0, r3
10002ce4:	f000 f962 	bl	10002fac <ph_remove_head>
10002ce8:	0003      	movs	r3, r0
10002cea:	0018      	movs	r0, r3
10002cec:	46bd      	mov	sp, r7
10002cee:	b002      	add	sp, #8
10002cf0:	bd80      	pop	{r7, pc}

10002cf2 <ph_post_alloc_init>:
10002cf2:	b580      	push	{r7, lr}
10002cf4:	b084      	sub	sp, #16
10002cf6:	af00      	add	r7, sp, #0
10002cf8:	60f8      	str	r0, [r7, #12]
10002cfa:	60b9      	str	r1, [r7, #8]
10002cfc:	607a      	str	r2, [r7, #4]
10002cfe:	603b      	str	r3, [r7, #0]
10002d00:	68bb      	ldr	r3, [r7, #8]
10002d02:	b2da      	uxtb	r2, r3
10002d04:	68fb      	ldr	r3, [r7, #12]
10002d06:	731a      	strb	r2, [r3, #12]
10002d08:	68fb      	ldr	r3, [r7, #12]
10002d0a:	687a      	ldr	r2, [r7, #4]
10002d0c:	605a      	str	r2, [r3, #4]
10002d0e:	68fb      	ldr	r3, [r7, #12]
10002d10:	683a      	ldr	r2, [r7, #0]
10002d12:	609a      	str	r2, [r3, #8]
10002d14:	68fb      	ldr	r3, [r7, #12]
10002d16:	0018      	movs	r0, r3
10002d18:	f000 f804 	bl	10002d24 <ph_clear>
10002d1c:	46c0      	nop			@ (mov r8, r8)
10002d1e:	46bd      	mov	sp, r7
10002d20:	b004      	add	sp, #16
10002d22:	bd80      	pop	{r7, pc}

10002d24 <ph_clear>:
10002d24:	b590      	push	{r4, r7, lr}
10002d26:	b085      	sub	sp, #20
10002d28:	af00      	add	r7, sp, #0
10002d2a:	6078      	str	r0, [r7, #4]
10002d2c:	687b      	ldr	r3, [r7, #4]
10002d2e:	2200      	movs	r2, #0
10002d30:	735a      	strb	r2, [r3, #13]
10002d32:	687b      	ldr	r3, [r7, #4]
10002d34:	2201      	movs	r2, #1
10002d36:	739a      	strb	r2, [r3, #14]
10002d38:	687b      	ldr	r3, [r7, #4]
10002d3a:	7b1a      	ldrb	r2, [r3, #12]
10002d3c:	687b      	ldr	r3, [r7, #4]
10002d3e:	73da      	strb	r2, [r3, #15]
10002d40:	230f      	movs	r3, #15
10002d42:	18fb      	adds	r3, r7, r3
10002d44:	2201      	movs	r2, #1
10002d46:	701a      	strb	r2, [r3, #0]
10002d48:	e013      	b.n	10002d72 <ph_clear+0x4e>
10002d4a:	240f      	movs	r4, #15
10002d4c:	193b      	adds	r3, r7, r4
10002d4e:	781a      	ldrb	r2, [r3, #0]
10002d50:	687b      	ldr	r3, [r7, #4]
10002d52:	0011      	movs	r1, r2
10002d54:	0018      	movs	r0, r3
10002d56:	f7ff fee9 	bl	10002b2c <ph_get_node>
10002d5a:	0002      	movs	r2, r0
10002d5c:	0021      	movs	r1, r4
10002d5e:	187b      	adds	r3, r7, r1
10002d60:	781b      	ldrb	r3, [r3, #0]
10002d62:	3301      	adds	r3, #1
10002d64:	b2db      	uxtb	r3, r3
10002d66:	7053      	strb	r3, [r2, #1]
10002d68:	187b      	adds	r3, r7, r1
10002d6a:	781a      	ldrb	r2, [r3, #0]
10002d6c:	187b      	adds	r3, r7, r1
10002d6e:	3201      	adds	r2, #1
10002d70:	701a      	strb	r2, [r3, #0]
10002d72:	687b      	ldr	r3, [r7, #4]
10002d74:	7b1b      	ldrb	r3, [r3, #12]
10002d76:	220f      	movs	r2, #15
10002d78:	18ba      	adds	r2, r7, r2
10002d7a:	7812      	ldrb	r2, [r2, #0]
10002d7c:	429a      	cmp	r2, r3
10002d7e:	d3e4      	bcc.n	10002d4a <ph_clear+0x26>
10002d80:	687b      	ldr	r3, [r7, #4]
10002d82:	7b1a      	ldrb	r2, [r3, #12]
10002d84:	687b      	ldr	r3, [r7, #4]
10002d86:	0011      	movs	r1, r2
10002d88:	0018      	movs	r0, r3
10002d8a:	f7ff fecf 	bl	10002b2c <ph_get_node>
10002d8e:	0003      	movs	r3, r0
10002d90:	2200      	movs	r2, #0
10002d92:	705a      	strb	r2, [r3, #1]
10002d94:	46c0      	nop			@ (mov r8, r8)
10002d96:	46bd      	mov	sp, r7
10002d98:	b005      	add	sp, #20
10002d9a:	bd90      	pop	{r4, r7, pc}

10002d9c <ph_merge_two_pass>:
10002d9c:	b5f0      	push	{r4, r5, r6, r7, lr}
10002d9e:	b085      	sub	sp, #20
10002da0:	af00      	add	r7, sp, #0
10002da2:	6078      	str	r0, [r7, #4]
10002da4:	000a      	movs	r2, r1
10002da6:	1cfb      	adds	r3, r7, #3
10002da8:	701a      	strb	r2, [r3, #0]
10002daa:	1cfb      	adds	r3, r7, #3
10002dac:	781b      	ldrb	r3, [r3, #0]
10002dae:	2b00      	cmp	r3, #0
10002db0:	d00a      	beq.n	10002dc8 <ph_merge_two_pass+0x2c>
10002db2:	1cfb      	adds	r3, r7, #3
10002db4:	781a      	ldrb	r2, [r3, #0]
10002db6:	687b      	ldr	r3, [r7, #4]
10002db8:	0011      	movs	r1, r2
10002dba:	0018      	movs	r0, r3
10002dbc:	f7ff feb6 	bl	10002b2c <ph_get_node>
10002dc0:	0003      	movs	r3, r0
10002dc2:	785b      	ldrb	r3, [r3, #1]
10002dc4:	2b00      	cmp	r3, #0
10002dc6:	d102      	bne.n	10002dce <ph_merge_two_pass+0x32>
10002dc8:	1cfb      	adds	r3, r7, #3
10002dca:	781b      	ldrb	r3, [r3, #0]
10002dcc:	e04a      	b.n	10002e64 <ph_merge_two_pass+0xc8>
10002dce:	260f      	movs	r6, #15
10002dd0:	19bb      	adds	r3, r7, r6
10002dd2:	1cfa      	adds	r2, r7, #3
10002dd4:	7812      	ldrb	r2, [r2, #0]
10002dd6:	701a      	strb	r2, [r3, #0]
10002dd8:	1cfb      	adds	r3, r7, #3
10002dda:	781a      	ldrb	r2, [r3, #0]
10002ddc:	687b      	ldr	r3, [r7, #4]
10002dde:	0011      	movs	r1, r2
10002de0:	0018      	movs	r0, r3
10002de2:	f7ff fea3 	bl	10002b2c <ph_get_node>
10002de6:	0002      	movs	r2, r0
10002de8:	250e      	movs	r5, #14
10002dea:	197b      	adds	r3, r7, r5
10002dec:	7852      	ldrb	r2, [r2, #1]
10002dee:	701a      	strb	r2, [r3, #0]
10002df0:	197b      	adds	r3, r7, r5
10002df2:	781a      	ldrb	r2, [r3, #0]
10002df4:	687b      	ldr	r3, [r7, #4]
10002df6:	0011      	movs	r1, r2
10002df8:	0018      	movs	r0, r3
10002dfa:	f7ff fe97 	bl	10002b2c <ph_get_node>
10002dfe:	0002      	movs	r2, r0
10002e00:	230d      	movs	r3, #13
10002e02:	18fb      	adds	r3, r7, r3
10002e04:	7852      	ldrb	r2, [r2, #1]
10002e06:	701a      	strb	r2, [r3, #0]
10002e08:	197b      	adds	r3, r7, r5
10002e0a:	781a      	ldrb	r2, [r3, #0]
10002e0c:	687b      	ldr	r3, [r7, #4]
10002e0e:	0011      	movs	r1, r2
10002e10:	0018      	movs	r0, r3
10002e12:	f7ff fe8b 	bl	10002b2c <ph_get_node>
10002e16:	0004      	movs	r4, r0
10002e18:	2300      	movs	r3, #0
10002e1a:	7063      	strb	r3, [r4, #1]
10002e1c:	19bb      	adds	r3, r7, r6
10002e1e:	781a      	ldrb	r2, [r3, #0]
10002e20:	687b      	ldr	r3, [r7, #4]
10002e22:	0011      	movs	r1, r2
10002e24:	0018      	movs	r0, r3
10002e26:	f7ff fe81 	bl	10002b2c <ph_get_node>
10002e2a:	0003      	movs	r3, r0
10002e2c:	7862      	ldrb	r2, [r4, #1]
10002e2e:	705a      	strb	r2, [r3, #1]
10002e30:	197b      	adds	r3, r7, r5
10002e32:	781a      	ldrb	r2, [r3, #0]
10002e34:	19bb      	adds	r3, r7, r6
10002e36:	7819      	ldrb	r1, [r3, #0]
10002e38:	687b      	ldr	r3, [r7, #4]
10002e3a:	0018      	movs	r0, r3
10002e3c:	f7ff ff02 	bl	10002c44 <ph_merge_nodes>
10002e40:	0003      	movs	r3, r0
10002e42:	001c      	movs	r4, r3
10002e44:	230d      	movs	r3, #13
10002e46:	18fb      	adds	r3, r7, r3
10002e48:	781a      	ldrb	r2, [r3, #0]
10002e4a:	687b      	ldr	r3, [r7, #4]
10002e4c:	0011      	movs	r1, r2
10002e4e:	0018      	movs	r0, r3
10002e50:	f7ff ffa4 	bl	10002d9c <ph_merge_two_pass>
10002e54:	0003      	movs	r3, r0
10002e56:	001a      	movs	r2, r3
10002e58:	687b      	ldr	r3, [r7, #4]
10002e5a:	0021      	movs	r1, r4
10002e5c:	0018      	movs	r0, r3
10002e5e:	f7ff fef1 	bl	10002c44 <ph_merge_nodes>
10002e62:	0003      	movs	r3, r0
10002e64:	0018      	movs	r0, r3
10002e66:	46bd      	mov	sp, r7
10002e68:	b005      	add	sp, #20
10002e6a:	bdf0      	pop	{r4, r5, r6, r7, pc}

10002e6c <ph_remove_any_head>:
10002e6c:	b590      	push	{r4, r7, lr}
10002e6e:	b085      	sub	sp, #20
10002e70:	af00      	add	r7, sp, #0
10002e72:	6078      	str	r0, [r7, #4]
10002e74:	0008      	movs	r0, r1
10002e76:	0011      	movs	r1, r2
10002e78:	1cfb      	adds	r3, r7, #3
10002e7a:	1c02      	adds	r2, r0, #0
10002e7c:	701a      	strb	r2, [r3, #0]
10002e7e:	1cbb      	adds	r3, r7, #2
10002e80:	1c0a      	adds	r2, r1, #0
10002e82:	701a      	strb	r2, [r3, #0]
10002e84:	1cfb      	adds	r3, r7, #3
10002e86:	781b      	ldrb	r3, [r3, #0]
10002e88:	2b00      	cmp	r3, #0
10002e8a:	d105      	bne.n	10002e98 <ph_remove_any_head+0x2c>
10002e8c:	4b41      	ldr	r3, [pc, #260]	@ (10002f94 <ph_remove_any_head+0x128>)
10002e8e:	4a42      	ldr	r2, [pc, #264]	@ (10002f98 <ph_remove_any_head+0x12c>)
10002e90:	4842      	ldr	r0, [pc, #264]	@ (10002f9c <ph_remove_any_head+0x130>)
10002e92:	2138      	movs	r1, #56	@ 0x38
10002e94:	f000 ff70 	bl	10003d78 <__assert_func>
10002e98:	1cfb      	adds	r3, r7, #3
10002e9a:	781a      	ldrb	r2, [r3, #0]
10002e9c:	687b      	ldr	r3, [r7, #4]
10002e9e:	0011      	movs	r1, r2
10002ea0:	0018      	movs	r0, r3
10002ea2:	f7ff fe43 	bl	10002b2c <ph_get_node>
10002ea6:	0003      	movs	r3, r0
10002ea8:	785b      	ldrb	r3, [r3, #1]
10002eaa:	2b00      	cmp	r3, #0
10002eac:	d005      	beq.n	10002eba <ph_remove_any_head+0x4e>
10002eae:	4b3c      	ldr	r3, [pc, #240]	@ (10002fa0 <ph_remove_any_head+0x134>)
10002eb0:	4a39      	ldr	r2, [pc, #228]	@ (10002f98 <ph_remove_any_head+0x12c>)
10002eb2:	483a      	ldr	r0, [pc, #232]	@ (10002f9c <ph_remove_any_head+0x130>)
10002eb4:	213a      	movs	r1, #58	@ 0x3a
10002eb6:	f000 ff5f 	bl	10003d78 <__assert_func>
10002eba:	1cfb      	adds	r3, r7, #3
10002ebc:	781a      	ldrb	r2, [r3, #0]
10002ebe:	687b      	ldr	r3, [r7, #4]
10002ec0:	0011      	movs	r1, r2
10002ec2:	0018      	movs	r0, r3
10002ec4:	f7ff fe32 	bl	10002b2c <ph_get_node>
10002ec8:	0003      	movs	r3, r0
10002eca:	789b      	ldrb	r3, [r3, #2]
10002ecc:	2b00      	cmp	r3, #0
10002ece:	d005      	beq.n	10002edc <ph_remove_any_head+0x70>
10002ed0:	4b34      	ldr	r3, [pc, #208]	@ (10002fa4 <ph_remove_any_head+0x138>)
10002ed2:	4a31      	ldr	r2, [pc, #196]	@ (10002f98 <ph_remove_any_head+0x12c>)
10002ed4:	4831      	ldr	r0, [pc, #196]	@ (10002f9c <ph_remove_any_head+0x130>)
10002ed6:	213b      	movs	r1, #59	@ 0x3b
10002ed8:	f000 ff4e 	bl	10003d78 <__assert_func>
10002edc:	1cfb      	adds	r3, r7, #3
10002ede:	781a      	ldrb	r2, [r3, #0]
10002ee0:	687b      	ldr	r3, [r7, #4]
10002ee2:	0011      	movs	r1, r2
10002ee4:	0018      	movs	r0, r3
10002ee6:	f7ff fe21 	bl	10002b2c <ph_get_node>
10002eea:	0003      	movs	r3, r0
10002eec:	781a      	ldrb	r2, [r3, #0]
10002eee:	230f      	movs	r3, #15
10002ef0:	18fc      	adds	r4, r7, r3
10002ef2:	687b      	ldr	r3, [r7, #4]
10002ef4:	0011      	movs	r1, r2
10002ef6:	0018      	movs	r0, r3
10002ef8:	f7ff ff50 	bl	10002d9c <ph_merge_two_pass>
10002efc:	0003      	movs	r3, r0
10002efe:	7023      	strb	r3, [r4, #0]
10002f00:	1cbb      	adds	r3, r7, #2
10002f02:	781b      	ldrb	r3, [r3, #0]
10002f04:	2b00      	cmp	r3, #0
10002f06:	d024      	beq.n	10002f52 <ph_remove_any_head+0xe6>
10002f08:	687b      	ldr	r3, [r7, #4]
10002f0a:	7bdb      	ldrb	r3, [r3, #15]
10002f0c:	2b00      	cmp	r3, #0
10002f0e:	d00a      	beq.n	10002f26 <ph_remove_any_head+0xba>
10002f10:	687b      	ldr	r3, [r7, #4]
10002f12:	7bda      	ldrb	r2, [r3, #15]
10002f14:	687b      	ldr	r3, [r7, #4]
10002f16:	0011      	movs	r1, r2
10002f18:	0018      	movs	r0, r3
10002f1a:	f7ff fe07 	bl	10002b2c <ph_get_node>
10002f1e:	0002      	movs	r2, r0
10002f20:	1cfb      	adds	r3, r7, #3
10002f22:	781b      	ldrb	r3, [r3, #0]
10002f24:	7053      	strb	r3, [r2, #1]
10002f26:	687b      	ldr	r3, [r7, #4]
10002f28:	7b9b      	ldrb	r3, [r3, #14]
10002f2a:	2b00      	cmp	r3, #0
10002f2c:	d10d      	bne.n	10002f4a <ph_remove_any_head+0xde>
10002f2e:	687b      	ldr	r3, [r7, #4]
10002f30:	7bdb      	ldrb	r3, [r3, #15]
10002f32:	2b00      	cmp	r3, #0
10002f34:	d005      	beq.n	10002f42 <ph_remove_any_head+0xd6>
10002f36:	4b1c      	ldr	r3, [pc, #112]	@ (10002fa8 <ph_remove_any_head+0x13c>)
10002f38:	4a17      	ldr	r2, [pc, #92]	@ (10002f98 <ph_remove_any_head+0x12c>)
10002f3a:	4818      	ldr	r0, [pc, #96]	@ (10002f9c <ph_remove_any_head+0x130>)
10002f3c:	2142      	movs	r1, #66	@ 0x42
10002f3e:	f000 ff1b 	bl	10003d78 <__assert_func>
10002f42:	687b      	ldr	r3, [r7, #4]
10002f44:	1cfa      	adds	r2, r7, #3
10002f46:	7812      	ldrb	r2, [r2, #0]
10002f48:	739a      	strb	r2, [r3, #14]
10002f4a:	687b      	ldr	r3, [r7, #4]
10002f4c:	1cfa      	adds	r2, r7, #3
10002f4e:	7812      	ldrb	r2, [r2, #0]
10002f50:	73da      	strb	r2, [r3, #15]
10002f52:	220f      	movs	r2, #15
10002f54:	18bb      	adds	r3, r7, r2
10002f56:	781b      	ldrb	r3, [r3, #0]
10002f58:	2b00      	cmp	r3, #0
10002f5a:	d009      	beq.n	10002f70 <ph_remove_any_head+0x104>
10002f5c:	18bb      	adds	r3, r7, r2
10002f5e:	781a      	ldrb	r2, [r3, #0]
10002f60:	687b      	ldr	r3, [r7, #4]
10002f62:	0011      	movs	r1, r2
10002f64:	0018      	movs	r0, r3
10002f66:	f7ff fde1 	bl	10002b2c <ph_get_node>
10002f6a:	0003      	movs	r3, r0
10002f6c:	2200      	movs	r2, #0
10002f6e:	709a      	strb	r2, [r3, #2]
10002f70:	1cfb      	adds	r3, r7, #3
10002f72:	781a      	ldrb	r2, [r3, #0]
10002f74:	687b      	ldr	r3, [r7, #4]
10002f76:	0011      	movs	r1, r2
10002f78:	0018      	movs	r0, r3
10002f7a:	f7ff fdd7 	bl	10002b2c <ph_get_node>
10002f7e:	0003      	movs	r3, r0
10002f80:	2200      	movs	r2, #0
10002f82:	705a      	strb	r2, [r3, #1]
10002f84:	230f      	movs	r3, #15
10002f86:	18fb      	adds	r3, r7, r3
10002f88:	781b      	ldrb	r3, [r3, #0]
10002f8a:	0018      	movs	r0, r3
10002f8c:	46bd      	mov	sp, r7
10002f8e:	b005      	add	sp, #20
10002f90:	bd90      	pop	{r4, r7, pc}
10002f92:	46c0      	nop			@ (mov r8, r8)
10002f94:	10009d58 	.word	0x10009d58
10002f98:	10009e68 	.word	0x10009e68
10002f9c:	10009d60 	.word	0x10009d60
10002fa0:	10009d98 	.word	0x10009d98
10002fa4:	10009dc0 	.word	0x10009dc0
10002fa8:	10009de4 	.word	0x10009de4

10002fac <ph_remove_head>:
10002fac:	b5b0      	push	{r4, r5, r7, lr}
10002fae:	b084      	sub	sp, #16
10002fb0:	af00      	add	r7, sp, #0
10002fb2:	6078      	str	r0, [r7, #4]
10002fb4:	000a      	movs	r2, r1
10002fb6:	1cfb      	adds	r3, r7, #3
10002fb8:	701a      	strb	r2, [r3, #0]
10002fba:	250f      	movs	r5, #15
10002fbc:	197c      	adds	r4, r7, r5
10002fbe:	687b      	ldr	r3, [r7, #4]
10002fc0:	0018      	movs	r0, r3
10002fc2:	f7ff fe7e 	bl	10002cc2 <ph_peek_head>
10002fc6:	0003      	movs	r3, r0
10002fc8:	7023      	strb	r3, [r4, #0]
10002fca:	1cfb      	adds	r3, r7, #3
10002fcc:	781a      	ldrb	r2, [r3, #0]
10002fce:	002c      	movs	r4, r5
10002fd0:	193b      	adds	r3, r7, r4
10002fd2:	7819      	ldrb	r1, [r3, #0]
10002fd4:	687b      	ldr	r3, [r7, #4]
10002fd6:	0018      	movs	r0, r3
10002fd8:	f7ff ff48 	bl	10002e6c <ph_remove_any_head>
10002fdc:	0003      	movs	r3, r0
10002fde:	001a      	movs	r2, r3
10002fe0:	687b      	ldr	r3, [r7, #4]
10002fe2:	735a      	strb	r2, [r3, #13]
10002fe4:	193b      	adds	r3, r7, r4
10002fe6:	781b      	ldrb	r3, [r3, #0]
10002fe8:	0018      	movs	r0, r3
10002fea:	46bd      	mov	sp, r7
10002fec:	b004      	add	sp, #16
10002fee:	bdb0      	pop	{r4, r5, r7, pc}

10002ff0 <ph_remove_and_free_node>:
10002ff0:	b5b0      	push	{r4, r5, r7, lr}
10002ff2:	b088      	sub	sp, #32
10002ff4:	af00      	add	r7, sp, #0
10002ff6:	6078      	str	r0, [r7, #4]
10002ff8:	000a      	movs	r2, r1
10002ffa:	1cfb      	adds	r3, r7, #3
10002ffc:	701a      	strb	r2, [r3, #0]
10002ffe:	1cfb      	adds	r3, r7, #3
10003000:	781b      	ldrb	r3, [r3, #0]
10003002:	2b00      	cmp	r3, #0
10003004:	d101      	bne.n	1000300a <ph_remove_and_free_node+0x1a>
10003006:	2300      	movs	r3, #0
10003008:	e090      	b.n	1000312c <ph_remove_and_free_node+0x13c>
1000300a:	687b      	ldr	r3, [r7, #4]
1000300c:	7b5b      	ldrb	r3, [r3, #13]
1000300e:	1cfa      	adds	r2, r7, #3
10003010:	7812      	ldrb	r2, [r2, #0]
10003012:	429a      	cmp	r2, r3
10003014:	d105      	bne.n	10003022 <ph_remove_and_free_node+0x32>
10003016:	687b      	ldr	r3, [r7, #4]
10003018:	0018      	movs	r0, r3
1000301a:	f7ff fe5c 	bl	10002cd6 <ph_remove_and_free_head>
1000301e:	2301      	movs	r3, #1
10003020:	e084      	b.n	1000312c <ph_remove_and_free_node+0x13c>
10003022:	1cfb      	adds	r3, r7, #3
10003024:	781a      	ldrb	r2, [r3, #0]
10003026:	687b      	ldr	r3, [r7, #4]
10003028:	0011      	movs	r1, r2
1000302a:	0018      	movs	r0, r3
1000302c:	f7ff fd7e 	bl	10002b2c <ph_get_node>
10003030:	0003      	movs	r3, r0
10003032:	61bb      	str	r3, [r7, #24]
10003034:	69bb      	ldr	r3, [r7, #24]
10003036:	789b      	ldrb	r3, [r3, #2]
10003038:	2b00      	cmp	r3, #0
1000303a:	d101      	bne.n	10003040 <ph_remove_and_free_node+0x50>
1000303c:	2300      	movs	r3, #0
1000303e:	e075      	b.n	1000312c <ph_remove_and_free_node+0x13c>
10003040:	69bb      	ldr	r3, [r7, #24]
10003042:	789a      	ldrb	r2, [r3, #2]
10003044:	687b      	ldr	r3, [r7, #4]
10003046:	0011      	movs	r1, r2
10003048:	0018      	movs	r0, r3
1000304a:	f7ff fd6f 	bl	10002b2c <ph_get_node>
1000304e:	0003      	movs	r3, r0
10003050:	617b      	str	r3, [r7, #20]
10003052:	697b      	ldr	r3, [r7, #20]
10003054:	781b      	ldrb	r3, [r3, #0]
10003056:	1cfa      	adds	r2, r7, #3
10003058:	7812      	ldrb	r2, [r2, #0]
1000305a:	429a      	cmp	r2, r3
1000305c:	d104      	bne.n	10003068 <ph_remove_and_free_node+0x78>
1000305e:	69bb      	ldr	r3, [r7, #24]
10003060:	785a      	ldrb	r2, [r3, #1]
10003062:	697b      	ldr	r3, [r7, #20]
10003064:	701a      	strb	r2, [r3, #0]
10003066:	e035      	b.n	100030d4 <ph_remove_and_free_node+0xe4>
10003068:	231f      	movs	r3, #31
1000306a:	18fb      	adds	r3, r7, r3
1000306c:	697a      	ldr	r2, [r7, #20]
1000306e:	7812      	ldrb	r2, [r2, #0]
10003070:	701a      	strb	r2, [r3, #0]
10003072:	231e      	movs	r3, #30
10003074:	18fb      	adds	r3, r7, r3
10003076:	2200      	movs	r2, #0
10003078:	701a      	strb	r2, [r3, #0]
1000307a:	231f      	movs	r3, #31
1000307c:	18fb      	adds	r3, r7, r3
1000307e:	781a      	ldrb	r2, [r3, #0]
10003080:	687b      	ldr	r3, [r7, #4]
10003082:	0011      	movs	r1, r2
10003084:	0018      	movs	r0, r3
10003086:	f7ff fd51 	bl	10002b2c <ph_get_node>
1000308a:	0003      	movs	r3, r0
1000308c:	613b      	str	r3, [r7, #16]
1000308e:	693b      	ldr	r3, [r7, #16]
10003090:	785b      	ldrb	r3, [r3, #1]
10003092:	1cfa      	adds	r2, r7, #3
10003094:	7812      	ldrb	r2, [r2, #0]
10003096:	429a      	cmp	r2, r3
10003098:	d108      	bne.n	100030ac <ph_remove_and_free_node+0xbc>
1000309a:	69bb      	ldr	r3, [r7, #24]
1000309c:	785a      	ldrb	r2, [r3, #1]
1000309e:	693b      	ldr	r3, [r7, #16]
100030a0:	705a      	strb	r2, [r3, #1]
100030a2:	231e      	movs	r3, #30
100030a4:	18fb      	adds	r3, r7, r3
100030a6:	2201      	movs	r2, #1
100030a8:	701a      	strb	r2, [r3, #0]
100030aa:	e008      	b.n	100030be <ph_remove_and_free_node+0xce>
100030ac:	211f      	movs	r1, #31
100030ae:	187b      	adds	r3, r7, r1
100030b0:	693a      	ldr	r2, [r7, #16]
100030b2:	7852      	ldrb	r2, [r2, #1]
100030b4:	701a      	strb	r2, [r3, #0]
100030b6:	187b      	adds	r3, r7, r1
100030b8:	781b      	ldrb	r3, [r3, #0]
100030ba:	2b00      	cmp	r3, #0
100030bc:	d1dd      	bne.n	1000307a <ph_remove_and_free_node+0x8a>
100030be:	231e      	movs	r3, #30
100030c0:	18fb      	adds	r3, r7, r3
100030c2:	781b      	ldrb	r3, [r3, #0]
100030c4:	2b00      	cmp	r3, #0
100030c6:	d105      	bne.n	100030d4 <ph_remove_and_free_node+0xe4>
100030c8:	4b1a      	ldr	r3, [pc, #104]	@ (10003134 <ph_remove_and_free_node+0x144>)
100030ca:	4a1b      	ldr	r2, [pc, #108]	@ (10003138 <ph_remove_and_free_node+0x148>)
100030cc:	481b      	ldr	r0, [pc, #108]	@ (1000313c <ph_remove_and_free_node+0x14c>)
100030ce:	216b      	movs	r1, #107	@ 0x6b
100030d0:	f000 fe52 	bl	10003d78 <__assert_func>
100030d4:	69bb      	ldr	r3, [r7, #24]
100030d6:	2200      	movs	r2, #0
100030d8:	709a      	strb	r2, [r3, #2]
100030da:	69bb      	ldr	r3, [r7, #24]
100030dc:	789a      	ldrb	r2, [r3, #2]
100030de:	69bb      	ldr	r3, [r7, #24]
100030e0:	705a      	strb	r2, [r3, #1]
100030e2:	250f      	movs	r5, #15
100030e4:	197c      	adds	r4, r7, r5
100030e6:	1cfb      	adds	r3, r7, #3
100030e8:	7819      	ldrb	r1, [r3, #0]
100030ea:	687b      	ldr	r3, [r7, #4]
100030ec:	2201      	movs	r2, #1
100030ee:	0018      	movs	r0, r3
100030f0:	f7ff febc 	bl	10002e6c <ph_remove_any_head>
100030f4:	0003      	movs	r3, r0
100030f6:	7023      	strb	r3, [r4, #0]
100030f8:	687b      	ldr	r3, [r7, #4]
100030fa:	7b5b      	ldrb	r3, [r3, #13]
100030fc:	197a      	adds	r2, r7, r5
100030fe:	7812      	ldrb	r2, [r2, #0]
10003100:	429a      	cmp	r2, r3
10003102:	d105      	bne.n	10003110 <ph_remove_and_free_node+0x120>
10003104:	4b0e      	ldr	r3, [pc, #56]	@ (10003140 <ph_remove_and_free_node+0x150>)
10003106:	4a0c      	ldr	r2, [pc, #48]	@ (10003138 <ph_remove_and_free_node+0x148>)
10003108:	480c      	ldr	r0, [pc, #48]	@ (1000313c <ph_remove_and_free_node+0x14c>)
1000310a:	2171      	movs	r1, #113	@ 0x71
1000310c:	f000 fe34 	bl	10003d78 <__assert_func>
10003110:	687b      	ldr	r3, [r7, #4]
10003112:	7b59      	ldrb	r1, [r3, #13]
10003114:	230f      	movs	r3, #15
10003116:	18fb      	adds	r3, r7, r3
10003118:	781a      	ldrb	r2, [r3, #0]
1000311a:	687b      	ldr	r3, [r7, #4]
1000311c:	0018      	movs	r0, r3
1000311e:	f7ff fd91 	bl	10002c44 <ph_merge_nodes>
10003122:	0003      	movs	r3, r0
10003124:	001a      	movs	r2, r3
10003126:	687b      	ldr	r3, [r7, #4]
10003128:	735a      	strb	r2, [r3, #13]
1000312a:	2301      	movs	r3, #1
1000312c:	0018      	movs	r0, r3
1000312e:	46bd      	mov	sp, r7
10003130:	b008      	add	sp, #32
10003132:	bdb0      	pop	{r4, r5, r7, pc}
10003134:	10009df8 	.word	0x10009df8
10003138:	10009e7c 	.word	0x10009e7c
1000313c:	10009d60 	.word	0x10009d60
10003140:	10009e00 	.word	0x10009e00

10003144 <uart_get_index>:
10003144:	b580      	push	{r7, lr}
10003146:	b082      	sub	sp, #8
10003148:	af00      	add	r7, sp, #0
1000314a:	6078      	str	r0, [r7, #4]
1000314c:	687b      	ldr	r3, [r7, #4]
1000314e:	4a05      	ldr	r2, [pc, #20]	@ (10003164 <uart_get_index+0x20>)
10003150:	4694      	mov	ip, r2
10003152:	4463      	add	r3, ip
10003154:	425a      	negs	r2, r3
10003156:	4153      	adcs	r3, r2
10003158:	b2db      	uxtb	r3, r3
1000315a:	0018      	movs	r0, r3
1000315c:	46bd      	mov	sp, r7
1000315e:	b002      	add	sp, #8
10003160:	bd80      	pop	{r7, pc}
10003162:	46c0      	nop			@ (mov r8, r8)
10003164:	bffc8000 	.word	0xbffc8000

10003168 <uart_get_hw>:
10003168:	b580      	push	{r7, lr}
1000316a:	b082      	sub	sp, #8
1000316c:	af00      	add	r7, sp, #0
1000316e:	6078      	str	r0, [r7, #4]
10003170:	687b      	ldr	r3, [r7, #4]
10003172:	0018      	movs	r0, r3
10003174:	f7ff ffe6 	bl	10003144 <uart_get_index>
10003178:	687b      	ldr	r3, [r7, #4]
1000317a:	0018      	movs	r0, r3
1000317c:	46bd      	mov	sp, r7
1000317e:	b002      	add	sp, #8
10003180:	bd80      	pop	{r7, pc}
	...

10003184 <reset_block>:
10003184:	b580      	push	{r7, lr}
10003186:	b084      	sub	sp, #16
10003188:	af00      	add	r7, sp, #0
1000318a:	6078      	str	r0, [r7, #4]
1000318c:	4b07      	ldr	r3, [pc, #28]	@ (100031ac <reset_block+0x28>)
1000318e:	60fb      	str	r3, [r7, #12]
10003190:	687b      	ldr	r3, [r7, #4]
10003192:	60bb      	str	r3, [r7, #8]
10003194:	68fb      	ldr	r3, [r7, #12]
10003196:	2280      	movs	r2, #128	@ 0x80
10003198:	0192      	lsls	r2, r2, #6
1000319a:	4313      	orrs	r3, r2
1000319c:	68ba      	ldr	r2, [r7, #8]
1000319e:	601a      	str	r2, [r3, #0]
100031a0:	46c0      	nop			@ (mov r8, r8)
100031a2:	46c0      	nop			@ (mov r8, r8)
100031a4:	46bd      	mov	sp, r7
100031a6:	b004      	add	sp, #16
100031a8:	bd80      	pop	{r7, pc}
100031aa:	46c0      	nop			@ (mov r8, r8)
100031ac:	4000c000 	.word	0x4000c000

100031b0 <unreset_block_wait>:
100031b0:	b580      	push	{r7, lr}
100031b2:	b084      	sub	sp, #16
100031b4:	af00      	add	r7, sp, #0
100031b6:	6078      	str	r0, [r7, #4]
100031b8:	4b0b      	ldr	r3, [pc, #44]	@ (100031e8 <unreset_block_wait+0x38>)
100031ba:	60fb      	str	r3, [r7, #12]
100031bc:	687b      	ldr	r3, [r7, #4]
100031be:	60bb      	str	r3, [r7, #8]
100031c0:	68fb      	ldr	r3, [r7, #12]
100031c2:	22c0      	movs	r2, #192	@ 0xc0
100031c4:	0192      	lsls	r2, r2, #6
100031c6:	4313      	orrs	r3, r2
100031c8:	68ba      	ldr	r2, [r7, #8]
100031ca:	601a      	str	r2, [r3, #0]
100031cc:	46c0      	nop			@ (mov r8, r8)
100031ce:	e000      	b.n	100031d2 <unreset_block_wait+0x22>
100031d0:	46c0      	nop			@ (mov r8, r8)
100031d2:	4b05      	ldr	r3, [pc, #20]	@ (100031e8 <unreset_block_wait+0x38>)
100031d4:	689b      	ldr	r3, [r3, #8]
100031d6:	43db      	mvns	r3, r3
100031d8:	687a      	ldr	r2, [r7, #4]
100031da:	4013      	ands	r3, r2
100031dc:	d1f8      	bne.n	100031d0 <unreset_block_wait+0x20>
100031de:	46c0      	nop			@ (mov r8, r8)
100031e0:	46c0      	nop			@ (mov r8, r8)
100031e2:	46bd      	mov	sp, r7
100031e4:	b004      	add	sp, #16
100031e6:	bd80      	pop	{r7, pc}
100031e8:	4000c000 	.word	0x4000c000

100031ec <uart_reset>:
100031ec:	b580      	push	{r7, lr}
100031ee:	b082      	sub	sp, #8
100031f0:	af00      	add	r7, sp, #0
100031f2:	6078      	str	r0, [r7, #4]
100031f4:	687b      	ldr	r3, [r7, #4]
100031f6:	0018      	movs	r0, r3
100031f8:	f7ff ffa4 	bl	10003144 <uart_get_index>
100031fc:	1e03      	subs	r3, r0, #0
100031fe:	d002      	beq.n	10003206 <uart_reset+0x1a>
10003200:	2380      	movs	r3, #128	@ 0x80
10003202:	041b      	lsls	r3, r3, #16
10003204:	e001      	b.n	1000320a <uart_reset+0x1e>
10003206:	2380      	movs	r3, #128	@ 0x80
10003208:	03db      	lsls	r3, r3, #15
1000320a:	0018      	movs	r0, r3
1000320c:	f7ff ffba 	bl	10003184 <reset_block>
10003210:	46c0      	nop			@ (mov r8, r8)
10003212:	46bd      	mov	sp, r7
10003214:	b002      	add	sp, #8
10003216:	bd80      	pop	{r7, pc}

10003218 <uart_unreset>:
10003218:	b580      	push	{r7, lr}
1000321a:	b082      	sub	sp, #8
1000321c:	af00      	add	r7, sp, #0
1000321e:	6078      	str	r0, [r7, #4]
10003220:	687b      	ldr	r3, [r7, #4]
10003222:	0018      	movs	r0, r3
10003224:	f7ff ff8e 	bl	10003144 <uart_get_index>
10003228:	1e03      	subs	r3, r0, #0
1000322a:	d002      	beq.n	10003232 <uart_unreset+0x1a>
1000322c:	2380      	movs	r3, #128	@ 0x80
1000322e:	041b      	lsls	r3, r3, #16
10003230:	e001      	b.n	10003236 <uart_unreset+0x1e>
10003232:	2380      	movs	r3, #128	@ 0x80
10003234:	03db      	lsls	r3, r3, #15
10003236:	0018      	movs	r0, r3
10003238:	f7ff ffba 	bl	100031b0 <unreset_block_wait>
1000323c:	46c0      	nop			@ (mov r8, r8)
1000323e:	46bd      	mov	sp, r7
10003240:	b002      	add	sp, #8
10003242:	bd80      	pop	{r7, pc}

10003244 <uart_init>:
10003244:	b580      	push	{r7, lr}
10003246:	b086      	sub	sp, #24
10003248:	af00      	add	r7, sp, #0
1000324a:	6078      	str	r0, [r7, #4]
1000324c:	6039      	str	r1, [r7, #0]
1000324e:	2006      	movs	r0, #6
10003250:	f000 fb72 	bl	10003938 <clock_get_hz>
10003254:	1e03      	subs	r3, r0, #0
10003256:	d101      	bne.n	1000325c <uart_init+0x18>
10003258:	2300      	movs	r3, #0
1000325a:	e039      	b.n	100032d0 <uart_init+0x8c>
1000325c:	687b      	ldr	r3, [r7, #4]
1000325e:	0018      	movs	r0, r3
10003260:	f7ff ffc4 	bl	100031ec <uart_reset>
10003264:	687b      	ldr	r3, [r7, #4]
10003266:	0018      	movs	r0, r3
10003268:	f7ff ffd6 	bl	10003218 <uart_unreset>
1000326c:	687b      	ldr	r3, [r7, #4]
1000326e:	2100      	movs	r1, #0
10003270:	0018      	movs	r0, r3
10003272:	f000 f93b 	bl	100034ec <uart_set_translate_crlf>
10003276:	683a      	ldr	r2, [r7, #0]
10003278:	687b      	ldr	r3, [r7, #4]
1000327a:	0011      	movs	r1, r2
1000327c:	0018      	movs	r0, r3
1000327e:	f000 f8b7 	bl	100033f0 <uart_set_baudrate>
10003282:	0003      	movs	r3, r0
10003284:	617b      	str	r3, [r7, #20]
10003286:	6878      	ldr	r0, [r7, #4]
10003288:	2300      	movs	r3, #0
1000328a:	2201      	movs	r2, #1
1000328c:	2108      	movs	r1, #8
1000328e:	f000 f903 	bl	10003498 <uart_set_format>
10003292:	687b      	ldr	r3, [r7, #4]
10003294:	0018      	movs	r0, r3
10003296:	f7ff ff67 	bl	10003168 <uart_get_hw>
1000329a:	0003      	movs	r3, r0
1000329c:	332c      	adds	r3, #44	@ 0x2c
1000329e:	613b      	str	r3, [r7, #16]
100032a0:	2310      	movs	r3, #16
100032a2:	60fb      	str	r3, [r7, #12]
100032a4:	693b      	ldr	r3, [r7, #16]
100032a6:	2280      	movs	r2, #128	@ 0x80
100032a8:	0192      	lsls	r2, r2, #6
100032aa:	4313      	orrs	r3, r2
100032ac:	68fa      	ldr	r2, [r7, #12]
100032ae:	601a      	str	r2, [r3, #0]
100032b0:	46c0      	nop			@ (mov r8, r8)
100032b2:	687b      	ldr	r3, [r7, #4]
100032b4:	0018      	movs	r0, r3
100032b6:	f7ff ff57 	bl	10003168 <uart_get_hw>
100032ba:	0003      	movs	r3, r0
100032bc:	4a06      	ldr	r2, [pc, #24]	@ (100032d8 <uart_init+0x94>)
100032be:	631a      	str	r2, [r3, #48]	@ 0x30
100032c0:	687b      	ldr	r3, [r7, #4]
100032c2:	0018      	movs	r0, r3
100032c4:	f7ff ff50 	bl	10003168 <uart_get_hw>
100032c8:	0003      	movs	r3, r0
100032ca:	2203      	movs	r2, #3
100032cc:	649a      	str	r2, [r3, #72]	@ 0x48
100032ce:	697b      	ldr	r3, [r7, #20]
100032d0:	0018      	movs	r0, r3
100032d2:	46bd      	mov	sp, r7
100032d4:	b006      	add	sp, #24
100032d6:	bd80      	pop	{r7, pc}
100032d8:	00000301 	.word	0x00000301

100032dc <uart_disable_before_lcr_write>:
100032dc:	b5b0      	push	{r4, r5, r7, lr}
100032de:	b08a      	sub	sp, #40	@ 0x28
100032e0:	af00      	add	r7, sp, #0
100032e2:	6078      	str	r0, [r7, #4]
100032e4:	687b      	ldr	r3, [r7, #4]
100032e6:	0018      	movs	r0, r3
100032e8:	f7ff ff3e 	bl	10003168 <uart_get_hw>
100032ec:	0003      	movs	r3, r0
100032ee:	6b1b      	ldr	r3, [r3, #48]	@ 0x30
100032f0:	627b      	str	r3, [r7, #36]	@ 0x24
100032f2:	6a7b      	ldr	r3, [r7, #36]	@ 0x24
100032f4:	2201      	movs	r2, #1
100032f6:	4013      	ands	r3, r2
100032f8:	d03d      	beq.n	10003376 <uart_disable_before_lcr_write+0x9a>
100032fa:	687b      	ldr	r3, [r7, #4]
100032fc:	0018      	movs	r0, r3
100032fe:	f7ff ff33 	bl	10003168 <uart_get_hw>
10003302:	0003      	movs	r3, r0
10003304:	3330      	adds	r3, #48	@ 0x30
10003306:	60fb      	str	r3, [r7, #12]
10003308:	4b1d      	ldr	r3, [pc, #116]	@ (10003380 <uart_disable_before_lcr_write+0xa4>)
1000330a:	60bb      	str	r3, [r7, #8]
1000330c:	68fb      	ldr	r3, [r7, #12]
1000330e:	22c0      	movs	r2, #192	@ 0xc0
10003310:	0192      	lsls	r2, r2, #6
10003312:	4313      	orrs	r3, r2
10003314:	68ba      	ldr	r2, [r7, #8]
10003316:	601a      	str	r2, [r3, #0]
10003318:	46c0      	nop			@ (mov r8, r8)
1000331a:	687b      	ldr	r3, [r7, #4]
1000331c:	0018      	movs	r0, r3
1000331e:	f7ff ff23 	bl	10003168 <uart_get_hw>
10003322:	0003      	movs	r3, r0
10003324:	6a5b      	ldr	r3, [r3, #36]	@ 0x24
10003326:	623b      	str	r3, [r7, #32]
10003328:	687b      	ldr	r3, [r7, #4]
1000332a:	0018      	movs	r0, r3
1000332c:	f7ff ff1c 	bl	10003168 <uart_get_hw>
10003330:	0003      	movs	r3, r0
10003332:	6a9b      	ldr	r3, [r3, #40]	@ 0x28
10003334:	61fb      	str	r3, [r7, #28]
10003336:	6a3b      	ldr	r3, [r7, #32]
10003338:	019b      	lsls	r3, r3, #6
1000333a:	69fa      	ldr	r2, [r7, #28]
1000333c:	18d3      	adds	r3, r2, r3
1000333e:	61bb      	str	r3, [r7, #24]
10003340:	69bb      	ldr	r3, [r7, #24]
10003342:	029b      	lsls	r3, r3, #10
10003344:	61bb      	str	r3, [r7, #24]
10003346:	2006      	movs	r0, #6
10003348:	f000 faf6 	bl	10003938 <clock_get_hz>
1000334c:	0003      	movs	r3, r0
1000334e:	490d      	ldr	r1, [pc, #52]	@ (10003384 <uart_disable_before_lcr_write+0xa8>)
10003350:	0018      	movs	r0, r3
10003352:	f002 fa63 	bl	1000581c <__wrap___aeabi_uidiv>
10003356:	0003      	movs	r3, r0
10003358:	617b      	str	r3, [r7, #20]
1000335a:	6979      	ldr	r1, [r7, #20]
1000335c:	69b8      	ldr	r0, [r7, #24]
1000335e:	f002 fa5d 	bl	1000581c <__wrap___aeabi_uidiv>
10003362:	0003      	movs	r3, r0
10003364:	613b      	str	r3, [r7, #16]
10003366:	693b      	ldr	r3, [r7, #16]
10003368:	001c      	movs	r4, r3
1000336a:	2300      	movs	r3, #0
1000336c:	001d      	movs	r5, r3
1000336e:	0020      	movs	r0, r4
10003370:	0029      	movs	r1, r5
10003372:	f7ff f8ef 	bl	10002554 <busy_wait_us>
10003376:	6a7b      	ldr	r3, [r7, #36]	@ 0x24
10003378:	0018      	movs	r0, r3
1000337a:	46bd      	mov	sp, r7
1000337c:	b00a      	add	sp, #40	@ 0x28
1000337e:	bdb0      	pop	{r4, r5, r7, pc}
10003380:	00000301 	.word	0x00000301
10003384:	00000e4e 	.word	0x00000e4e

10003388 <uart_write_lcr_bits_masked>:
10003388:	b580      	push	{r7, lr}
1000338a:	b08a      	sub	sp, #40	@ 0x28
1000338c:	af00      	add	r7, sp, #0
1000338e:	60f8      	str	r0, [r7, #12]
10003390:	60b9      	str	r1, [r7, #8]
10003392:	607a      	str	r2, [r7, #4]
10003394:	68fb      	ldr	r3, [r7, #12]
10003396:	0018      	movs	r0, r3
10003398:	f7ff ffa0 	bl	100032dc <uart_disable_before_lcr_write>
1000339c:	0003      	movs	r3, r0
1000339e:	627b      	str	r3, [r7, #36]	@ 0x24
100033a0:	68fb      	ldr	r3, [r7, #12]
100033a2:	0018      	movs	r0, r3
100033a4:	f7ff fee0 	bl	10003168 <uart_get_hw>
100033a8:	0003      	movs	r3, r0
100033aa:	332c      	adds	r3, #44	@ 0x2c
100033ac:	623b      	str	r3, [r7, #32]
100033ae:	68bb      	ldr	r3, [r7, #8]
100033b0:	61fb      	str	r3, [r7, #28]
100033b2:	687b      	ldr	r3, [r7, #4]
100033b4:	61bb      	str	r3, [r7, #24]
100033b6:	6a3b      	ldr	r3, [r7, #32]
100033b8:	681a      	ldr	r2, [r3, #0]
100033ba:	69fb      	ldr	r3, [r7, #28]
100033bc:	4053      	eors	r3, r2
100033be:	69ba      	ldr	r2, [r7, #24]
100033c0:	4013      	ands	r3, r2
100033c2:	6a3a      	ldr	r2, [r7, #32]
100033c4:	617a      	str	r2, [r7, #20]
100033c6:	613b      	str	r3, [r7, #16]
100033c8:	697b      	ldr	r3, [r7, #20]
100033ca:	2280      	movs	r2, #128	@ 0x80
100033cc:	0152      	lsls	r2, r2, #5
100033ce:	4313      	orrs	r3, r2
100033d0:	693a      	ldr	r2, [r7, #16]
100033d2:	601a      	str	r2, [r3, #0]
100033d4:	46c0      	nop			@ (mov r8, r8)
100033d6:	46c0      	nop			@ (mov r8, r8)
100033d8:	68fb      	ldr	r3, [r7, #12]
100033da:	0018      	movs	r0, r3
100033dc:	f7ff fec4 	bl	10003168 <uart_get_hw>
100033e0:	0003      	movs	r3, r0
100033e2:	6a7a      	ldr	r2, [r7, #36]	@ 0x24
100033e4:	631a      	str	r2, [r3, #48]	@ 0x30
100033e6:	46c0      	nop			@ (mov r8, r8)
100033e8:	46bd      	mov	sp, r7
100033ea:	b00a      	add	sp, #40	@ 0x28
100033ec:	bd80      	pop	{r7, pc}
	...

100033f0 <uart_set_baudrate>:
100033f0:	b580      	push	{r7, lr}
100033f2:	b086      	sub	sp, #24
100033f4:	af00      	add	r7, sp, #0
100033f6:	6078      	str	r0, [r7, #4]
100033f8:	6039      	str	r1, [r7, #0]
100033fa:	2006      	movs	r0, #6
100033fc:	f000 fa9c 	bl	10003938 <clock_get_hz>
10003400:	0003      	movs	r3, r0
10003402:	00db      	lsls	r3, r3, #3
10003404:	6839      	ldr	r1, [r7, #0]
10003406:	0018      	movs	r0, r3
10003408:	f002 fa08 	bl	1000581c <__wrap___aeabi_uidiv>
1000340c:	0003      	movs	r3, r0
1000340e:	60fb      	str	r3, [r7, #12]
10003410:	68fb      	ldr	r3, [r7, #12]
10003412:	09db      	lsrs	r3, r3, #7
10003414:	617b      	str	r3, [r7, #20]
10003416:	697b      	ldr	r3, [r7, #20]
10003418:	2b00      	cmp	r3, #0
1000341a:	d104      	bne.n	10003426 <uart_set_baudrate+0x36>
1000341c:	2301      	movs	r3, #1
1000341e:	617b      	str	r3, [r7, #20]
10003420:	2300      	movs	r3, #0
10003422:	613b      	str	r3, [r7, #16]
10003424:	e00e      	b.n	10003444 <uart_set_baudrate+0x54>
10003426:	697b      	ldr	r3, [r7, #20]
10003428:	4a19      	ldr	r2, [pc, #100]	@ (10003490 <uart_set_baudrate+0xa0>)
1000342a:	4293      	cmp	r3, r2
1000342c:	d904      	bls.n	10003438 <uart_set_baudrate+0x48>
1000342e:	4b19      	ldr	r3, [pc, #100]	@ (10003494 <uart_set_baudrate+0xa4>)
10003430:	617b      	str	r3, [r7, #20]
10003432:	2300      	movs	r3, #0
10003434:	613b      	str	r3, [r7, #16]
10003436:	e005      	b.n	10003444 <uart_set_baudrate+0x54>
10003438:	68fb      	ldr	r3, [r7, #12]
1000343a:	227f      	movs	r2, #127	@ 0x7f
1000343c:	4013      	ands	r3, r2
1000343e:	3301      	adds	r3, #1
10003440:	085b      	lsrs	r3, r3, #1
10003442:	613b      	str	r3, [r7, #16]
10003444:	687b      	ldr	r3, [r7, #4]
10003446:	0018      	movs	r0, r3
10003448:	f7ff fe8e 	bl	10003168 <uart_get_hw>
1000344c:	0003      	movs	r3, r0
1000344e:	697a      	ldr	r2, [r7, #20]
10003450:	625a      	str	r2, [r3, #36]	@ 0x24
10003452:	687b      	ldr	r3, [r7, #4]
10003454:	0018      	movs	r0, r3
10003456:	f7ff fe87 	bl	10003168 <uart_get_hw>
1000345a:	0003      	movs	r3, r0
1000345c:	693a      	ldr	r2, [r7, #16]
1000345e:	629a      	str	r2, [r3, #40]	@ 0x28
10003460:	687b      	ldr	r3, [r7, #4]
10003462:	2200      	movs	r2, #0
10003464:	2100      	movs	r1, #0
10003466:	0018      	movs	r0, r3
10003468:	f7ff ff8e 	bl	10003388 <uart_write_lcr_bits_masked>
1000346c:	2006      	movs	r0, #6
1000346e:	f000 fa63 	bl	10003938 <clock_get_hz>
10003472:	0003      	movs	r3, r0
10003474:	0098      	lsls	r0, r3, #2
10003476:	697b      	ldr	r3, [r7, #20]
10003478:	019a      	lsls	r2, r3, #6
1000347a:	693b      	ldr	r3, [r7, #16]
1000347c:	18d3      	adds	r3, r2, r3
1000347e:	0019      	movs	r1, r3
10003480:	f002 f9cc 	bl	1000581c <__wrap___aeabi_uidiv>
10003484:	0003      	movs	r3, r0
10003486:	0018      	movs	r0, r3
10003488:	46bd      	mov	sp, r7
1000348a:	b006      	add	sp, #24
1000348c:	bd80      	pop	{r7, pc}
1000348e:	46c0      	nop			@ (mov r8, r8)
10003490:	0000fffe 	.word	0x0000fffe
10003494:	0000ffff 	.word	0x0000ffff

10003498 <uart_set_format>:
10003498:	b580      	push	{r7, lr}
1000349a:	b084      	sub	sp, #16
1000349c:	af00      	add	r7, sp, #0
1000349e:	60f8      	str	r0, [r7, #12]
100034a0:	60b9      	str	r1, [r7, #8]
100034a2:	607a      	str	r2, [r7, #4]
100034a4:	001a      	movs	r2, r3
100034a6:	1cfb      	adds	r3, r7, #3
100034a8:	701a      	strb	r2, [r3, #0]
100034aa:	68bb      	ldr	r3, [r7, #8]
100034ac:	3b05      	subs	r3, #5
100034ae:	015a      	lsls	r2, r3, #5
100034b0:	687b      	ldr	r3, [r7, #4]
100034b2:	3b01      	subs	r3, #1
100034b4:	00db      	lsls	r3, r3, #3
100034b6:	431a      	orrs	r2, r3
100034b8:	1cfb      	adds	r3, r7, #3
100034ba:	781b      	ldrb	r3, [r3, #0]
100034bc:	2b00      	cmp	r3, #0
100034be:	d001      	beq.n	100034c4 <uart_set_format+0x2c>
100034c0:	2302      	movs	r3, #2
100034c2:	e000      	b.n	100034c6 <uart_set_format+0x2e>
100034c4:	2300      	movs	r3, #0
100034c6:	431a      	orrs	r2, r3
100034c8:	1cfb      	adds	r3, r7, #3
100034ca:	781b      	ldrb	r3, [r3, #0]
100034cc:	2b01      	cmp	r3, #1
100034ce:	d101      	bne.n	100034d4 <uart_set_format+0x3c>
100034d0:	2304      	movs	r3, #4
100034d2:	e000      	b.n	100034d6 <uart_set_format+0x3e>
100034d4:	2300      	movs	r3, #0
100034d6:	4313      	orrs	r3, r2
100034d8:	0019      	movs	r1, r3
100034da:	68fb      	ldr	r3, [r7, #12]
100034dc:	226e      	movs	r2, #110	@ 0x6e
100034de:	0018      	movs	r0, r3
100034e0:	f7ff ff52 	bl	10003388 <uart_write_lcr_bits_masked>
100034e4:	46c0      	nop			@ (mov r8, r8)
100034e6:	46bd      	mov	sp, r7
100034e8:	b004      	add	sp, #16
100034ea:	bd80      	pop	{r7, pc}

100034ec <uart_set_translate_crlf>:
100034ec:	b590      	push	{r4, r7, lr}
100034ee:	b083      	sub	sp, #12
100034f0:	af00      	add	r7, sp, #0
100034f2:	6078      	str	r0, [r7, #4]
100034f4:	000a      	movs	r2, r1
100034f6:	1cfb      	adds	r3, r7, #3
100034f8:	701a      	strb	r2, [r3, #0]
100034fa:	1cfb      	adds	r3, r7, #3
100034fc:	781b      	ldrb	r3, [r3, #0]
100034fe:	2b00      	cmp	r3, #0
10003500:	d001      	beq.n	10003506 <uart_set_translate_crlf+0x1a>
10003502:	240a      	movs	r4, #10
10003504:	e001      	b.n	1000350a <uart_set_translate_crlf+0x1e>
10003506:	2380      	movs	r3, #128	@ 0x80
10003508:	005c      	lsls	r4, r3, #1
1000350a:	687b      	ldr	r3, [r7, #4]
1000350c:	0018      	movs	r0, r3
1000350e:	f7ff fe19 	bl	10003144 <uart_get_index>
10003512:	0002      	movs	r2, r0
10003514:	4b03      	ldr	r3, [pc, #12]	@ (10003524 <uart_set_translate_crlf+0x38>)
10003516:	0052      	lsls	r2, r2, #1
10003518:	1c21      	adds	r1, r4, #0
1000351a:	52d1      	strh	r1, [r2, r3]
1000351c:	46c0      	nop			@ (mov r8, r8)
1000351e:	46bd      	mov	sp, r7
10003520:	b003      	add	sp, #12
10003522:	bd90      	pop	{r4, r7, pc}
10003524:	200009b4 	.word	0x200009b4

10003528 <busy_wait_at_least_cycles>:
10003528:	b580      	push	{r7, lr}
1000352a:	b082      	sub	sp, #8
1000352c:	af00      	add	r7, sp, #0
1000352e:	6078      	str	r0, [r7, #4]
10003530:	687b      	ldr	r3, [r7, #4]
10003532:	3b03      	subs	r3, #3
10003534:	d2fd      	bcs.n	10003532 <busy_wait_at_least_cycles+0xa>
10003536:	607b      	str	r3, [r7, #4]
10003538:	46c0      	nop			@ (mov r8, r8)
1000353a:	46bd      	mov	sp, r7
1000353c:	b002      	add	sp, #8
1000353e:	bd80      	pop	{r7, pc}

10003540 <has_glitchless_mux>:
10003540:	b580      	push	{r7, lr}
10003542:	b082      	sub	sp, #8
10003544:	af00      	add	r7, sp, #0
10003546:	0002      	movs	r2, r0
10003548:	1dfb      	adds	r3, r7, #7
1000354a:	701a      	strb	r2, [r3, #0]
1000354c:	1dfb      	adds	r3, r7, #7
1000354e:	781b      	ldrb	r3, [r3, #0]
10003550:	2b05      	cmp	r3, #5
10003552:	d003      	beq.n	1000355c <has_glitchless_mux+0x1c>
10003554:	1dfb      	adds	r3, r7, #7
10003556:	781b      	ldrb	r3, [r3, #0]
10003558:	2b04      	cmp	r3, #4
1000355a:	d101      	bne.n	10003560 <has_glitchless_mux+0x20>
1000355c:	2301      	movs	r3, #1
1000355e:	e000      	b.n	10003562 <has_glitchless_mux+0x22>
10003560:	2300      	movs	r3, #0
10003562:	1c1a      	adds	r2, r3, #0
10003564:	2301      	movs	r3, #1
10003566:	4013      	ands	r3, r2
10003568:	b2db      	uxtb	r3, r3
1000356a:	0018      	movs	r0, r3
1000356c:	46bd      	mov	sp, r7
1000356e:	b002      	add	sp, #8
10003570:	bd80      	pop	{r7, pc}
	...

10003574 <clock_configure>:
10003574:	b5f0      	push	{r4, r5, r6, r7, lr}
10003576:	b0a3      	sub	sp, #140	@ 0x8c
10003578:	af00      	add	r7, sp, #0
1000357a:	6339      	str	r1, [r7, #48]	@ 0x30
1000357c:	62fa      	str	r2, [r7, #44]	@ 0x2c
1000357e:	62bb      	str	r3, [r7, #40]	@ 0x28
10003580:	230f      	movs	r3, #15
10003582:	2228      	movs	r2, #40	@ 0x28
10003584:	189b      	adds	r3, r3, r2
10003586:	19da      	adds	r2, r3, r7
10003588:	1c03      	adds	r3, r0, #0
1000358a:	7013      	strb	r3, [r2, #0]
1000358c:	6aba      	ldr	r2, [r7, #40]	@ 0x28
1000358e:	2398      	movs	r3, #152	@ 0x98
10003590:	2108      	movs	r1, #8
10003592:	185b      	adds	r3, r3, r1
10003594:	19db      	adds	r3, r3, r7
10003596:	681b      	ldr	r3, [r3, #0]
10003598:	429a      	cmp	r2, r3
1000359a:	d205      	bcs.n	100035a8 <clock_configure+0x34>
1000359c:	4b8f      	ldr	r3, [pc, #572]	@ (100037dc <clock_configure+0x268>)
1000359e:	4a90      	ldr	r2, [pc, #576]	@ (100037e0 <clock_configure+0x26c>)
100035a0:	4890      	ldr	r0, [pc, #576]	@ (100037e4 <clock_configure+0x270>)
100035a2:	2133      	movs	r1, #51	@ 0x33
100035a4:	f000 fbe8 	bl	10003d78 <__assert_func>
100035a8:	2398      	movs	r3, #152	@ 0x98
100035aa:	2208      	movs	r2, #8
100035ac:	189b      	adds	r3, r3, r2
100035ae:	19db      	adds	r3, r3, r7
100035b0:	681a      	ldr	r2, [r3, #0]
100035b2:	6abb      	ldr	r3, [r7, #40]	@ 0x28
100035b4:	429a      	cmp	r2, r3
100035b6:	d901      	bls.n	100035bc <clock_configure+0x48>
100035b8:	2300      	movs	r3, #0
100035ba:	e10a      	b.n	100037d2 <clock_configure+0x25e>
100035bc:	6abb      	ldr	r3, [r7, #40]	@ 0x28
100035be:	623b      	str	r3, [r7, #32]
100035c0:	2300      	movs	r3, #0
100035c2:	627b      	str	r3, [r7, #36]	@ 0x24
100035c4:	6a3a      	ldr	r2, [r7, #32]
100035c6:	6a7b      	ldr	r3, [r7, #36]	@ 0x24
100035c8:	0011      	movs	r1, r2
100035ca:	0e09      	lsrs	r1, r1, #24
100035cc:	61f9      	str	r1, [r7, #28]
100035ce:	0013      	movs	r3, r2
100035d0:	021b      	lsls	r3, r3, #8
100035d2:	61bb      	str	r3, [r7, #24]
100035d4:	2398      	movs	r3, #152	@ 0x98
100035d6:	2208      	movs	r2, #8
100035d8:	189b      	adds	r3, r3, r2
100035da:	19db      	adds	r3, r3, r7
100035dc:	681b      	ldr	r3, [r3, #0]
100035de:	613b      	str	r3, [r7, #16]
100035e0:	2300      	movs	r3, #0
100035e2:	617b      	str	r3, [r7, #20]
100035e4:	693a      	ldr	r2, [r7, #16]
100035e6:	697b      	ldr	r3, [r7, #20]
100035e8:	69b8      	ldr	r0, [r7, #24]
100035ea:	69f9      	ldr	r1, [r7, #28]
100035ec:	f002 f954 	bl	10005898 <__wrap___aeabi_uldivmod>
100035f0:	0002      	movs	r2, r0
100035f2:	000b      	movs	r3, r1
100035f4:	0013      	movs	r3, r2
100035f6:	2084      	movs	r0, #132	@ 0x84
100035f8:	183a      	adds	r2, r7, r0
100035fa:	6013      	str	r3, [r2, #0]
100035fc:	230f      	movs	r3, #15
100035fe:	2228      	movs	r2, #40	@ 0x28
10003600:	189b      	adds	r3, r3, r2
10003602:	19db      	adds	r3, r3, r7
10003604:	781a      	ldrb	r2, [r3, #0]
10003606:	0013      	movs	r3, r2
10003608:	005b      	lsls	r3, r3, #1
1000360a:	189b      	adds	r3, r3, r2
1000360c:	009b      	lsls	r3, r3, #2
1000360e:	4a76      	ldr	r2, [pc, #472]	@ (100037e8 <clock_configure+0x274>)
10003610:	4694      	mov	ip, r2
10003612:	4463      	add	r3, ip
10003614:	2180      	movs	r1, #128	@ 0x80
10003616:	187a      	adds	r2, r7, r1
10003618:	6013      	str	r3, [r2, #0]
1000361a:	187b      	adds	r3, r7, r1
1000361c:	681b      	ldr	r3, [r3, #0]
1000361e:	685b      	ldr	r3, [r3, #4]
10003620:	183a      	adds	r2, r7, r0
10003622:	6812      	ldr	r2, [r2, #0]
10003624:	429a      	cmp	r2, r3
10003626:	d904      	bls.n	10003632 <clock_configure+0xbe>
10003628:	187b      	adds	r3, r7, r1
1000362a:	681b      	ldr	r3, [r3, #0]
1000362c:	183a      	adds	r2, r7, r0
1000362e:	6812      	ldr	r2, [r2, #0]
10003630:	605a      	str	r2, [r3, #4]
10003632:	230f      	movs	r3, #15
10003634:	2228      	movs	r2, #40	@ 0x28
10003636:	189b      	adds	r3, r3, r2
10003638:	19db      	adds	r3, r3, r7
1000363a:	781b      	ldrb	r3, [r3, #0]
1000363c:	0018      	movs	r0, r3
1000363e:	f7ff ff7f 	bl	10003540 <has_glitchless_mux>
10003642:	1e03      	subs	r3, r0, #0
10003644:	d019      	beq.n	1000367a <clock_configure+0x106>
10003646:	6b3b      	ldr	r3, [r7, #48]	@ 0x30
10003648:	2b01      	cmp	r3, #1
1000364a:	d116      	bne.n	1000367a <clock_configure+0x106>
1000364c:	2380      	movs	r3, #128	@ 0x80
1000364e:	18fb      	adds	r3, r7, r3
10003650:	681b      	ldr	r3, [r3, #0]
10003652:	67bb      	str	r3, [r7, #120]	@ 0x78
10003654:	2303      	movs	r3, #3
10003656:	677b      	str	r3, [r7, #116]	@ 0x74
10003658:	6fbb      	ldr	r3, [r7, #120]	@ 0x78
1000365a:	22c0      	movs	r2, #192	@ 0xc0
1000365c:	0192      	lsls	r2, r2, #6
1000365e:	4313      	orrs	r3, r2
10003660:	6f7a      	ldr	r2, [r7, #116]	@ 0x74
10003662:	601a      	str	r2, [r3, #0]
10003664:	46c0      	nop			@ (mov r8, r8)
10003666:	e000      	b.n	1000366a <clock_configure+0xf6>
10003668:	46c0      	nop			@ (mov r8, r8)
1000366a:	2380      	movs	r3, #128	@ 0x80
1000366c:	18fb      	adds	r3, r7, r3
1000366e:	681b      	ldr	r3, [r3, #0]
10003670:	689b      	ldr	r3, [r3, #8]
10003672:	2201      	movs	r2, #1
10003674:	4013      	ands	r3, r2
10003676:	d0f7      	beq.n	10003668 <clock_configure+0xf4>
10003678:	e02c      	b.n	100036d4 <clock_configure+0x160>
1000367a:	2380      	movs	r3, #128	@ 0x80
1000367c:	18fb      	adds	r3, r7, r3
1000367e:	681b      	ldr	r3, [r3, #0]
10003680:	673b      	str	r3, [r7, #112]	@ 0x70
10003682:	2380      	movs	r3, #128	@ 0x80
10003684:	011b      	lsls	r3, r3, #4
10003686:	66fb      	str	r3, [r7, #108]	@ 0x6c
10003688:	6f3b      	ldr	r3, [r7, #112]	@ 0x70
1000368a:	22c0      	movs	r2, #192	@ 0xc0
1000368c:	0192      	lsls	r2, r2, #6
1000368e:	4313      	orrs	r3, r2
10003690:	6efa      	ldr	r2, [r7, #108]	@ 0x6c
10003692:	601a      	str	r2, [r3, #0]
10003694:	46c0      	nop			@ (mov r8, r8)
10003696:	210f      	movs	r1, #15
10003698:	2628      	movs	r6, #40	@ 0x28
1000369a:	198b      	adds	r3, r1, r6
1000369c:	19db      	adds	r3, r3, r7
1000369e:	781a      	ldrb	r2, [r3, #0]
100036a0:	4b52      	ldr	r3, [pc, #328]	@ (100037ec <clock_configure+0x278>)
100036a2:	0092      	lsls	r2, r2, #2
100036a4:	58d3      	ldr	r3, [r2, r3]
100036a6:	2b00      	cmp	r3, #0
100036a8:	d014      	beq.n	100036d4 <clock_configure+0x160>
100036aa:	4b50      	ldr	r3, [pc, #320]	@ (100037ec <clock_configure+0x278>)
100036ac:	6958      	ldr	r0, [r3, #20]
100036ae:	198b      	adds	r3, r1, r6
100036b0:	19db      	adds	r3, r3, r7
100036b2:	781a      	ldrb	r2, [r3, #0]
100036b4:	4b4d      	ldr	r3, [pc, #308]	@ (100037ec <clock_configure+0x278>)
100036b6:	0092      	lsls	r2, r2, #2
100036b8:	58d3      	ldr	r3, [r2, r3]
100036ba:	0019      	movs	r1, r3
100036bc:	f002 f8ae 	bl	1000581c <__wrap___aeabi_uidiv>
100036c0:	0003      	movs	r3, r0
100036c2:	3301      	adds	r3, #1
100036c4:	67fb      	str	r3, [r7, #124]	@ 0x7c
100036c6:	6ffa      	ldr	r2, [r7, #124]	@ 0x7c
100036c8:	0013      	movs	r3, r2
100036ca:	005b      	lsls	r3, r3, #1
100036cc:	189b      	adds	r3, r3, r2
100036ce:	0018      	movs	r0, r3
100036d0:	f7ff ff2a 	bl	10003528 <busy_wait_at_least_cycles>
100036d4:	2680      	movs	r6, #128	@ 0x80
100036d6:	19bb      	adds	r3, r7, r6
100036d8:	681a      	ldr	r2, [r3, #0]
100036da:	6afb      	ldr	r3, [r7, #44]	@ 0x2c
100036dc:	015b      	lsls	r3, r3, #5
100036de:	66ba      	str	r2, [r7, #104]	@ 0x68
100036e0:	667b      	str	r3, [r7, #100]	@ 0x64
100036e2:	23e0      	movs	r3, #224	@ 0xe0
100036e4:	663b      	str	r3, [r7, #96]	@ 0x60
100036e6:	6ebb      	ldr	r3, [r7, #104]	@ 0x68
100036e8:	681a      	ldr	r2, [r3, #0]
100036ea:	6e7b      	ldr	r3, [r7, #100]	@ 0x64
100036ec:	4053      	eors	r3, r2
100036ee:	6e3a      	ldr	r2, [r7, #96]	@ 0x60
100036f0:	4013      	ands	r3, r2
100036f2:	6eba      	ldr	r2, [r7, #104]	@ 0x68
100036f4:	65fa      	str	r2, [r7, #92]	@ 0x5c
100036f6:	65bb      	str	r3, [r7, #88]	@ 0x58
100036f8:	6dfb      	ldr	r3, [r7, #92]	@ 0x5c
100036fa:	2280      	movs	r2, #128	@ 0x80
100036fc:	0152      	lsls	r2, r2, #5
100036fe:	4313      	orrs	r3, r2
10003700:	6dba      	ldr	r2, [r7, #88]	@ 0x58
10003702:	601a      	str	r2, [r3, #0]
10003704:	46c0      	nop			@ (mov r8, r8)
10003706:	46c0      	nop			@ (mov r8, r8)
10003708:	230f      	movs	r3, #15
1000370a:	2228      	movs	r2, #40	@ 0x28
1000370c:	189b      	adds	r3, r3, r2
1000370e:	19db      	adds	r3, r3, r7
10003710:	781b      	ldrb	r3, [r3, #0]
10003712:	0018      	movs	r0, r3
10003714:	f7ff ff14 	bl	10003540 <has_glitchless_mux>
10003718:	1e03      	subs	r3, r0, #0
1000371a:	d023      	beq.n	10003764 <clock_configure+0x1f0>
1000371c:	19bb      	adds	r3, r7, r6
1000371e:	681b      	ldr	r3, [r3, #0]
10003720:	657b      	str	r3, [r7, #84]	@ 0x54
10003722:	6b3b      	ldr	r3, [r7, #48]	@ 0x30
10003724:	653b      	str	r3, [r7, #80]	@ 0x50
10003726:	2303      	movs	r3, #3
10003728:	64fb      	str	r3, [r7, #76]	@ 0x4c
1000372a:	6d7b      	ldr	r3, [r7, #84]	@ 0x54
1000372c:	681a      	ldr	r2, [r3, #0]
1000372e:	6d3b      	ldr	r3, [r7, #80]	@ 0x50
10003730:	4053      	eors	r3, r2
10003732:	6cfa      	ldr	r2, [r7, #76]	@ 0x4c
10003734:	4013      	ands	r3, r2
10003736:	6d7a      	ldr	r2, [r7, #84]	@ 0x54
10003738:	64ba      	str	r2, [r7, #72]	@ 0x48
1000373a:	647b      	str	r3, [r7, #68]	@ 0x44
1000373c:	6cbb      	ldr	r3, [r7, #72]	@ 0x48
1000373e:	2280      	movs	r2, #128	@ 0x80
10003740:	0152      	lsls	r2, r2, #5
10003742:	4313      	orrs	r3, r2
10003744:	6c7a      	ldr	r2, [r7, #68]	@ 0x44
10003746:	601a      	str	r2, [r3, #0]
10003748:	46c0      	nop			@ (mov r8, r8)
1000374a:	46c0      	nop			@ (mov r8, r8)
1000374c:	e000      	b.n	10003750 <clock_configure+0x1dc>
1000374e:	46c0      	nop			@ (mov r8, r8)
10003750:	2380      	movs	r3, #128	@ 0x80
10003752:	18fb      	adds	r3, r7, r3
10003754:	681b      	ldr	r3, [r3, #0]
10003756:	689b      	ldr	r3, [r3, #8]
10003758:	2101      	movs	r1, #1
1000375a:	6b3a      	ldr	r2, [r7, #48]	@ 0x30
1000375c:	4091      	lsls	r1, r2
1000375e:	000a      	movs	r2, r1
10003760:	4013      	ands	r3, r2
10003762:	d0f4      	beq.n	1000374e <clock_configure+0x1da>
10003764:	2180      	movs	r1, #128	@ 0x80
10003766:	187b      	adds	r3, r7, r1
10003768:	681b      	ldr	r3, [r3, #0]
1000376a:	643b      	str	r3, [r7, #64]	@ 0x40
1000376c:	2380      	movs	r3, #128	@ 0x80
1000376e:	011b      	lsls	r3, r3, #4
10003770:	63fb      	str	r3, [r7, #60]	@ 0x3c
10003772:	6c3b      	ldr	r3, [r7, #64]	@ 0x40
10003774:	2280      	movs	r2, #128	@ 0x80
10003776:	0192      	lsls	r2, r2, #6
10003778:	4313      	orrs	r3, r2
1000377a:	6bfa      	ldr	r2, [r7, #60]	@ 0x3c
1000377c:	601a      	str	r2, [r3, #0]
1000377e:	46c0      	nop			@ (mov r8, r8)
10003780:	187b      	adds	r3, r7, r1
10003782:	681b      	ldr	r3, [r3, #0]
10003784:	2084      	movs	r0, #132	@ 0x84
10003786:	183a      	adds	r2, r7, r0
10003788:	6812      	ldr	r2, [r2, #0]
1000378a:	605a      	str	r2, [r3, #4]
1000378c:	6abb      	ldr	r3, [r7, #40]	@ 0x28
1000378e:	60bb      	str	r3, [r7, #8]
10003790:	2300      	movs	r3, #0
10003792:	60fb      	str	r3, [r7, #12]
10003794:	68ba      	ldr	r2, [r7, #8]
10003796:	68fb      	ldr	r3, [r7, #12]
10003798:	0011      	movs	r1, r2
1000379a:	0e0d      	lsrs	r5, r1, #24
1000379c:	0013      	movs	r3, r2
1000379e:	021c      	lsls	r4, r3, #8
100037a0:	183b      	adds	r3, r7, r0
100037a2:	681b      	ldr	r3, [r3, #0]
100037a4:	603b      	str	r3, [r7, #0]
100037a6:	2300      	movs	r3, #0
100037a8:	607b      	str	r3, [r7, #4]
100037aa:	683a      	ldr	r2, [r7, #0]
100037ac:	687b      	ldr	r3, [r7, #4]
100037ae:	0020      	movs	r0, r4
100037b0:	0029      	movs	r1, r5
100037b2:	f002 f871 	bl	10005898 <__wrap___aeabi_uldivmod>
100037b6:	0002      	movs	r2, r0
100037b8:	000b      	movs	r3, r1
100037ba:	0010      	movs	r0, r2
100037bc:	0019      	movs	r1, r3
100037be:	230f      	movs	r3, #15
100037c0:	2228      	movs	r2, #40	@ 0x28
100037c2:	189b      	adds	r3, r3, r2
100037c4:	19db      	adds	r3, r3, r7
100037c6:	781a      	ldrb	r2, [r3, #0]
100037c8:	0001      	movs	r1, r0
100037ca:	4b08      	ldr	r3, [pc, #32]	@ (100037ec <clock_configure+0x278>)
100037cc:	0092      	lsls	r2, r2, #2
100037ce:	50d1      	str	r1, [r2, r3]
100037d0:	2301      	movs	r3, #1
100037d2:	0018      	movs	r0, r3
100037d4:	46bd      	mov	sp, r7
100037d6:	b023      	add	sp, #140	@ 0x8c
100037d8:	bdf0      	pop	{r4, r5, r6, r7, pc}
100037da:	46c0      	nop			@ (mov r8, r8)
100037dc:	10009e94 	.word	0x10009e94
100037e0:	10009f90 	.word	0x10009f90
100037e4:	10009ea8 	.word	0x10009ea8
100037e8:	40008000 	.word	0x40008000
100037ec:	20000700 	.word	0x20000700

100037f0 <clocks_init>:
100037f0:	b580      	push	{r7, lr}
100037f2:	b088      	sub	sp, #32
100037f4:	af02      	add	r7, sp, #8
100037f6:	200c      	movs	r0, #12
100037f8:	f000 f9a4 	bl	10003b44 <watchdog_start_tick>
100037fc:	f7fd f804 	bl	10000808 <running_on_fpga>
10003800:	1e03      	subs	r3, r0, #0
10003802:	d011      	beq.n	10003828 <clocks_init+0x38>
10003804:	2300      	movs	r3, #0
10003806:	617b      	str	r3, [r7, #20]
10003808:	e007      	b.n	1000381a <clocks_init+0x2a>
1000380a:	4b3f      	ldr	r3, [pc, #252]	@ (10003908 <clocks_init+0x118>)
1000380c:	697a      	ldr	r2, [r7, #20]
1000380e:	0092      	lsls	r2, r2, #2
10003810:	493e      	ldr	r1, [pc, #248]	@ (1000390c <clocks_init+0x11c>)
10003812:	50d1      	str	r1, [r2, r3]
10003814:	697b      	ldr	r3, [r7, #20]
10003816:	3301      	adds	r3, #1
10003818:	617b      	str	r3, [r7, #20]
1000381a:	697b      	ldr	r3, [r7, #20]
1000381c:	2b09      	cmp	r3, #9
1000381e:	d9f4      	bls.n	1000380a <clocks_init+0x1a>
10003820:	4b39      	ldr	r3, [pc, #228]	@ (10003908 <clocks_init+0x118>)
10003822:	4a3b      	ldr	r2, [pc, #236]	@ (10003910 <clocks_init+0x120>)
10003824:	625a      	str	r2, [r3, #36]	@ 0x24
10003826:	e06c      	b.n	10003902 <clocks_init+0x112>
10003828:	4b3a      	ldr	r3, [pc, #232]	@ (10003914 <clocks_init+0x124>)
1000382a:	2200      	movs	r2, #0
1000382c:	679a      	str	r2, [r3, #120]	@ 0x78
1000382e:	f000 f999 	bl	10003b64 <xosc_init>
10003832:	4b39      	ldr	r3, [pc, #228]	@ (10003918 <clocks_init+0x128>)
10003834:	613b      	str	r3, [r7, #16]
10003836:	2301      	movs	r3, #1
10003838:	60fb      	str	r3, [r7, #12]
1000383a:	693b      	ldr	r3, [r7, #16]
1000383c:	22c0      	movs	r2, #192	@ 0xc0
1000383e:	0192      	lsls	r2, r2, #6
10003840:	4313      	orrs	r3, r2
10003842:	68fa      	ldr	r2, [r7, #12]
10003844:	601a      	str	r2, [r3, #0]
10003846:	46c0      	nop			@ (mov r8, r8)
10003848:	e000      	b.n	1000384c <clocks_init+0x5c>
1000384a:	46c0      	nop			@ (mov r8, r8)
1000384c:	4b31      	ldr	r3, [pc, #196]	@ (10003914 <clocks_init+0x124>)
1000384e:	6c5b      	ldr	r3, [r3, #68]	@ 0x44
10003850:	2b01      	cmp	r3, #1
10003852:	d1fa      	bne.n	1000384a <clocks_init+0x5a>
10003854:	4b31      	ldr	r3, [pc, #196]	@ (1000391c <clocks_init+0x12c>)
10003856:	60bb      	str	r3, [r7, #8]
10003858:	2303      	movs	r3, #3
1000385a:	607b      	str	r3, [r7, #4]
1000385c:	68bb      	ldr	r3, [r7, #8]
1000385e:	22c0      	movs	r2, #192	@ 0xc0
10003860:	0192      	lsls	r2, r2, #6
10003862:	4313      	orrs	r3, r2
10003864:	687a      	ldr	r2, [r7, #4]
10003866:	601a      	str	r2, [r3, #0]
10003868:	46c0      	nop			@ (mov r8, r8)
1000386a:	e000      	b.n	1000386e <clocks_init+0x7e>
1000386c:	46c0      	nop			@ (mov r8, r8)
1000386e:	4b29      	ldr	r3, [pc, #164]	@ (10003914 <clocks_init+0x124>)
10003870:	6b9b      	ldr	r3, [r3, #56]	@ 0x38
10003872:	2b01      	cmp	r3, #1
10003874:	d1fa      	bne.n	1000386c <clocks_init+0x7c>
10003876:	4a2a      	ldr	r2, [pc, #168]	@ (10003920 <clocks_init+0x130>)
10003878:	482a      	ldr	r0, [pc, #168]	@ (10003924 <clocks_init+0x134>)
1000387a:	2302      	movs	r3, #2
1000387c:	9300      	str	r3, [sp, #0]
1000387e:	2306      	movs	r3, #6
10003880:	2101      	movs	r1, #1
10003882:	f000 f89f 	bl	100039c4 <pll_init>
10003886:	4a28      	ldr	r2, [pc, #160]	@ (10003928 <clocks_init+0x138>)
10003888:	4828      	ldr	r0, [pc, #160]	@ (1000392c <clocks_init+0x13c>)
1000388a:	2305      	movs	r3, #5
1000388c:	9300      	str	r3, [sp, #0]
1000388e:	2305      	movs	r3, #5
10003890:	2101      	movs	r1, #1
10003892:	f000 f897 	bl	100039c4 <pll_init>
10003896:	4a26      	ldr	r2, [pc, #152]	@ (10003930 <clocks_init+0x140>)
10003898:	4b25      	ldr	r3, [pc, #148]	@ (10003930 <clocks_init+0x140>)
1000389a:	9300      	str	r3, [sp, #0]
1000389c:	0013      	movs	r3, r2
1000389e:	2200      	movs	r2, #0
100038a0:	2102      	movs	r1, #2
100038a2:	2004      	movs	r0, #4
100038a4:	f7ff fe66 	bl	10003574 <clock_configure>
100038a8:	4a22      	ldr	r2, [pc, #136]	@ (10003934 <clocks_init+0x144>)
100038aa:	4b22      	ldr	r3, [pc, #136]	@ (10003934 <clocks_init+0x144>)
100038ac:	9300      	str	r3, [sp, #0]
100038ae:	0013      	movs	r3, r2
100038b0:	2200      	movs	r2, #0
100038b2:	2101      	movs	r1, #1
100038b4:	2005      	movs	r0, #5
100038b6:	f7ff fe5d 	bl	10003574 <clock_configure>
100038ba:	4a14      	ldr	r2, [pc, #80]	@ (1000390c <clocks_init+0x11c>)
100038bc:	4b13      	ldr	r3, [pc, #76]	@ (1000390c <clocks_init+0x11c>)
100038be:	9300      	str	r3, [sp, #0]
100038c0:	0013      	movs	r3, r2
100038c2:	2200      	movs	r2, #0
100038c4:	2100      	movs	r1, #0
100038c6:	2007      	movs	r0, #7
100038c8:	f7ff fe54 	bl	10003574 <clock_configure>
100038cc:	4a0f      	ldr	r2, [pc, #60]	@ (1000390c <clocks_init+0x11c>)
100038ce:	4b0f      	ldr	r3, [pc, #60]	@ (1000390c <clocks_init+0x11c>)
100038d0:	9300      	str	r3, [sp, #0]
100038d2:	0013      	movs	r3, r2
100038d4:	2200      	movs	r2, #0
100038d6:	2100      	movs	r1, #0
100038d8:	2008      	movs	r0, #8
100038da:	f7ff fe4b 	bl	10003574 <clock_configure>
100038de:	4a0b      	ldr	r2, [pc, #44]	@ (1000390c <clocks_init+0x11c>)
100038e0:	4b0b      	ldr	r3, [pc, #44]	@ (10003910 <clocks_init+0x120>)
100038e2:	9300      	str	r3, [sp, #0]
100038e4:	0013      	movs	r3, r2
100038e6:	2200      	movs	r2, #0
100038e8:	2100      	movs	r1, #0
100038ea:	2009      	movs	r0, #9
100038ec:	f7ff fe42 	bl	10003574 <clock_configure>
100038f0:	4a10      	ldr	r2, [pc, #64]	@ (10003934 <clocks_init+0x144>)
100038f2:	4b10      	ldr	r3, [pc, #64]	@ (10003934 <clocks_init+0x144>)
100038f4:	9300      	str	r3, [sp, #0]
100038f6:	0013      	movs	r3, r2
100038f8:	2200      	movs	r2, #0
100038fa:	2100      	movs	r1, #0
100038fc:	2006      	movs	r0, #6
100038fe:	f7ff fe39 	bl	10003574 <clock_configure>
10003902:	46bd      	mov	sp, r7
10003904:	b006      	add	sp, #24
10003906:	bd80      	pop	{r7, pc}
10003908:	20000700 	.word	0x20000700
1000390c:	02dc6c00 	.word	0x02dc6c00
10003910:	0000b71b 	.word	0x0000b71b
10003914:	40008000 	.word	0x40008000
10003918:	4000803c 	.word	0x4000803c
1000391c:	40008030 	.word	0x40008030
10003920:	59682f00 	.word	0x59682f00
10003924:	40028000 	.word	0x40028000
10003928:	47868c00 	.word	0x47868c00
1000392c:	4002c000 	.word	0x4002c000
10003930:	00b71b00 	.word	0x00b71b00
10003934:	07735940 	.word	0x07735940

10003938 <clock_get_hz>:
10003938:	b580      	push	{r7, lr}
1000393a:	b082      	sub	sp, #8
1000393c:	af00      	add	r7, sp, #0
1000393e:	0002      	movs	r2, r0
10003940:	1dfb      	adds	r3, r7, #7
10003942:	701a      	strb	r2, [r3, #0]
10003944:	1dfb      	adds	r3, r7, #7
10003946:	781a      	ldrb	r2, [r3, #0]
10003948:	4b03      	ldr	r3, [pc, #12]	@ (10003958 <clock_get_hz+0x20>)
1000394a:	0092      	lsls	r2, r2, #2
1000394c:	58d3      	ldr	r3, [r2, r3]
1000394e:	0018      	movs	r0, r3
10003950:	46bd      	mov	sp, r7
10003952:	b002      	add	sp, #8
10003954:	bd80      	pop	{r7, pc}
10003956:	46c0      	nop			@ (mov r8, r8)
10003958:	20000700 	.word	0x20000700

1000395c <reset_block>:
1000395c:	b580      	push	{r7, lr}
1000395e:	b084      	sub	sp, #16
10003960:	af00      	add	r7, sp, #0
10003962:	6078      	str	r0, [r7, #4]
10003964:	4b07      	ldr	r3, [pc, #28]	@ (10003984 <reset_block+0x28>)
10003966:	60fb      	str	r3, [r7, #12]
10003968:	687b      	ldr	r3, [r7, #4]
1000396a:	60bb      	str	r3, [r7, #8]
1000396c:	68fb      	ldr	r3, [r7, #12]
1000396e:	2280      	movs	r2, #128	@ 0x80
10003970:	0192      	lsls	r2, r2, #6
10003972:	4313      	orrs	r3, r2
10003974:	68ba      	ldr	r2, [r7, #8]
10003976:	601a      	str	r2, [r3, #0]
10003978:	46c0      	nop			@ (mov r8, r8)
1000397a:	46c0      	nop			@ (mov r8, r8)
1000397c:	46bd      	mov	sp, r7
1000397e:	b004      	add	sp, #16
10003980:	bd80      	pop	{r7, pc}
10003982:	46c0      	nop			@ (mov r8, r8)
10003984:	4000c000 	.word	0x4000c000

10003988 <unreset_block_wait>:
10003988:	b580      	push	{r7, lr}
1000398a:	b084      	sub	sp, #16
1000398c:	af00      	add	r7, sp, #0
1000398e:	6078      	str	r0, [r7, #4]
10003990:	4b0b      	ldr	r3, [pc, #44]	@ (100039c0 <unreset_block_wait+0x38>)
10003992:	60fb      	str	r3, [r7, #12]
10003994:	687b      	ldr	r3, [r7, #4]
10003996:	60bb      	str	r3, [r7, #8]
10003998:	68fb      	ldr	r3, [r7, #12]
1000399a:	22c0      	movs	r2, #192	@ 0xc0
1000399c:	0192      	lsls	r2, r2, #6
1000399e:	4313      	orrs	r3, r2
100039a0:	68ba      	ldr	r2, [r7, #8]
100039a2:	601a      	str	r2, [r3, #0]
100039a4:	46c0      	nop			@ (mov r8, r8)
100039a6:	e000      	b.n	100039aa <unreset_block_wait+0x22>
100039a8:	46c0      	nop			@ (mov r8, r8)
100039aa:	4b05      	ldr	r3, [pc, #20]	@ (100039c0 <unreset_block_wait+0x38>)
100039ac:	689b      	ldr	r3, [r3, #8]
100039ae:	43db      	mvns	r3, r3
100039b0:	687a      	ldr	r2, [r7, #4]
100039b2:	4013      	ands	r3, r2
100039b4:	d1f8      	bne.n	100039a8 <unreset_block_wait+0x20>
100039b6:	46c0      	nop			@ (mov r8, r8)
100039b8:	46c0      	nop			@ (mov r8, r8)
100039ba:	46bd      	mov	sp, r7
100039bc:	b004      	add	sp, #16
100039be:	bd80      	pop	{r7, pc}
100039c0:	4000c000 	.word	0x4000c000

100039c4 <pll_init>:
100039c4:	b580      	push	{r7, lr}
100039c6:	b08e      	sub	sp, #56	@ 0x38
100039c8:	af00      	add	r7, sp, #0
100039ca:	60f8      	str	r0, [r7, #12]
100039cc:	60b9      	str	r1, [r7, #8]
100039ce:	607a      	str	r2, [r7, #4]
100039d0:	603b      	str	r3, [r7, #0]
100039d2:	68b9      	ldr	r1, [r7, #8]
100039d4:	4851      	ldr	r0, [pc, #324]	@ (10003b1c <pll_init+0x158>)
100039d6:	f001 ff21 	bl	1000581c <__wrap___aeabi_uidiv>
100039da:	0003      	movs	r3, r0
100039dc:	637b      	str	r3, [r7, #52]	@ 0x34
100039de:	687b      	ldr	r3, [r7, #4]
100039e0:	4a4f      	ldr	r2, [pc, #316]	@ (10003b20 <pll_init+0x15c>)
100039e2:	4293      	cmp	r3, r2
100039e4:	d903      	bls.n	100039ee <pll_init+0x2a>
100039e6:	687b      	ldr	r3, [r7, #4]
100039e8:	4a4e      	ldr	r2, [pc, #312]	@ (10003b24 <pll_init+0x160>)
100039ea:	4293      	cmp	r3, r2
100039ec:	d905      	bls.n	100039fa <pll_init+0x36>
100039ee:	4b4e      	ldr	r3, [pc, #312]	@ (10003b28 <pll_init+0x164>)
100039f0:	4a4e      	ldr	r2, [pc, #312]	@ (10003b2c <pll_init+0x168>)
100039f2:	484f      	ldr	r0, [pc, #316]	@ (10003b30 <pll_init+0x16c>)
100039f4:	2111      	movs	r1, #17
100039f6:	f000 f9bf 	bl	10003d78 <__assert_func>
100039fa:	6b79      	ldr	r1, [r7, #52]	@ 0x34
100039fc:	6878      	ldr	r0, [r7, #4]
100039fe:	f001 ff0d 	bl	1000581c <__wrap___aeabi_uidiv>
10003a02:	0003      	movs	r3, r0
10003a04:	633b      	str	r3, [r7, #48]	@ 0x30
10003a06:	6b3b      	ldr	r3, [r7, #48]	@ 0x30
10003a08:	2b0f      	cmp	r3, #15
10003a0a:	d904      	bls.n	10003a16 <pll_init+0x52>
10003a0c:	6b3a      	ldr	r2, [r7, #48]	@ 0x30
10003a0e:	23a0      	movs	r3, #160	@ 0xa0
10003a10:	005b      	lsls	r3, r3, #1
10003a12:	429a      	cmp	r2, r3
10003a14:	d905      	bls.n	10003a22 <pll_init+0x5e>
10003a16:	4b47      	ldr	r3, [pc, #284]	@ (10003b34 <pll_init+0x170>)
10003a18:	4a44      	ldr	r2, [pc, #272]	@ (10003b2c <pll_init+0x168>)
10003a1a:	4845      	ldr	r0, [pc, #276]	@ (10003b30 <pll_init+0x16c>)
10003a1c:	2119      	movs	r1, #25
10003a1e:	f000 f9ab 	bl	10003d78 <__assert_func>
10003a22:	683b      	ldr	r3, [r7, #0]
10003a24:	2b00      	cmp	r3, #0
10003a26:	d008      	beq.n	10003a3a <pll_init+0x76>
10003a28:	683b      	ldr	r3, [r7, #0]
10003a2a:	2b07      	cmp	r3, #7
10003a2c:	d805      	bhi.n	10003a3a <pll_init+0x76>
10003a2e:	6c3b      	ldr	r3, [r7, #64]	@ 0x40
10003a30:	2b00      	cmp	r3, #0
10003a32:	d002      	beq.n	10003a3a <pll_init+0x76>
10003a34:	6c3b      	ldr	r3, [r7, #64]	@ 0x40
10003a36:	2b07      	cmp	r3, #7
10003a38:	d905      	bls.n	10003a46 <pll_init+0x82>
10003a3a:	4b3f      	ldr	r3, [pc, #252]	@ (10003b38 <pll_init+0x174>)
10003a3c:	4a3b      	ldr	r2, [pc, #236]	@ (10003b2c <pll_init+0x168>)
10003a3e:	483c      	ldr	r0, [pc, #240]	@ (10003b30 <pll_init+0x16c>)
10003a40:	211c      	movs	r1, #28
10003a42:	f000 f999 	bl	10003d78 <__assert_func>
10003a46:	687b      	ldr	r3, [r7, #4]
10003a48:	091b      	lsrs	r3, r3, #4
10003a4a:	6b7a      	ldr	r2, [r7, #52]	@ 0x34
10003a4c:	429a      	cmp	r2, r3
10003a4e:	d905      	bls.n	10003a5c <pll_init+0x98>
10003a50:	4b3a      	ldr	r3, [pc, #232]	@ (10003b3c <pll_init+0x178>)
10003a52:	4a36      	ldr	r2, [pc, #216]	@ (10003b2c <pll_init+0x168>)
10003a54:	4836      	ldr	r0, [pc, #216]	@ (10003b30 <pll_init+0x16c>)
10003a56:	2123      	movs	r1, #35	@ 0x23
10003a58:	f000 f98e 	bl	10003d78 <__assert_func>
10003a5c:	683b      	ldr	r3, [r7, #0]
10003a5e:	041a      	lsls	r2, r3, #16
10003a60:	6c3b      	ldr	r3, [r7, #64]	@ 0x40
10003a62:	031b      	lsls	r3, r3, #12
10003a64:	4313      	orrs	r3, r2
10003a66:	62fb      	str	r3, [r7, #44]	@ 0x2c
10003a68:	68fb      	ldr	r3, [r7, #12]
10003a6a:	681b      	ldr	r3, [r3, #0]
10003a6c:	2b00      	cmp	r3, #0
10003a6e:	da15      	bge.n	10003a9c <pll_init+0xd8>
10003a70:	68fb      	ldr	r3, [r7, #12]
10003a72:	681b      	ldr	r3, [r3, #0]
10003a74:	223f      	movs	r2, #63	@ 0x3f
10003a76:	4013      	ands	r3, r2
10003a78:	68ba      	ldr	r2, [r7, #8]
10003a7a:	429a      	cmp	r2, r3
10003a7c:	d10e      	bne.n	10003a9c <pll_init+0xd8>
10003a7e:	68fb      	ldr	r3, [r7, #12]
10003a80:	689b      	ldr	r3, [r3, #8]
10003a82:	051b      	lsls	r3, r3, #20
10003a84:	0d1b      	lsrs	r3, r3, #20
10003a86:	6b3a      	ldr	r2, [r7, #48]	@ 0x30
10003a88:	429a      	cmp	r2, r3
10003a8a:	d107      	bne.n	10003a9c <pll_init+0xd8>
10003a8c:	68fb      	ldr	r3, [r7, #12]
10003a8e:	68da      	ldr	r2, [r3, #12]
10003a90:	23ee      	movs	r3, #238	@ 0xee
10003a92:	02db      	lsls	r3, r3, #11
10003a94:	4013      	ands	r3, r2
10003a96:	6afa      	ldr	r2, [r7, #44]	@ 0x2c
10003a98:	429a      	cmp	r2, r3
10003a9a:	d03a      	beq.n	10003b12 <pll_init+0x14e>
10003a9c:	68fb      	ldr	r3, [r7, #12]
10003a9e:	4a28      	ldr	r2, [pc, #160]	@ (10003b40 <pll_init+0x17c>)
10003aa0:	4293      	cmp	r3, r2
10003aa2:	d102      	bne.n	10003aaa <pll_init+0xe6>
10003aa4:	2380      	movs	r3, #128	@ 0x80
10003aa6:	019b      	lsls	r3, r3, #6
10003aa8:	e001      	b.n	10003aae <pll_init+0xea>
10003aaa:	2380      	movs	r3, #128	@ 0x80
10003aac:	015b      	lsls	r3, r3, #5
10003aae:	62bb      	str	r3, [r7, #40]	@ 0x28
10003ab0:	6abb      	ldr	r3, [r7, #40]	@ 0x28
10003ab2:	0018      	movs	r0, r3
10003ab4:	f7ff ff52 	bl	1000395c <reset_block>
10003ab8:	6abb      	ldr	r3, [r7, #40]	@ 0x28
10003aba:	0018      	movs	r0, r3
10003abc:	f7ff ff64 	bl	10003988 <unreset_block_wait>
10003ac0:	68fb      	ldr	r3, [r7, #12]
10003ac2:	68ba      	ldr	r2, [r7, #8]
10003ac4:	601a      	str	r2, [r3, #0]
10003ac6:	68fb      	ldr	r3, [r7, #12]
10003ac8:	6b3a      	ldr	r2, [r7, #48]	@ 0x30
10003aca:	609a      	str	r2, [r3, #8]
10003acc:	2321      	movs	r3, #33	@ 0x21
10003ace:	627b      	str	r3, [r7, #36]	@ 0x24
10003ad0:	68fb      	ldr	r3, [r7, #12]
10003ad2:	3304      	adds	r3, #4
10003ad4:	623b      	str	r3, [r7, #32]
10003ad6:	6a7b      	ldr	r3, [r7, #36]	@ 0x24
10003ad8:	61fb      	str	r3, [r7, #28]
10003ada:	6a3b      	ldr	r3, [r7, #32]
10003adc:	22c0      	movs	r2, #192	@ 0xc0
10003ade:	0192      	lsls	r2, r2, #6
10003ae0:	4313      	orrs	r3, r2
10003ae2:	69fa      	ldr	r2, [r7, #28]
10003ae4:	601a      	str	r2, [r3, #0]
10003ae6:	46c0      	nop			@ (mov r8, r8)
10003ae8:	e000      	b.n	10003aec <pll_init+0x128>
10003aea:	46c0      	nop			@ (mov r8, r8)
10003aec:	68fb      	ldr	r3, [r7, #12]
10003aee:	681b      	ldr	r3, [r3, #0]
10003af0:	2b00      	cmp	r3, #0
10003af2:	dafa      	bge.n	10003aea <pll_init+0x126>
10003af4:	68fb      	ldr	r3, [r7, #12]
10003af6:	6afa      	ldr	r2, [r7, #44]	@ 0x2c
10003af8:	60da      	str	r2, [r3, #12]
10003afa:	68fb      	ldr	r3, [r7, #12]
10003afc:	3304      	adds	r3, #4
10003afe:	61bb      	str	r3, [r7, #24]
10003b00:	2308      	movs	r3, #8
10003b02:	617b      	str	r3, [r7, #20]
10003b04:	69bb      	ldr	r3, [r7, #24]
10003b06:	22c0      	movs	r2, #192	@ 0xc0
10003b08:	0192      	lsls	r2, r2, #6
10003b0a:	4313      	orrs	r3, r2
10003b0c:	697a      	ldr	r2, [r7, #20]
10003b0e:	601a      	str	r2, [r3, #0]
10003b10:	e000      	b.n	10003b14 <pll_init+0x150>
10003b12:	46c0      	nop			@ (mov r8, r8)
10003b14:	46bd      	mov	sp, r7
10003b16:	b00e      	add	sp, #56	@ 0x38
10003b18:	bd80      	pop	{r7, pc}
10003b1a:	46c0      	nop			@ (mov r8, r8)
10003b1c:	00b71b00 	.word	0x00b71b00
10003b20:	2cb4177f 	.word	0x2cb4177f
10003b24:	5f5e1000 	.word	0x5f5e1000
10003b28:	10009fa0 	.word	0x10009fa0
10003b2c:	1000a0c4 	.word	0x1000a0c4
10003b30:	1000a000 	.word	0x1000a000
10003b34:	1000a040 	.word	0x1000a040
10003b38:	1000a05c 	.word	0x1000a05c
10003b3c:	1000a0a8 	.word	0x1000a0a8
10003b40:	4002c000 	.word	0x4002c000

10003b44 <watchdog_start_tick>:
10003b44:	b580      	push	{r7, lr}
10003b46:	b082      	sub	sp, #8
10003b48:	af00      	add	r7, sp, #0
10003b4a:	6078      	str	r0, [r7, #4]
10003b4c:	4b04      	ldr	r3, [pc, #16]	@ (10003b60 <watchdog_start_tick+0x1c>)
10003b4e:	687a      	ldr	r2, [r7, #4]
10003b50:	2180      	movs	r1, #128	@ 0x80
10003b52:	0089      	lsls	r1, r1, #2
10003b54:	430a      	orrs	r2, r1
10003b56:	62da      	str	r2, [r3, #44]	@ 0x2c
10003b58:	46c0      	nop			@ (mov r8, r8)
10003b5a:	46bd      	mov	sp, r7
10003b5c:	b002      	add	sp, #8
10003b5e:	bd80      	pop	{r7, pc}
10003b60:	40058000 	.word	0x40058000

10003b64 <xosc_init>:
10003b64:	b580      	push	{r7, lr}
10003b66:	b082      	sub	sp, #8
10003b68:	af00      	add	r7, sp, #0
10003b6a:	4b0e      	ldr	r3, [pc, #56]	@ (10003ba4 <xosc_init+0x40>)
10003b6c:	22aa      	movs	r2, #170	@ 0xaa
10003b6e:	0112      	lsls	r2, r2, #4
10003b70:	601a      	str	r2, [r3, #0]
10003b72:	4b0c      	ldr	r3, [pc, #48]	@ (10003ba4 <xosc_init+0x40>)
10003b74:	222f      	movs	r2, #47	@ 0x2f
10003b76:	60da      	str	r2, [r3, #12]
10003b78:	4b0a      	ldr	r3, [pc, #40]	@ (10003ba4 <xosc_init+0x40>)
10003b7a:	607b      	str	r3, [r7, #4]
10003b7c:	4b0a      	ldr	r3, [pc, #40]	@ (10003ba8 <xosc_init+0x44>)
10003b7e:	603b      	str	r3, [r7, #0]
10003b80:	687b      	ldr	r3, [r7, #4]
10003b82:	2280      	movs	r2, #128	@ 0x80
10003b84:	0192      	lsls	r2, r2, #6
10003b86:	4313      	orrs	r3, r2
10003b88:	683a      	ldr	r2, [r7, #0]
10003b8a:	601a      	str	r2, [r3, #0]
10003b8c:	46c0      	nop			@ (mov r8, r8)
10003b8e:	46c0      	nop			@ (mov r8, r8)
10003b90:	4b04      	ldr	r3, [pc, #16]	@ (10003ba4 <xosc_init+0x40>)
10003b92:	685b      	ldr	r3, [r3, #4]
10003b94:	2b00      	cmp	r3, #0
10003b96:	dafb      	bge.n	10003b90 <xosc_init+0x2c>
10003b98:	46c0      	nop			@ (mov r8, r8)
10003b9a:	46c0      	nop			@ (mov r8, r8)
10003b9c:	46bd      	mov	sp, r7
10003b9e:	b002      	add	sp, #8
10003ba0:	bd80      	pop	{r7, pc}
10003ba2:	46c0      	nop			@ (mov r8, r8)
10003ba4:	40024000 	.word	0x40024000
10003ba8:	00fab000 	.word	0x00fab000

10003bac <__breakpoint>:
10003bac:	b580      	push	{r7, lr}
10003bae:	af00      	add	r7, sp, #0
10003bb0:	be00      	bkpt	0x0000
10003bb2:	46c0      	nop			@ (mov r8, r8)
10003bb4:	46bd      	mov	sp, r7
10003bb6:	bd80      	pop	{r7, pc}

10003bb8 <reset_block>:
10003bb8:	b580      	push	{r7, lr}
10003bba:	b084      	sub	sp, #16
10003bbc:	af00      	add	r7, sp, #0
10003bbe:	6078      	str	r0, [r7, #4]
10003bc0:	4b07      	ldr	r3, [pc, #28]	@ (10003be0 <reset_block+0x28>)
10003bc2:	60fb      	str	r3, [r7, #12]
10003bc4:	687b      	ldr	r3, [r7, #4]
10003bc6:	60bb      	str	r3, [r7, #8]
10003bc8:	68fb      	ldr	r3, [r7, #12]
10003bca:	2280      	movs	r2, #128	@ 0x80
10003bcc:	0192      	lsls	r2, r2, #6
10003bce:	4313      	orrs	r3, r2
10003bd0:	68ba      	ldr	r2, [r7, #8]
10003bd2:	601a      	str	r2, [r3, #0]
10003bd4:	46c0      	nop			@ (mov r8, r8)
10003bd6:	46c0      	nop			@ (mov r8, r8)
10003bd8:	46bd      	mov	sp, r7
10003bda:	b004      	add	sp, #16
10003bdc:	bd80      	pop	{r7, pc}
10003bde:	46c0      	nop			@ (mov r8, r8)
10003be0:	4000c000 	.word	0x4000c000

10003be4 <unreset_block_wait>:
10003be4:	b580      	push	{r7, lr}
10003be6:	b084      	sub	sp, #16
10003be8:	af00      	add	r7, sp, #0
10003bea:	6078      	str	r0, [r7, #4]
10003bec:	4b0b      	ldr	r3, [pc, #44]	@ (10003c1c <unreset_block_wait+0x38>)
10003bee:	60fb      	str	r3, [r7, #12]
10003bf0:	687b      	ldr	r3, [r7, #4]
10003bf2:	60bb      	str	r3, [r7, #8]
10003bf4:	68fb      	ldr	r3, [r7, #12]
10003bf6:	22c0      	movs	r2, #192	@ 0xc0
10003bf8:	0192      	lsls	r2, r2, #6
10003bfa:	4313      	orrs	r3, r2
10003bfc:	68ba      	ldr	r2, [r7, #8]
10003bfe:	601a      	str	r2, [r3, #0]
10003c00:	46c0      	nop			@ (mov r8, r8)
10003c02:	e000      	b.n	10003c06 <unreset_block_wait+0x22>
10003c04:	46c0      	nop			@ (mov r8, r8)
10003c06:	4b05      	ldr	r3, [pc, #20]	@ (10003c1c <unreset_block_wait+0x38>)
10003c08:	689b      	ldr	r3, [r3, #8]
10003c0a:	43db      	mvns	r3, r3
10003c0c:	687a      	ldr	r2, [r7, #4]
10003c0e:	4013      	ands	r3, r2
10003c10:	d1f8      	bne.n	10003c04 <unreset_block_wait+0x20>
10003c12:	46c0      	nop			@ (mov r8, r8)
10003c14:	46c0      	nop			@ (mov r8, r8)
10003c16:	46bd      	mov	sp, r7
10003c18:	b004      	add	sp, #16
10003c1a:	bd80      	pop	{r7, pc}
10003c1c:	4000c000 	.word	0x4000c000

10003c20 <runtime_init>:
10003c20:	b580      	push	{r7, lr}
10003c22:	b088      	sub	sp, #32
10003c24:	af00      	add	r7, sp, #0
10003c26:	4b3d      	ldr	r3, [pc, #244]	@ (10003d1c <runtime_init+0xfc>)
10003c28:	0018      	movs	r0, r3
10003c2a:	f7ff ffc5 	bl	10003bb8 <reset_block>
10003c2e:	4b3c      	ldr	r3, [pc, #240]	@ (10003d20 <runtime_init+0x100>)
10003c30:	0018      	movs	r0, r3
10003c32:	f7ff ffd7 	bl	10003be4 <unreset_block_wait>
10003c36:	4b3b      	ldr	r3, [pc, #236]	@ (10003d24 <runtime_init+0x104>)
10003c38:	61fb      	str	r3, [r7, #28]
10003c3a:	e005      	b.n	10003c48 <runtime_init+0x28>
10003c3c:	69fb      	ldr	r3, [r7, #28]
10003c3e:	681b      	ldr	r3, [r3, #0]
10003c40:	4798      	blx	r3
10003c42:	69fb      	ldr	r3, [r7, #28]
10003c44:	3304      	adds	r3, #4
10003c46:	61fb      	str	r3, [r7, #28]
10003c48:	69fa      	ldr	r2, [r7, #28]
10003c4a:	4b37      	ldr	r3, [pc, #220]	@ (10003d28 <runtime_init+0x108>)
10003c4c:	429a      	cmp	r2, r3
10003c4e:	d3f5      	bcc.n	10003c3c <runtime_init+0x1c>
10003c50:	f7ff fdce 	bl	100037f0 <clocks_init>
10003c54:	4b35      	ldr	r3, [pc, #212]	@ (10003d2c <runtime_init+0x10c>)
10003c56:	0018      	movs	r0, r3
10003c58:	f7ff ffc4 	bl	10003be4 <unreset_block_wait>
10003c5c:	4b34      	ldr	r3, [pc, #208]	@ (10003d30 <runtime_init+0x110>)
10003c5e:	613b      	str	r3, [r7, #16]
10003c60:	2340      	movs	r3, #64	@ 0x40
10003c62:	693a      	ldr	r2, [r7, #16]
10003c64:	6793      	str	r3, [r2, #120]	@ 0x78
10003c66:	693a      	ldr	r2, [r7, #16]
10003c68:	6753      	str	r3, [r2, #116]	@ 0x74
10003c6a:	693a      	ldr	r2, [r7, #16]
10003c6c:	6713      	str	r3, [r2, #112]	@ 0x70
10003c6e:	693a      	ldr	r2, [r7, #16]
10003c70:	66d3      	str	r3, [r2, #108]	@ 0x6c
10003c72:	4b30      	ldr	r3, [pc, #192]	@ (10003d34 <runtime_init+0x114>)
10003c74:	61bb      	str	r3, [r7, #24]
10003c76:	e020      	b.n	10003cba <runtime_init+0x9a>
10003c78:	69bb      	ldr	r3, [r7, #24]
10003c7a:	681b      	ldr	r3, [r3, #0]
10003c7c:	2b00      	cmp	r3, #0
10003c7e:	d013      	beq.n	10003ca8 <runtime_init+0x88>
10003c80:	69bb      	ldr	r3, [r7, #24]
10003c82:	681b      	ldr	r3, [r3, #0]
10003c84:	2b01      	cmp	r3, #1
10003c86:	d005      	beq.n	10003c94 <runtime_init+0x74>
10003c88:	4b2b      	ldr	r3, [pc, #172]	@ (10003d38 <runtime_init+0x118>)
10003c8a:	4a2c      	ldr	r2, [pc, #176]	@ (10003d3c <runtime_init+0x11c>)
10003c8c:	482c      	ldr	r0, [pc, #176]	@ (10003d40 <runtime_init+0x120>)
10003c8e:	2187      	movs	r1, #135	@ 0x87
10003c90:	f000 f872 	bl	10003d78 <__assert_func>
10003c94:	69bb      	ldr	r3, [r7, #24]
10003c96:	60bb      	str	r3, [r7, #8]
10003c98:	68bb      	ldr	r3, [r7, #8]
10003c9a:	0018      	movs	r0, r3
10003c9c:	f7fd fad7 	bl	1000124e <recursive_mutex_init>
10003ca0:	68bb      	ldr	r3, [r7, #8]
10003ca2:	3308      	adds	r3, #8
10003ca4:	61bb      	str	r3, [r7, #24]
10003ca6:	e008      	b.n	10003cba <runtime_init+0x9a>
10003ca8:	69bb      	ldr	r3, [r7, #24]
10003caa:	60fb      	str	r3, [r7, #12]
10003cac:	68fb      	ldr	r3, [r7, #12]
10003cae:	0018      	movs	r0, r3
10003cb0:	f7fd fab6 	bl	10001220 <mutex_init>
10003cb4:	68fb      	ldr	r3, [r7, #12]
10003cb6:	3308      	adds	r3, #8
10003cb8:	61bb      	str	r3, [r7, #24]
10003cba:	69ba      	ldr	r2, [r7, #24]
10003cbc:	4b21      	ldr	r3, [pc, #132]	@ (10003d44 <runtime_init+0x124>)
10003cbe:	429a      	cmp	r2, r3
10003cc0:	d3da      	bcc.n	10003c78 <runtime_init+0x58>
10003cc2:	4b21      	ldr	r3, [pc, #132]	@ (10003d48 <runtime_init+0x128>)
10003cc4:	689b      	ldr	r3, [r3, #8]
10003cc6:	001a      	movs	r2, r3
10003cc8:	4b20      	ldr	r3, [pc, #128]	@ (10003d4c <runtime_init+0x12c>)
10003cca:	0018      	movs	r0, r3
10003ccc:	0011      	movs	r1, r2
10003cce:	23c0      	movs	r3, #192	@ 0xc0
10003cd0:	001a      	movs	r2, r3
10003cd2:	f002 fcff 	bl	100066d4 <__wrap___aeabi_memcpy>
10003cd6:	4b1c      	ldr	r3, [pc, #112]	@ (10003d48 <runtime_init+0x128>)
10003cd8:	4a1c      	ldr	r2, [pc, #112]	@ (10003d4c <runtime_init+0x12c>)
10003cda:	609a      	str	r2, [r3, #8]
10003cdc:	f3ef 8305 	mrs	r3, IPSR
10003ce0:	607b      	str	r3, [r7, #4]
10003ce2:	687b      	ldr	r3, [r7, #4]
10003ce4:	2b00      	cmp	r3, #0
10003ce6:	d001      	beq.n	10003cec <runtime_init+0xcc>
10003ce8:	f7ff ff60 	bl	10003bac <__breakpoint>
10003cec:	f7fc fe34 	bl	10000958 <spin_locks_reset>
10003cf0:	f7fd fa62 	bl	100011b8 <irq_init_priorities>
10003cf4:	f7fd fe3c 	bl	10001970 <alarm_pool_init_default>
10003cf8:	4b15      	ldr	r3, [pc, #84]	@ (10003d50 <runtime_init+0x130>)
10003cfa:	617b      	str	r3, [r7, #20]
10003cfc:	e005      	b.n	10003d0a <runtime_init+0xea>
10003cfe:	697b      	ldr	r3, [r7, #20]
10003d00:	681b      	ldr	r3, [r3, #0]
10003d02:	4798      	blx	r3
10003d04:	697b      	ldr	r3, [r7, #20]
10003d06:	3304      	adds	r3, #4
10003d08:	617b      	str	r3, [r7, #20]
10003d0a:	697a      	ldr	r2, [r7, #20]
10003d0c:	4b11      	ldr	r3, [pc, #68]	@ (10003d54 <runtime_init+0x134>)
10003d0e:	429a      	cmp	r2, r3
10003d10:	d3f5      	bcc.n	10003cfe <runtime_init+0xde>
10003d12:	46c0      	nop			@ (mov r8, r8)
10003d14:	46c0      	nop			@ (mov r8, r8)
10003d16:	46bd      	mov	sp, r7
10003d18:	b008      	add	sp, #32
10003d1a:	bd80      	pop	{r7, pc}
10003d1c:	fefbcdbf 	.word	0xfefbcdbf
10003d20:	003c7ffe 	.word	0x003c7ffe
10003d24:	200005c0 	.word	0x200005c0
10003d28:	200005d0 	.word	0x200005d0
10003d2c:	01ffffff 	.word	0x01ffffff
10003d30:	4001f000 	.word	0x4001f000
10003d34:	200005b8 	.word	0x200005b8
10003d38:	1000a134 	.word	0x1000a134
10003d3c:	1000a20c 	.word	0x1000a20c
10003d40:	1000a154 	.word	0x1000a154
10003d44:	200005c0 	.word	0x200005c0
10003d48:	e000ed00 	.word	0xe000ed00
10003d4c:	20000000 	.word	0x20000000
10003d50:	200005d0 	.word	0x200005d0
10003d54:	200005d4 	.word	0x200005d4

10003d58 <_exit>:
10003d58:	b580      	push	{r7, lr}
10003d5a:	b082      	sub	sp, #8
10003d5c:	af00      	add	r7, sp, #0
10003d5e:	6078      	str	r0, [r7, #4]
10003d60:	f7ff ff24 	bl	10003bac <__breakpoint>
10003d64:	e7fc      	b.n	10003d60 <_exit+0x8>

10003d66 <exit>:
10003d66:	b580      	push	{r7, lr}
10003d68:	b082      	sub	sp, #8
10003d6a:	af00      	add	r7, sp, #0
10003d6c:	6078      	str	r0, [r7, #4]
10003d6e:	687b      	ldr	r3, [r7, #4]
10003d70:	0018      	movs	r0, r3
10003d72:	f7ff fff1 	bl	10003d58 <_exit>
	...

10003d78 <__assert_func>:
10003d78:	b5b0      	push	{r4, r5, r7, lr}
10003d7a:	b086      	sub	sp, #24
10003d7c:	af02      	add	r7, sp, #8
10003d7e:	60f8      	str	r0, [r7, #12]
10003d80:	60b9      	str	r1, [r7, #8]
10003d82:	607a      	str	r2, [r7, #4]
10003d84:	603b      	str	r3, [r7, #0]
10003d86:	687b      	ldr	r3, [r7, #4]
10003d88:	2b00      	cmp	r3, #0
10003d8a:	d001      	beq.n	10003d90 <__assert_func+0x18>
10003d8c:	4b0a      	ldr	r3, [pc, #40]	@ (10003db8 <__assert_func+0x40>)
10003d8e:	e000      	b.n	10003d92 <__assert_func+0x1a>
10003d90:	4b0a      	ldr	r3, [pc, #40]	@ (10003dbc <__assert_func+0x44>)
10003d92:	687a      	ldr	r2, [r7, #4]
10003d94:	2a00      	cmp	r2, #0
10003d96:	d001      	beq.n	10003d9c <__assert_func+0x24>
10003d98:	687a      	ldr	r2, [r7, #4]
10003d9a:	e000      	b.n	10003d9e <__assert_func+0x26>
10003d9c:	4a07      	ldr	r2, [pc, #28]	@ (10003dbc <__assert_func+0x44>)
10003d9e:	68bd      	ldr	r5, [r7, #8]
10003da0:	68fc      	ldr	r4, [r7, #12]
10003da2:	6839      	ldr	r1, [r7, #0]
10003da4:	4806      	ldr	r0, [pc, #24]	@ (10003dc0 <__assert_func+0x48>)
10003da6:	9201      	str	r2, [sp, #4]
10003da8:	9300      	str	r3, [sp, #0]
10003daa:	002b      	movs	r3, r5
10003dac:	0022      	movs	r2, r4
10003dae:	f002 ff2f 	bl	10006c10 <__wrap_printf>
10003db2:	2001      	movs	r0, #1
10003db4:	f7ff ffd0 	bl	10003d58 <_exit>
10003db8:	1000a198 	.word	0x1000a198
10003dbc:	1000a1a8 	.word	0x1000a1a8
10003dc0:	1000a1ac 	.word	0x1000a1ac

10003dc4 <panic>:
10003dc4:	b40f      	push	{r0, r1, r2, r3}
10003dc6:	b580      	push	{r7, lr}
10003dc8:	b082      	sub	sp, #8
10003dca:	af00      	add	r7, sp, #0
10003dcc:	4b0b      	ldr	r3, [pc, #44]	@ (10003dfc <panic+0x38>)
10003dce:	0018      	movs	r0, r3
10003dd0:	f002 fe32 	bl	10006a38 <__wrap_puts>
10003dd4:	693b      	ldr	r3, [r7, #16]
10003dd6:	2b00      	cmp	r3, #0
10003dd8:	d00c      	beq.n	10003df4 <panic+0x30>
10003dda:	2314      	movs	r3, #20
10003ddc:	18fb      	adds	r3, r7, r3
10003dde:	607b      	str	r3, [r7, #4]
10003de0:	687a      	ldr	r2, [r7, #4]
10003de2:	693b      	ldr	r3, [r7, #16]
10003de4:	0011      	movs	r1, r2
10003de6:	0018      	movs	r0, r3
10003de8:	f002 fee4 	bl	10006bb4 <__wrap_vprintf>
10003dec:	4b04      	ldr	r3, [pc, #16]	@ (10003e00 <panic+0x3c>)
10003dee:	0018      	movs	r0, r3
10003df0:	f002 fe22 	bl	10006a38 <__wrap_puts>
10003df4:	2001      	movs	r0, #1
10003df6:	f7ff ffaf 	bl	10003d58 <_exit>
10003dfa:	46c0      	nop			@ (mov r8, r8)
10003dfc:	1000a1ec 	.word	0x1000a1ec
10003e00:	1000a1fc 	.word	0x1000a1fc

10003e04 <_out_buffer>:
10003e04:	b580      	push	{r7, lr}
10003e06:	b084      	sub	sp, #16
10003e08:	af00      	add	r7, sp, #0
10003e0a:	60b9      	str	r1, [r7, #8]
10003e0c:	607a      	str	r2, [r7, #4]
10003e0e:	603b      	str	r3, [r7, #0]
10003e10:	210f      	movs	r1, #15
10003e12:	187b      	adds	r3, r7, r1
10003e14:	1c02      	adds	r2, r0, #0
10003e16:	701a      	strb	r2, [r3, #0]
10003e18:	687a      	ldr	r2, [r7, #4]
10003e1a:	683b      	ldr	r3, [r7, #0]
10003e1c:	429a      	cmp	r2, r3
10003e1e:	d205      	bcs.n	10003e2c <_out_buffer+0x28>
10003e20:	68ba      	ldr	r2, [r7, #8]
10003e22:	687b      	ldr	r3, [r7, #4]
10003e24:	18d3      	adds	r3, r2, r3
10003e26:	187a      	adds	r2, r7, r1
10003e28:	7812      	ldrb	r2, [r2, #0]
10003e2a:	701a      	strb	r2, [r3, #0]
10003e2c:	46c0      	nop			@ (mov r8, r8)
10003e2e:	46bd      	mov	sp, r7
10003e30:	b004      	add	sp, #16
10003e32:	bd80      	pop	{r7, pc}

10003e34 <_out_null>:
10003e34:	b580      	push	{r7, lr}
10003e36:	b084      	sub	sp, #16
10003e38:	af00      	add	r7, sp, #0
10003e3a:	60b9      	str	r1, [r7, #8]
10003e3c:	607a      	str	r2, [r7, #4]
10003e3e:	603b      	str	r3, [r7, #0]
10003e40:	230f      	movs	r3, #15
10003e42:	18fb      	adds	r3, r7, r3
10003e44:	1c02      	adds	r2, r0, #0
10003e46:	701a      	strb	r2, [r3, #0]
10003e48:	46c0      	nop			@ (mov r8, r8)
10003e4a:	46bd      	mov	sp, r7
10003e4c:	b004      	add	sp, #16
10003e4e:	bd80      	pop	{r7, pc}

10003e50 <_out_fct>:
10003e50:	b580      	push	{r7, lr}
10003e52:	b084      	sub	sp, #16
10003e54:	af00      	add	r7, sp, #0
10003e56:	60b9      	str	r1, [r7, #8]
10003e58:	607a      	str	r2, [r7, #4]
10003e5a:	603b      	str	r3, [r7, #0]
10003e5c:	210f      	movs	r1, #15
10003e5e:	187b      	adds	r3, r7, r1
10003e60:	1c02      	adds	r2, r0, #0
10003e62:	701a      	strb	r2, [r3, #0]
10003e64:	0008      	movs	r0, r1
10003e66:	187b      	adds	r3, r7, r1
10003e68:	781b      	ldrb	r3, [r3, #0]
10003e6a:	2b00      	cmp	r3, #0
10003e6c:	d007      	beq.n	10003e7e <_out_fct+0x2e>
10003e6e:	68bb      	ldr	r3, [r7, #8]
10003e70:	681a      	ldr	r2, [r3, #0]
10003e72:	68bb      	ldr	r3, [r7, #8]
10003e74:	6859      	ldr	r1, [r3, #4]
10003e76:	183b      	adds	r3, r7, r0
10003e78:	781b      	ldrb	r3, [r3, #0]
10003e7a:	0018      	movs	r0, r3
10003e7c:	4790      	blx	r2
10003e7e:	46c0      	nop			@ (mov r8, r8)
10003e80:	46bd      	mov	sp, r7
10003e82:	b004      	add	sp, #16
10003e84:	bd80      	pop	{r7, pc}

10003e86 <_strnlen_s>:
10003e86:	b580      	push	{r7, lr}
10003e88:	b084      	sub	sp, #16
10003e8a:	af00      	add	r7, sp, #0
10003e8c:	6078      	str	r0, [r7, #4]
10003e8e:	6039      	str	r1, [r7, #0]
10003e90:	687b      	ldr	r3, [r7, #4]
10003e92:	60fb      	str	r3, [r7, #12]
10003e94:	e002      	b.n	10003e9c <_strnlen_s+0x16>
10003e96:	68fb      	ldr	r3, [r7, #12]
10003e98:	3301      	adds	r3, #1
10003e9a:	60fb      	str	r3, [r7, #12]
10003e9c:	68fb      	ldr	r3, [r7, #12]
10003e9e:	781b      	ldrb	r3, [r3, #0]
10003ea0:	2b00      	cmp	r3, #0
10003ea2:	d004      	beq.n	10003eae <_strnlen_s+0x28>
10003ea4:	683b      	ldr	r3, [r7, #0]
10003ea6:	1e5a      	subs	r2, r3, #1
10003ea8:	603a      	str	r2, [r7, #0]
10003eaa:	2b00      	cmp	r3, #0
10003eac:	d1f3      	bne.n	10003e96 <_strnlen_s+0x10>
10003eae:	68fa      	ldr	r2, [r7, #12]
10003eb0:	687b      	ldr	r3, [r7, #4]
10003eb2:	1ad3      	subs	r3, r2, r3
10003eb4:	0018      	movs	r0, r3
10003eb6:	46bd      	mov	sp, r7
10003eb8:	b004      	add	sp, #16
10003eba:	bd80      	pop	{r7, pc}

10003ebc <_is_digit>:
10003ebc:	b580      	push	{r7, lr}
10003ebe:	b082      	sub	sp, #8
10003ec0:	af00      	add	r7, sp, #0
10003ec2:	0002      	movs	r2, r0
10003ec4:	1dfb      	adds	r3, r7, #7
10003ec6:	701a      	strb	r2, [r3, #0]
10003ec8:	1dfb      	adds	r3, r7, #7
10003eca:	781b      	ldrb	r3, [r3, #0]
10003ecc:	2b2f      	cmp	r3, #47	@ 0x2f
10003ece:	d905      	bls.n	10003edc <_is_digit+0x20>
10003ed0:	1dfb      	adds	r3, r7, #7
10003ed2:	781b      	ldrb	r3, [r3, #0]
10003ed4:	2b39      	cmp	r3, #57	@ 0x39
10003ed6:	d801      	bhi.n	10003edc <_is_digit+0x20>
10003ed8:	2301      	movs	r3, #1
10003eda:	e000      	b.n	10003ede <_is_digit+0x22>
10003edc:	2300      	movs	r3, #0
10003ede:	1c1a      	adds	r2, r3, #0
10003ee0:	2301      	movs	r3, #1
10003ee2:	4013      	ands	r3, r2
10003ee4:	b2db      	uxtb	r3, r3
10003ee6:	0018      	movs	r0, r3
10003ee8:	46bd      	mov	sp, r7
10003eea:	b002      	add	sp, #8
10003eec:	bd80      	pop	{r7, pc}

10003eee <_atoi>:
10003eee:	b580      	push	{r7, lr}
10003ef0:	b084      	sub	sp, #16
10003ef2:	af00      	add	r7, sp, #0
10003ef4:	6078      	str	r0, [r7, #4]
10003ef6:	2300      	movs	r3, #0
10003ef8:	60fb      	str	r3, [r7, #12]
10003efa:	e00e      	b.n	10003f1a <_atoi+0x2c>
10003efc:	68fa      	ldr	r2, [r7, #12]
10003efe:	0013      	movs	r3, r2
10003f00:	009b      	lsls	r3, r3, #2
10003f02:	189b      	adds	r3, r3, r2
10003f04:	005b      	lsls	r3, r3, #1
10003f06:	0018      	movs	r0, r3
10003f08:	687b      	ldr	r3, [r7, #4]
10003f0a:	681b      	ldr	r3, [r3, #0]
10003f0c:	1c59      	adds	r1, r3, #1
10003f0e:	687a      	ldr	r2, [r7, #4]
10003f10:	6011      	str	r1, [r2, #0]
10003f12:	781b      	ldrb	r3, [r3, #0]
10003f14:	18c3      	adds	r3, r0, r3
10003f16:	3b30      	subs	r3, #48	@ 0x30
10003f18:	60fb      	str	r3, [r7, #12]
10003f1a:	687b      	ldr	r3, [r7, #4]
10003f1c:	681b      	ldr	r3, [r3, #0]
10003f1e:	781b      	ldrb	r3, [r3, #0]
10003f20:	0018      	movs	r0, r3
10003f22:	f7ff ffcb 	bl	10003ebc <_is_digit>
10003f26:	1e03      	subs	r3, r0, #0
10003f28:	d1e8      	bne.n	10003efc <_atoi+0xe>
10003f2a:	68fb      	ldr	r3, [r7, #12]
10003f2c:	0018      	movs	r0, r3
10003f2e:	46bd      	mov	sp, r7
10003f30:	b004      	add	sp, #16
10003f32:	bd80      	pop	{r7, pc}

10003f34 <_out_rev>:
10003f34:	b590      	push	{r4, r7, lr}
10003f36:	b087      	sub	sp, #28
10003f38:	af00      	add	r7, sp, #0
10003f3a:	60f8      	str	r0, [r7, #12]
10003f3c:	60b9      	str	r1, [r7, #8]
10003f3e:	607a      	str	r2, [r7, #4]
10003f40:	603b      	str	r3, [r7, #0]
10003f42:	687b      	ldr	r3, [r7, #4]
10003f44:	613b      	str	r3, [r7, #16]
10003f46:	6b7b      	ldr	r3, [r7, #52]	@ 0x34
10003f48:	2202      	movs	r2, #2
10003f4a:	4013      	ands	r3, r2
10003f4c:	d124      	bne.n	10003f98 <_out_rev+0x64>
10003f4e:	6b7b      	ldr	r3, [r7, #52]	@ 0x34
10003f50:	2201      	movs	r2, #1
10003f52:	4013      	ands	r3, r2
10003f54:	d120      	bne.n	10003f98 <_out_rev+0x64>
10003f56:	6afb      	ldr	r3, [r7, #44]	@ 0x2c
10003f58:	617b      	str	r3, [r7, #20]
10003f5a:	e00a      	b.n	10003f72 <_out_rev+0x3e>
10003f5c:	687a      	ldr	r2, [r7, #4]
10003f5e:	1c53      	adds	r3, r2, #1
10003f60:	607b      	str	r3, [r7, #4]
10003f62:	683b      	ldr	r3, [r7, #0]
10003f64:	68b9      	ldr	r1, [r7, #8]
10003f66:	68fc      	ldr	r4, [r7, #12]
10003f68:	2020      	movs	r0, #32
10003f6a:	47a0      	blx	r4
10003f6c:	697b      	ldr	r3, [r7, #20]
10003f6e:	3301      	adds	r3, #1
10003f70:	617b      	str	r3, [r7, #20]
10003f72:	697a      	ldr	r2, [r7, #20]
10003f74:	6b3b      	ldr	r3, [r7, #48]	@ 0x30
10003f76:	429a      	cmp	r2, r3
10003f78:	d3f0      	bcc.n	10003f5c <_out_rev+0x28>
10003f7a:	e00d      	b.n	10003f98 <_out_rev+0x64>
10003f7c:	6afb      	ldr	r3, [r7, #44]	@ 0x2c
10003f7e:	3b01      	subs	r3, #1
10003f80:	62fb      	str	r3, [r7, #44]	@ 0x2c
10003f82:	6aba      	ldr	r2, [r7, #40]	@ 0x28
10003f84:	6afb      	ldr	r3, [r7, #44]	@ 0x2c
10003f86:	18d3      	adds	r3, r2, r3
10003f88:	7818      	ldrb	r0, [r3, #0]
10003f8a:	687a      	ldr	r2, [r7, #4]
10003f8c:	1c53      	adds	r3, r2, #1
10003f8e:	607b      	str	r3, [r7, #4]
10003f90:	683b      	ldr	r3, [r7, #0]
10003f92:	68b9      	ldr	r1, [r7, #8]
10003f94:	68fc      	ldr	r4, [r7, #12]
10003f96:	47a0      	blx	r4
10003f98:	6afb      	ldr	r3, [r7, #44]	@ 0x2c
10003f9a:	2b00      	cmp	r3, #0
10003f9c:	d1ee      	bne.n	10003f7c <_out_rev+0x48>
10003f9e:	6b7b      	ldr	r3, [r7, #52]	@ 0x34
10003fa0:	2202      	movs	r2, #2
10003fa2:	4013      	ands	r3, r2
10003fa4:	d00e      	beq.n	10003fc4 <_out_rev+0x90>
10003fa6:	e007      	b.n	10003fb8 <_out_rev+0x84>
10003fa8:	687a      	ldr	r2, [r7, #4]
10003faa:	1c53      	adds	r3, r2, #1
10003fac:	607b      	str	r3, [r7, #4]
10003fae:	683b      	ldr	r3, [r7, #0]
10003fb0:	68b9      	ldr	r1, [r7, #8]
10003fb2:	68fc      	ldr	r4, [r7, #12]
10003fb4:	2020      	movs	r0, #32
10003fb6:	47a0      	blx	r4
10003fb8:	687a      	ldr	r2, [r7, #4]
10003fba:	693b      	ldr	r3, [r7, #16]
10003fbc:	1ad3      	subs	r3, r2, r3
10003fbe:	6b3a      	ldr	r2, [r7, #48]	@ 0x30
10003fc0:	429a      	cmp	r2, r3
10003fc2:	d8f1      	bhi.n	10003fa8 <_out_rev+0x74>
10003fc4:	687b      	ldr	r3, [r7, #4]
10003fc6:	0018      	movs	r0, r3
10003fc8:	46bd      	mov	sp, r7
10003fca:	b007      	add	sp, #28
10003fcc:	bd90      	pop	{r4, r7, pc}

10003fce <_ntoa_format>:
10003fce:	b590      	push	{r4, r7, lr}
10003fd0:	b089      	sub	sp, #36	@ 0x24
10003fd2:	af04      	add	r7, sp, #16
10003fd4:	60f8      	str	r0, [r7, #12]
10003fd6:	60b9      	str	r1, [r7, #8]
10003fd8:	607a      	str	r2, [r7, #4]
10003fda:	603b      	str	r3, [r7, #0]
10003fdc:	6bbb      	ldr	r3, [r7, #56]	@ 0x38
10003fde:	2202      	movs	r2, #2
10003fe0:	4013      	ands	r3, r2
10003fe2:	d134      	bne.n	1000404e <_ntoa_format+0x80>
10003fe4:	6b7b      	ldr	r3, [r7, #52]	@ 0x34
10003fe6:	2b00      	cmp	r3, #0
10003fe8:	d017      	beq.n	1000401a <_ntoa_format+0x4c>
10003fea:	6bbb      	ldr	r3, [r7, #56]	@ 0x38
10003fec:	2201      	movs	r2, #1
10003fee:	4013      	ands	r3, r2
10003ff0:	d013      	beq.n	1000401a <_ntoa_format+0x4c>
10003ff2:	2328      	movs	r3, #40	@ 0x28
10003ff4:	18fb      	adds	r3, r7, r3
10003ff6:	781b      	ldrb	r3, [r3, #0]
10003ff8:	2b00      	cmp	r3, #0
10003ffa:	d103      	bne.n	10004004 <_ntoa_format+0x36>
10003ffc:	6bbb      	ldr	r3, [r7, #56]	@ 0x38
10003ffe:	220c      	movs	r2, #12
10004000:	4013      	ands	r3, r2
10004002:	d00a      	beq.n	1000401a <_ntoa_format+0x4c>
10004004:	6b7b      	ldr	r3, [r7, #52]	@ 0x34
10004006:	3b01      	subs	r3, #1
10004008:	637b      	str	r3, [r7, #52]	@ 0x34
1000400a:	e006      	b.n	1000401a <_ntoa_format+0x4c>
1000400c:	6a7b      	ldr	r3, [r7, #36]	@ 0x24
1000400e:	1c5a      	adds	r2, r3, #1
10004010:	627a      	str	r2, [r7, #36]	@ 0x24
10004012:	6a3a      	ldr	r2, [r7, #32]
10004014:	18d3      	adds	r3, r2, r3
10004016:	2230      	movs	r2, #48	@ 0x30
10004018:	701a      	strb	r2, [r3, #0]
1000401a:	6a7a      	ldr	r2, [r7, #36]	@ 0x24
1000401c:	6b3b      	ldr	r3, [r7, #48]	@ 0x30
1000401e:	429a      	cmp	r2, r3
10004020:	d20a      	bcs.n	10004038 <_ntoa_format+0x6a>
10004022:	6a7b      	ldr	r3, [r7, #36]	@ 0x24
10004024:	2b1f      	cmp	r3, #31
10004026:	d9f1      	bls.n	1000400c <_ntoa_format+0x3e>
10004028:	e006      	b.n	10004038 <_ntoa_format+0x6a>
1000402a:	6a7b      	ldr	r3, [r7, #36]	@ 0x24
1000402c:	1c5a      	adds	r2, r3, #1
1000402e:	627a      	str	r2, [r7, #36]	@ 0x24
10004030:	6a3a      	ldr	r2, [r7, #32]
10004032:	18d3      	adds	r3, r2, r3
10004034:	2230      	movs	r2, #48	@ 0x30
10004036:	701a      	strb	r2, [r3, #0]
10004038:	6bbb      	ldr	r3, [r7, #56]	@ 0x38
1000403a:	2201      	movs	r2, #1
1000403c:	4013      	ands	r3, r2
1000403e:	d006      	beq.n	1000404e <_ntoa_format+0x80>
10004040:	6a7a      	ldr	r2, [r7, #36]	@ 0x24
10004042:	6b7b      	ldr	r3, [r7, #52]	@ 0x34
10004044:	429a      	cmp	r2, r3
10004046:	d202      	bcs.n	1000404e <_ntoa_format+0x80>
10004048:	6a7b      	ldr	r3, [r7, #36]	@ 0x24
1000404a:	2b1f      	cmp	r3, #31
1000404c:	d9ed      	bls.n	1000402a <_ntoa_format+0x5c>
1000404e:	6bbb      	ldr	r3, [r7, #56]	@ 0x38
10004050:	2210      	movs	r2, #16
10004052:	4013      	ands	r3, r2
10004054:	d056      	beq.n	10004104 <_ntoa_format+0x136>
10004056:	6bba      	ldr	r2, [r7, #56]	@ 0x38
10004058:	2380      	movs	r3, #128	@ 0x80
1000405a:	00db      	lsls	r3, r3, #3
1000405c:	4013      	ands	r3, r2
1000405e:	d116      	bne.n	1000408e <_ntoa_format+0xc0>
10004060:	6a7b      	ldr	r3, [r7, #36]	@ 0x24
10004062:	2b00      	cmp	r3, #0
10004064:	d013      	beq.n	1000408e <_ntoa_format+0xc0>
10004066:	6a7a      	ldr	r2, [r7, #36]	@ 0x24
10004068:	6b3b      	ldr	r3, [r7, #48]	@ 0x30
1000406a:	429a      	cmp	r2, r3
1000406c:	d003      	beq.n	10004076 <_ntoa_format+0xa8>
1000406e:	6a7a      	ldr	r2, [r7, #36]	@ 0x24
10004070:	6b7b      	ldr	r3, [r7, #52]	@ 0x34
10004072:	429a      	cmp	r2, r3
10004074:	d10b      	bne.n	1000408e <_ntoa_format+0xc0>
10004076:	6a7b      	ldr	r3, [r7, #36]	@ 0x24
10004078:	3b01      	subs	r3, #1
1000407a:	627b      	str	r3, [r7, #36]	@ 0x24
1000407c:	6a7b      	ldr	r3, [r7, #36]	@ 0x24
1000407e:	2b00      	cmp	r3, #0
10004080:	d005      	beq.n	1000408e <_ntoa_format+0xc0>
10004082:	6afb      	ldr	r3, [r7, #44]	@ 0x2c
10004084:	2b10      	cmp	r3, #16
10004086:	d102      	bne.n	1000408e <_ntoa_format+0xc0>
10004088:	6a7b      	ldr	r3, [r7, #36]	@ 0x24
1000408a:	3b01      	subs	r3, #1
1000408c:	627b      	str	r3, [r7, #36]	@ 0x24
1000408e:	6afb      	ldr	r3, [r7, #44]	@ 0x2c
10004090:	2b10      	cmp	r3, #16
10004092:	d10e      	bne.n	100040b2 <_ntoa_format+0xe4>
10004094:	6bbb      	ldr	r3, [r7, #56]	@ 0x38
10004096:	2220      	movs	r2, #32
10004098:	4013      	ands	r3, r2
1000409a:	d10a      	bne.n	100040b2 <_ntoa_format+0xe4>
1000409c:	6a7b      	ldr	r3, [r7, #36]	@ 0x24
1000409e:	2b1f      	cmp	r3, #31
100040a0:	d807      	bhi.n	100040b2 <_ntoa_format+0xe4>
100040a2:	6a7b      	ldr	r3, [r7, #36]	@ 0x24
100040a4:	1c5a      	adds	r2, r3, #1
100040a6:	627a      	str	r2, [r7, #36]	@ 0x24
100040a8:	6a3a      	ldr	r2, [r7, #32]
100040aa:	18d3      	adds	r3, r2, r3
100040ac:	2278      	movs	r2, #120	@ 0x78
100040ae:	701a      	strb	r2, [r3, #0]
100040b0:	e01e      	b.n	100040f0 <_ntoa_format+0x122>
100040b2:	6afb      	ldr	r3, [r7, #44]	@ 0x2c
100040b4:	2b10      	cmp	r3, #16
100040b6:	d10e      	bne.n	100040d6 <_ntoa_format+0x108>
100040b8:	6bbb      	ldr	r3, [r7, #56]	@ 0x38
100040ba:	2220      	movs	r2, #32
100040bc:	4013      	ands	r3, r2
100040be:	d00a      	beq.n	100040d6 <_ntoa_format+0x108>
100040c0:	6a7b      	ldr	r3, [r7, #36]	@ 0x24
100040c2:	2b1f      	cmp	r3, #31
100040c4:	d807      	bhi.n	100040d6 <_ntoa_format+0x108>
100040c6:	6a7b      	ldr	r3, [r7, #36]	@ 0x24
100040c8:	1c5a      	adds	r2, r3, #1
100040ca:	627a      	str	r2, [r7, #36]	@ 0x24
100040cc:	6a3a      	ldr	r2, [r7, #32]
100040ce:	18d3      	adds	r3, r2, r3
100040d0:	2258      	movs	r2, #88	@ 0x58
100040d2:	701a      	strb	r2, [r3, #0]
100040d4:	e00c      	b.n	100040f0 <_ntoa_format+0x122>
100040d6:	6afb      	ldr	r3, [r7, #44]	@ 0x2c
100040d8:	2b02      	cmp	r3, #2
100040da:	d109      	bne.n	100040f0 <_ntoa_format+0x122>
100040dc:	6a7b      	ldr	r3, [r7, #36]	@ 0x24
100040de:	2b1f      	cmp	r3, #31
100040e0:	d806      	bhi.n	100040f0 <_ntoa_format+0x122>
100040e2:	6a7b      	ldr	r3, [r7, #36]	@ 0x24
100040e4:	1c5a      	adds	r2, r3, #1
100040e6:	627a      	str	r2, [r7, #36]	@ 0x24
100040e8:	6a3a      	ldr	r2, [r7, #32]
100040ea:	18d3      	adds	r3, r2, r3
100040ec:	2262      	movs	r2, #98	@ 0x62
100040ee:	701a      	strb	r2, [r3, #0]
100040f0:	6a7b      	ldr	r3, [r7, #36]	@ 0x24
100040f2:	2b1f      	cmp	r3, #31
100040f4:	d806      	bhi.n	10004104 <_ntoa_format+0x136>
100040f6:	6a7b      	ldr	r3, [r7, #36]	@ 0x24
100040f8:	1c5a      	adds	r2, r3, #1
100040fa:	627a      	str	r2, [r7, #36]	@ 0x24
100040fc:	6a3a      	ldr	r2, [r7, #32]
100040fe:	18d3      	adds	r3, r2, r3
10004100:	2230      	movs	r2, #48	@ 0x30
10004102:	701a      	strb	r2, [r3, #0]
10004104:	6a7b      	ldr	r3, [r7, #36]	@ 0x24
10004106:	2b1f      	cmp	r3, #31
10004108:	d823      	bhi.n	10004152 <_ntoa_format+0x184>
1000410a:	2328      	movs	r3, #40	@ 0x28
1000410c:	18fb      	adds	r3, r7, r3
1000410e:	781b      	ldrb	r3, [r3, #0]
10004110:	2b00      	cmp	r3, #0
10004112:	d007      	beq.n	10004124 <_ntoa_format+0x156>
10004114:	6a7b      	ldr	r3, [r7, #36]	@ 0x24
10004116:	1c5a      	adds	r2, r3, #1
10004118:	627a      	str	r2, [r7, #36]	@ 0x24
1000411a:	6a3a      	ldr	r2, [r7, #32]
1000411c:	18d3      	adds	r3, r2, r3
1000411e:	222d      	movs	r2, #45	@ 0x2d
10004120:	701a      	strb	r2, [r3, #0]
10004122:	e016      	b.n	10004152 <_ntoa_format+0x184>
10004124:	6bbb      	ldr	r3, [r7, #56]	@ 0x38
10004126:	2204      	movs	r2, #4
10004128:	4013      	ands	r3, r2
1000412a:	d007      	beq.n	1000413c <_ntoa_format+0x16e>
1000412c:	6a7b      	ldr	r3, [r7, #36]	@ 0x24
1000412e:	1c5a      	adds	r2, r3, #1
10004130:	627a      	str	r2, [r7, #36]	@ 0x24
10004132:	6a3a      	ldr	r2, [r7, #32]
10004134:	18d3      	adds	r3, r2, r3
10004136:	222b      	movs	r2, #43	@ 0x2b
10004138:	701a      	strb	r2, [r3, #0]
1000413a:	e00a      	b.n	10004152 <_ntoa_format+0x184>
1000413c:	6bbb      	ldr	r3, [r7, #56]	@ 0x38
1000413e:	2208      	movs	r2, #8
10004140:	4013      	ands	r3, r2
10004142:	d006      	beq.n	10004152 <_ntoa_format+0x184>
10004144:	6a7b      	ldr	r3, [r7, #36]	@ 0x24
10004146:	1c5a      	adds	r2, r3, #1
10004148:	627a      	str	r2, [r7, #36]	@ 0x24
1000414a:	6a3a      	ldr	r2, [r7, #32]
1000414c:	18d3      	adds	r3, r2, r3
1000414e:	2220      	movs	r2, #32
10004150:	701a      	strb	r2, [r3, #0]
10004152:	683c      	ldr	r4, [r7, #0]
10004154:	687a      	ldr	r2, [r7, #4]
10004156:	68b9      	ldr	r1, [r7, #8]
10004158:	68f8      	ldr	r0, [r7, #12]
1000415a:	6bbb      	ldr	r3, [r7, #56]	@ 0x38
1000415c:	9303      	str	r3, [sp, #12]
1000415e:	6b7b      	ldr	r3, [r7, #52]	@ 0x34
10004160:	9302      	str	r3, [sp, #8]
10004162:	6a7b      	ldr	r3, [r7, #36]	@ 0x24
10004164:	9301      	str	r3, [sp, #4]
10004166:	6a3b      	ldr	r3, [r7, #32]
10004168:	9300      	str	r3, [sp, #0]
1000416a:	0023      	movs	r3, r4
1000416c:	f7ff fee2 	bl	10003f34 <_out_rev>
10004170:	0003      	movs	r3, r0
10004172:	0018      	movs	r0, r3
10004174:	46bd      	mov	sp, r7
10004176:	b005      	add	sp, #20
10004178:	bd90      	pop	{r4, r7, pc}

1000417a <_ntoa_long>:
1000417a:	b590      	push	{r4, r7, lr}
1000417c:	b097      	sub	sp, #92	@ 0x5c
1000417e:	af08      	add	r7, sp, #32
10004180:	60f8      	str	r0, [r7, #12]
10004182:	60b9      	str	r1, [r7, #8]
10004184:	607a      	str	r2, [r7, #4]
10004186:	603b      	str	r3, [r7, #0]
10004188:	2300      	movs	r3, #0
1000418a:	637b      	str	r3, [r7, #52]	@ 0x34
1000418c:	6cbb      	ldr	r3, [r7, #72]	@ 0x48
1000418e:	2b00      	cmp	r3, #0
10004190:	d103      	bne.n	1000419a <_ntoa_long+0x20>
10004192:	6dfb      	ldr	r3, [r7, #92]	@ 0x5c
10004194:	2210      	movs	r2, #16
10004196:	4393      	bics	r3, r2
10004198:	65fb      	str	r3, [r7, #92]	@ 0x5c
1000419a:	6dfa      	ldr	r2, [r7, #92]	@ 0x5c
1000419c:	2380      	movs	r3, #128	@ 0x80
1000419e:	00db      	lsls	r3, r3, #3
100041a0:	4013      	ands	r3, r2
100041a2:	d002      	beq.n	100041aa <_ntoa_long+0x30>
100041a4:	6cbb      	ldr	r3, [r7, #72]	@ 0x48
100041a6:	2b00      	cmp	r3, #0
100041a8:	d033      	beq.n	10004212 <_ntoa_long+0x98>
100041aa:	6cbb      	ldr	r3, [r7, #72]	@ 0x48
100041ac:	6d39      	ldr	r1, [r7, #80]	@ 0x50
100041ae:	0018      	movs	r0, r3
100041b0:	f001 fb34 	bl	1000581c <__wrap___aeabi_uidiv>
100041b4:	000b      	movs	r3, r1
100041b6:	001a      	movs	r2, r3
100041b8:	2133      	movs	r1, #51	@ 0x33
100041ba:	187b      	adds	r3, r7, r1
100041bc:	701a      	strb	r2, [r3, #0]
100041be:	000a      	movs	r2, r1
100041c0:	18bb      	adds	r3, r7, r2
100041c2:	781b      	ldrb	r3, [r3, #0]
100041c4:	2b09      	cmp	r3, #9
100041c6:	d804      	bhi.n	100041d2 <_ntoa_long+0x58>
100041c8:	18bb      	adds	r3, r7, r2
100041ca:	781b      	ldrb	r3, [r3, #0]
100041cc:	3330      	adds	r3, #48	@ 0x30
100041ce:	b2da      	uxtb	r2, r3
100041d0:	e00d      	b.n	100041ee <_ntoa_long+0x74>
100041d2:	6dfb      	ldr	r3, [r7, #92]	@ 0x5c
100041d4:	2220      	movs	r2, #32
100041d6:	4013      	ands	r3, r2
100041d8:	d001      	beq.n	100041de <_ntoa_long+0x64>
100041da:	2341      	movs	r3, #65	@ 0x41
100041dc:	e000      	b.n	100041e0 <_ntoa_long+0x66>
100041de:	2361      	movs	r3, #97	@ 0x61
100041e0:	2233      	movs	r2, #51	@ 0x33
100041e2:	18ba      	adds	r2, r7, r2
100041e4:	7812      	ldrb	r2, [r2, #0]
100041e6:	189b      	adds	r3, r3, r2
100041e8:	b2db      	uxtb	r3, r3
100041ea:	3b0a      	subs	r3, #10
100041ec:	b2da      	uxtb	r2, r3
100041ee:	6b7b      	ldr	r3, [r7, #52]	@ 0x34
100041f0:	1c59      	adds	r1, r3, #1
100041f2:	6379      	str	r1, [r7, #52]	@ 0x34
100041f4:	2110      	movs	r1, #16
100041f6:	1879      	adds	r1, r7, r1
100041f8:	54ca      	strb	r2, [r1, r3]
100041fa:	6d39      	ldr	r1, [r7, #80]	@ 0x50
100041fc:	6cb8      	ldr	r0, [r7, #72]	@ 0x48
100041fe:	f001 fb0d 	bl	1000581c <__wrap___aeabi_uidiv>
10004202:	0003      	movs	r3, r0
10004204:	64bb      	str	r3, [r7, #72]	@ 0x48
10004206:	6cbb      	ldr	r3, [r7, #72]	@ 0x48
10004208:	2b00      	cmp	r3, #0
1000420a:	d002      	beq.n	10004212 <_ntoa_long+0x98>
1000420c:	6b7b      	ldr	r3, [r7, #52]	@ 0x34
1000420e:	2b1f      	cmp	r3, #31
10004210:	d9cb      	bls.n	100041aa <_ntoa_long+0x30>
10004212:	683c      	ldr	r4, [r7, #0]
10004214:	687a      	ldr	r2, [r7, #4]
10004216:	68b9      	ldr	r1, [r7, #8]
10004218:	68f8      	ldr	r0, [r7, #12]
1000421a:	6dfb      	ldr	r3, [r7, #92]	@ 0x5c
1000421c:	9306      	str	r3, [sp, #24]
1000421e:	6dbb      	ldr	r3, [r7, #88]	@ 0x58
10004220:	9305      	str	r3, [sp, #20]
10004222:	6d7b      	ldr	r3, [r7, #84]	@ 0x54
10004224:	9304      	str	r3, [sp, #16]
10004226:	6d3b      	ldr	r3, [r7, #80]	@ 0x50
10004228:	9303      	str	r3, [sp, #12]
1000422a:	234c      	movs	r3, #76	@ 0x4c
1000422c:	18fb      	adds	r3, r7, r3
1000422e:	781b      	ldrb	r3, [r3, #0]
10004230:	9302      	str	r3, [sp, #8]
10004232:	6b7b      	ldr	r3, [r7, #52]	@ 0x34
10004234:	9301      	str	r3, [sp, #4]
10004236:	2310      	movs	r3, #16
10004238:	18fb      	adds	r3, r7, r3
1000423a:	9300      	str	r3, [sp, #0]
1000423c:	0023      	movs	r3, r4
1000423e:	f7ff fec6 	bl	10003fce <_ntoa_format>
10004242:	0003      	movs	r3, r0
10004244:	0018      	movs	r0, r3
10004246:	46bd      	mov	sp, r7
10004248:	b00f      	add	sp, #60	@ 0x3c
1000424a:	bd90      	pop	{r4, r7, pc}

1000424c <_ntoa_long_long>:
1000424c:	b5b0      	push	{r4, r5, r7, lr}
1000424e:	b096      	sub	sp, #88	@ 0x58
10004250:	af08      	add	r7, sp, #32
10004252:	60f8      	str	r0, [r7, #12]
10004254:	60b9      	str	r1, [r7, #8]
10004256:	607a      	str	r2, [r7, #4]
10004258:	603b      	str	r3, [r7, #0]
1000425a:	2300      	movs	r3, #0
1000425c:	637b      	str	r3, [r7, #52]	@ 0x34
1000425e:	6cbb      	ldr	r3, [r7, #72]	@ 0x48
10004260:	6cfa      	ldr	r2, [r7, #76]	@ 0x4c
10004262:	4313      	orrs	r3, r2
10004264:	d103      	bne.n	1000426e <_ntoa_long_long+0x22>
10004266:	6ebb      	ldr	r3, [r7, #104]	@ 0x68
10004268:	2210      	movs	r2, #16
1000426a:	4393      	bics	r3, r2
1000426c:	66bb      	str	r3, [r7, #104]	@ 0x68
1000426e:	6eba      	ldr	r2, [r7, #104]	@ 0x68
10004270:	2380      	movs	r3, #128	@ 0x80
10004272:	00db      	lsls	r3, r3, #3
10004274:	4013      	ands	r3, r2
10004276:	d003      	beq.n	10004280 <_ntoa_long_long+0x34>
10004278:	6cbb      	ldr	r3, [r7, #72]	@ 0x48
1000427a:	6cfa      	ldr	r2, [r7, #76]	@ 0x4c
1000427c:	4313      	orrs	r3, r2
1000427e:	d03a      	beq.n	100042f6 <_ntoa_long_long+0xaa>
10004280:	6cb8      	ldr	r0, [r7, #72]	@ 0x48
10004282:	6cf9      	ldr	r1, [r7, #76]	@ 0x4c
10004284:	6dba      	ldr	r2, [r7, #88]	@ 0x58
10004286:	6dfb      	ldr	r3, [r7, #92]	@ 0x5c
10004288:	f001 fb06 	bl	10005898 <__wrap___aeabi_uldivmod>
1000428c:	0010      	movs	r0, r2
1000428e:	0019      	movs	r1, r3
10004290:	2433      	movs	r4, #51	@ 0x33
10004292:	193b      	adds	r3, r7, r4
10004294:	1c02      	adds	r2, r0, #0
10004296:	701a      	strb	r2, [r3, #0]
10004298:	0022      	movs	r2, r4
1000429a:	18bb      	adds	r3, r7, r2
1000429c:	781b      	ldrb	r3, [r3, #0]
1000429e:	2b09      	cmp	r3, #9
100042a0:	d804      	bhi.n	100042ac <_ntoa_long_long+0x60>
100042a2:	18bb      	adds	r3, r7, r2
100042a4:	781b      	ldrb	r3, [r3, #0]
100042a6:	3330      	adds	r3, #48	@ 0x30
100042a8:	b2da      	uxtb	r2, r3
100042aa:	e00d      	b.n	100042c8 <_ntoa_long_long+0x7c>
100042ac:	6ebb      	ldr	r3, [r7, #104]	@ 0x68
100042ae:	2220      	movs	r2, #32
100042b0:	4013      	ands	r3, r2
100042b2:	d001      	beq.n	100042b8 <_ntoa_long_long+0x6c>
100042b4:	2341      	movs	r3, #65	@ 0x41
100042b6:	e000      	b.n	100042ba <_ntoa_long_long+0x6e>
100042b8:	2361      	movs	r3, #97	@ 0x61
100042ba:	2233      	movs	r2, #51	@ 0x33
100042bc:	18ba      	adds	r2, r7, r2
100042be:	7812      	ldrb	r2, [r2, #0]
100042c0:	189b      	adds	r3, r3, r2
100042c2:	b2db      	uxtb	r3, r3
100042c4:	3b0a      	subs	r3, #10
100042c6:	b2da      	uxtb	r2, r3
100042c8:	6b7b      	ldr	r3, [r7, #52]	@ 0x34
100042ca:	1c59      	adds	r1, r3, #1
100042cc:	6379      	str	r1, [r7, #52]	@ 0x34
100042ce:	2110      	movs	r1, #16
100042d0:	1879      	adds	r1, r7, r1
100042d2:	54ca      	strb	r2, [r1, r3]
100042d4:	6dba      	ldr	r2, [r7, #88]	@ 0x58
100042d6:	6dfb      	ldr	r3, [r7, #92]	@ 0x5c
100042d8:	6cb8      	ldr	r0, [r7, #72]	@ 0x48
100042da:	6cf9      	ldr	r1, [r7, #76]	@ 0x4c
100042dc:	f001 fadc 	bl	10005898 <__wrap___aeabi_uldivmod>
100042e0:	0002      	movs	r2, r0
100042e2:	000b      	movs	r3, r1
100042e4:	64ba      	str	r2, [r7, #72]	@ 0x48
100042e6:	64fb      	str	r3, [r7, #76]	@ 0x4c
100042e8:	6cbb      	ldr	r3, [r7, #72]	@ 0x48
100042ea:	6cfa      	ldr	r2, [r7, #76]	@ 0x4c
100042ec:	4313      	orrs	r3, r2
100042ee:	d002      	beq.n	100042f6 <_ntoa_long_long+0xaa>
100042f0:	6b7b      	ldr	r3, [r7, #52]	@ 0x34
100042f2:	2b1f      	cmp	r3, #31
100042f4:	d9c4      	bls.n	10004280 <_ntoa_long_long+0x34>
100042f6:	6dbb      	ldr	r3, [r7, #88]	@ 0x58
100042f8:	683d      	ldr	r5, [r7, #0]
100042fa:	687c      	ldr	r4, [r7, #4]
100042fc:	68b9      	ldr	r1, [r7, #8]
100042fe:	68f8      	ldr	r0, [r7, #12]
10004300:	6eba      	ldr	r2, [r7, #104]	@ 0x68
10004302:	9206      	str	r2, [sp, #24]
10004304:	6e7a      	ldr	r2, [r7, #100]	@ 0x64
10004306:	9205      	str	r2, [sp, #20]
10004308:	6e3a      	ldr	r2, [r7, #96]	@ 0x60
1000430a:	9204      	str	r2, [sp, #16]
1000430c:	9303      	str	r3, [sp, #12]
1000430e:	2350      	movs	r3, #80	@ 0x50
10004310:	18fb      	adds	r3, r7, r3
10004312:	781b      	ldrb	r3, [r3, #0]
10004314:	9302      	str	r3, [sp, #8]
10004316:	6b7b      	ldr	r3, [r7, #52]	@ 0x34
10004318:	9301      	str	r3, [sp, #4]
1000431a:	2310      	movs	r3, #16
1000431c:	18fb      	adds	r3, r7, r3
1000431e:	9300      	str	r3, [sp, #0]
10004320:	002b      	movs	r3, r5
10004322:	0022      	movs	r2, r4
10004324:	f7ff fe53 	bl	10003fce <_ntoa_format>
10004328:	0003      	movs	r3, r0
1000432a:	0018      	movs	r0, r3
1000432c:	46bd      	mov	sp, r7
1000432e:	b00e      	add	sp, #56	@ 0x38
10004330:	bdb0      	pop	{r4, r5, r7, pc}
	...

10004334 <_ftoa>:
10004334:	b5f0      	push	{r4, r5, r6, r7, lr}
10004336:	b09d      	sub	sp, #116	@ 0x74
10004338:	af06      	add	r7, sp, #24
1000433a:	60f8      	str	r0, [r7, #12]
1000433c:	60b9      	str	r1, [r7, #8]
1000433e:	607a      	str	r2, [r7, #4]
10004340:	603b      	str	r3, [r7, #0]
10004342:	2300      	movs	r3, #0
10004344:	657b      	str	r3, [r7, #84]	@ 0x54
10004346:	2200      	movs	r2, #0
10004348:	2300      	movs	r3, #0
1000434a:	63ba      	str	r2, [r7, #56]	@ 0x38
1000434c:	63fb      	str	r3, [r7, #60]	@ 0x3c
1000434e:	6f3a      	ldr	r2, [r7, #112]	@ 0x70
10004350:	6f7b      	ldr	r3, [r7, #116]	@ 0x74
10004352:	6f38      	ldr	r0, [r7, #112]	@ 0x70
10004354:	6f79      	ldr	r1, [r7, #116]	@ 0x74
10004356:	f001 fd22 	bl	10005d9e <__wrap___aeabi_dcmpun>
1000435a:	1e03      	subs	r3, r0, #0
1000435c:	d012      	beq.n	10004384 <_ftoa+0x50>
1000435e:	683c      	ldr	r4, [r7, #0]
10004360:	687a      	ldr	r2, [r7, #4]
10004362:	68b9      	ldr	r1, [r7, #8]
10004364:	68f8      	ldr	r0, [r7, #12]
10004366:	2380      	movs	r3, #128	@ 0x80
10004368:	18fb      	adds	r3, r7, r3
1000436a:	681b      	ldr	r3, [r3, #0]
1000436c:	9303      	str	r3, [sp, #12]
1000436e:	6ffb      	ldr	r3, [r7, #124]	@ 0x7c
10004370:	9302      	str	r3, [sp, #8]
10004372:	2303      	movs	r3, #3
10004374:	9301      	str	r3, [sp, #4]
10004376:	4bc5      	ldr	r3, [pc, #788]	@ (1000468c <_ftoa+0x358>)
10004378:	9300      	str	r3, [sp, #0]
1000437a:	0023      	movs	r3, r4
1000437c:	f7ff fdda 	bl	10003f34 <_out_rev>
10004380:	0003      	movs	r3, r0
10004382:	e21d      	b.n	100047c0 <_ftoa+0x48c>
10004384:	2201      	movs	r2, #1
10004386:	4252      	negs	r2, r2
10004388:	4bc1      	ldr	r3, [pc, #772]	@ (10004690 <_ftoa+0x35c>)
1000438a:	6f38      	ldr	r0, [r7, #112]	@ 0x70
1000438c:	6f79      	ldr	r1, [r7, #116]	@ 0x74
1000438e:	f001 fcf3 	bl	10005d78 <__wrap___aeabi_dcmplt>
10004392:	1e03      	subs	r3, r0, #0
10004394:	d012      	beq.n	100043bc <_ftoa+0x88>
10004396:	683c      	ldr	r4, [r7, #0]
10004398:	687a      	ldr	r2, [r7, #4]
1000439a:	68b9      	ldr	r1, [r7, #8]
1000439c:	68f8      	ldr	r0, [r7, #12]
1000439e:	2380      	movs	r3, #128	@ 0x80
100043a0:	18fb      	adds	r3, r7, r3
100043a2:	681b      	ldr	r3, [r3, #0]
100043a4:	9303      	str	r3, [sp, #12]
100043a6:	6ffb      	ldr	r3, [r7, #124]	@ 0x7c
100043a8:	9302      	str	r3, [sp, #8]
100043aa:	2304      	movs	r3, #4
100043ac:	9301      	str	r3, [sp, #4]
100043ae:	4bb9      	ldr	r3, [pc, #740]	@ (10004694 <_ftoa+0x360>)
100043b0:	9300      	str	r3, [sp, #0]
100043b2:	0023      	movs	r3, r4
100043b4:	f7ff fdbe 	bl	10003f34 <_out_rev>
100043b8:	0003      	movs	r3, r0
100043ba:	e201      	b.n	100047c0 <_ftoa+0x48c>
100043bc:	2201      	movs	r2, #1
100043be:	4252      	negs	r2, r2
100043c0:	4bb5      	ldr	r3, [pc, #724]	@ (10004698 <_ftoa+0x364>)
100043c2:	6f38      	ldr	r0, [r7, #112]	@ 0x70
100043c4:	6f79      	ldr	r1, [r7, #116]	@ 0x74
100043c6:	f001 fce5 	bl	10005d94 <__wrap___aeabi_dcmpgt>
100043ca:	1e03      	subs	r3, r0, #0
100043cc:	d024      	beq.n	10004418 <_ftoa+0xe4>
100043ce:	2380      	movs	r3, #128	@ 0x80
100043d0:	18fb      	adds	r3, r7, r3
100043d2:	681b      	ldr	r3, [r3, #0]
100043d4:	2204      	movs	r2, #4
100043d6:	4013      	ands	r3, r2
100043d8:	d001      	beq.n	100043de <_ftoa+0xaa>
100043da:	4bb0      	ldr	r3, [pc, #704]	@ (1000469c <_ftoa+0x368>)
100043dc:	e000      	b.n	100043e0 <_ftoa+0xac>
100043de:	4bb0      	ldr	r3, [pc, #704]	@ (100046a0 <_ftoa+0x36c>)
100043e0:	2280      	movs	r2, #128	@ 0x80
100043e2:	18ba      	adds	r2, r7, r2
100043e4:	6812      	ldr	r2, [r2, #0]
100043e6:	2104      	movs	r1, #4
100043e8:	400a      	ands	r2, r1
100043ea:	d001      	beq.n	100043f0 <_ftoa+0xbc>
100043ec:	2204      	movs	r2, #4
100043ee:	e000      	b.n	100043f2 <_ftoa+0xbe>
100043f0:	2203      	movs	r2, #3
100043f2:	683e      	ldr	r6, [r7, #0]
100043f4:	687d      	ldr	r5, [r7, #4]
100043f6:	68bc      	ldr	r4, [r7, #8]
100043f8:	68f8      	ldr	r0, [r7, #12]
100043fa:	2180      	movs	r1, #128	@ 0x80
100043fc:	1879      	adds	r1, r7, r1
100043fe:	6809      	ldr	r1, [r1, #0]
10004400:	9103      	str	r1, [sp, #12]
10004402:	6ff9      	ldr	r1, [r7, #124]	@ 0x7c
10004404:	9102      	str	r1, [sp, #8]
10004406:	9201      	str	r2, [sp, #4]
10004408:	9300      	str	r3, [sp, #0]
1000440a:	0033      	movs	r3, r6
1000440c:	002a      	movs	r2, r5
1000440e:	0021      	movs	r1, r4
10004410:	f7ff fd90 	bl	10003f34 <_out_rev>
10004414:	0003      	movs	r3, r0
10004416:	e1d3      	b.n	100047c0 <_ftoa+0x48c>
10004418:	2200      	movs	r2, #0
1000441a:	4ba2      	ldr	r3, [pc, #648]	@ (100046a4 <_ftoa+0x370>)
1000441c:	6f38      	ldr	r0, [r7, #112]	@ 0x70
1000441e:	6f79      	ldr	r1, [r7, #116]	@ 0x74
10004420:	f001 fcb8 	bl	10005d94 <__wrap___aeabi_dcmpgt>
10004424:	1e03      	subs	r3, r0, #0
10004426:	d107      	bne.n	10004438 <_ftoa+0x104>
10004428:	2200      	movs	r2, #0
1000442a:	4b9f      	ldr	r3, [pc, #636]	@ (100046a8 <_ftoa+0x374>)
1000442c:	6f38      	ldr	r0, [r7, #112]	@ 0x70
1000442e:	6f79      	ldr	r1, [r7, #116]	@ 0x74
10004430:	f001 fca2 	bl	10005d78 <__wrap___aeabi_dcmplt>
10004434:	1e03      	subs	r3, r0, #0
10004436:	d015      	beq.n	10004464 <_ftoa+0x130>
10004438:	683d      	ldr	r5, [r7, #0]
1000443a:	687c      	ldr	r4, [r7, #4]
1000443c:	68b9      	ldr	r1, [r7, #8]
1000443e:	68f8      	ldr	r0, [r7, #12]
10004440:	2380      	movs	r3, #128	@ 0x80
10004442:	18fb      	adds	r3, r7, r3
10004444:	681b      	ldr	r3, [r3, #0]
10004446:	9304      	str	r3, [sp, #16]
10004448:	6ffb      	ldr	r3, [r7, #124]	@ 0x7c
1000444a:	9303      	str	r3, [sp, #12]
1000444c:	6fbb      	ldr	r3, [r7, #120]	@ 0x78
1000444e:	9302      	str	r3, [sp, #8]
10004450:	6f3a      	ldr	r2, [r7, #112]	@ 0x70
10004452:	6f7b      	ldr	r3, [r7, #116]	@ 0x74
10004454:	9200      	str	r2, [sp, #0]
10004456:	9301      	str	r3, [sp, #4]
10004458:	002b      	movs	r3, r5
1000445a:	0022      	movs	r2, r4
1000445c:	f000 f9b4 	bl	100047c8 <_etoa>
10004460:	0003      	movs	r3, r0
10004462:	e1ad      	b.n	100047c0 <_ftoa+0x48c>
10004464:	2453      	movs	r4, #83	@ 0x53
10004466:	193b      	adds	r3, r7, r4
10004468:	2200      	movs	r2, #0
1000446a:	701a      	strb	r2, [r3, #0]
1000446c:	2200      	movs	r2, #0
1000446e:	2300      	movs	r3, #0
10004470:	6f38      	ldr	r0, [r7, #112]	@ 0x70
10004472:	6f79      	ldr	r1, [r7, #116]	@ 0x74
10004474:	f001 fc80 	bl	10005d78 <__wrap___aeabi_dcmplt>
10004478:	1e03      	subs	r3, r0, #0
1000447a:	d00c      	beq.n	10004496 <_ftoa+0x162>
1000447c:	193b      	adds	r3, r7, r4
1000447e:	2201      	movs	r2, #1
10004480:	701a      	strb	r2, [r3, #0]
10004482:	6f3a      	ldr	r2, [r7, #112]	@ 0x70
10004484:	6f7b      	ldr	r3, [r7, #116]	@ 0x74
10004486:	2000      	movs	r0, #0
10004488:	2100      	movs	r1, #0
1000448a:	f001 fc02 	bl	10005c92 <__wrap___aeabi_dsub>
1000448e:	0002      	movs	r2, r0
10004490:	000b      	movs	r3, r1
10004492:	673a      	str	r2, [r7, #112]	@ 0x70
10004494:	677b      	str	r3, [r7, #116]	@ 0x74
10004496:	2380      	movs	r3, #128	@ 0x80
10004498:	18fb      	adds	r3, r7, r3
1000449a:	681a      	ldr	r2, [r3, #0]
1000449c:	2380      	movs	r3, #128	@ 0x80
1000449e:	00db      	lsls	r3, r3, #3
100044a0:	4013      	ands	r3, r2
100044a2:	d10c      	bne.n	100044be <_ftoa+0x18a>
100044a4:	2306      	movs	r3, #6
100044a6:	67bb      	str	r3, [r7, #120]	@ 0x78
100044a8:	e009      	b.n	100044be <_ftoa+0x18a>
100044aa:	6d7b      	ldr	r3, [r7, #84]	@ 0x54
100044ac:	1c5a      	adds	r2, r3, #1
100044ae:	657a      	str	r2, [r7, #84]	@ 0x54
100044b0:	2210      	movs	r2, #16
100044b2:	18ba      	adds	r2, r7, r2
100044b4:	2130      	movs	r1, #48	@ 0x30
100044b6:	54d1      	strb	r1, [r2, r3]
100044b8:	6fbb      	ldr	r3, [r7, #120]	@ 0x78
100044ba:	3b01      	subs	r3, #1
100044bc:	67bb      	str	r3, [r7, #120]	@ 0x78
100044be:	6d7b      	ldr	r3, [r7, #84]	@ 0x54
100044c0:	2b1f      	cmp	r3, #31
100044c2:	d802      	bhi.n	100044ca <_ftoa+0x196>
100044c4:	6fbb      	ldr	r3, [r7, #120]	@ 0x78
100044c6:	2b09      	cmp	r3, #9
100044c8:	d8ef      	bhi.n	100044aa <_ftoa+0x176>
100044ca:	6f38      	ldr	r0, [r7, #112]	@ 0x70
100044cc:	6f79      	ldr	r1, [r7, #116]	@ 0x74
100044ce:	f001 fc91 	bl	10005df4 <__wrap___aeabi_d2iz>
100044d2:	0003      	movs	r3, r0
100044d4:	64fb      	str	r3, [r7, #76]	@ 0x4c
100044d6:	6cf8      	ldr	r0, [r7, #76]	@ 0x4c
100044d8:	f001 fc74 	bl	10005dc4 <__wrap___aeabi_i2d>
100044dc:	0002      	movs	r2, r0
100044de:	000b      	movs	r3, r1
100044e0:	6f38      	ldr	r0, [r7, #112]	@ 0x70
100044e2:	6f79      	ldr	r1, [r7, #116]	@ 0x74
100044e4:	f001 fbd5 	bl	10005c92 <__wrap___aeabi_dsub>
100044e8:	0002      	movs	r2, r0
100044ea:	000b      	movs	r3, r1
100044ec:	0010      	movs	r0, r2
100044ee:	0019      	movs	r1, r3
100044f0:	4a6e      	ldr	r2, [pc, #440]	@ (100046ac <_ftoa+0x378>)
100044f2:	6fbb      	ldr	r3, [r7, #120]	@ 0x78
100044f4:	00db      	lsls	r3, r3, #3
100044f6:	18d3      	adds	r3, r2, r3
100044f8:	681a      	ldr	r2, [r3, #0]
100044fa:	685b      	ldr	r3, [r3, #4]
100044fc:	f001 fbf9 	bl	10005cf2 <__wrap___aeabi_dmul>
10004500:	0002      	movs	r2, r0
10004502:	000b      	movs	r3, r1
10004504:	633a      	str	r2, [r7, #48]	@ 0x30
10004506:	637b      	str	r3, [r7, #52]	@ 0x34
10004508:	6b38      	ldr	r0, [r7, #48]	@ 0x30
1000450a:	6b79      	ldr	r1, [r7, #52]	@ 0x34
1000450c:	f001 fc96 	bl	10005e3c <__wrap___aeabi_d2uiz>
10004510:	0003      	movs	r3, r0
10004512:	64bb      	str	r3, [r7, #72]	@ 0x48
10004514:	6cb8      	ldr	r0, [r7, #72]	@ 0x48
10004516:	f001 fc51 	bl	10005dbc <__wrap___aeabi_ui2d>
1000451a:	0002      	movs	r2, r0
1000451c:	000b      	movs	r3, r1
1000451e:	6b38      	ldr	r0, [r7, #48]	@ 0x30
10004520:	6b79      	ldr	r1, [r7, #52]	@ 0x34
10004522:	f001 fbb6 	bl	10005c92 <__wrap___aeabi_dsub>
10004526:	0002      	movs	r2, r0
10004528:	000b      	movs	r3, r1
1000452a:	63ba      	str	r2, [r7, #56]	@ 0x38
1000452c:	63fb      	str	r3, [r7, #60]	@ 0x3c
1000452e:	2200      	movs	r2, #0
10004530:	4b5f      	ldr	r3, [pc, #380]	@ (100046b0 <_ftoa+0x37c>)
10004532:	6bb8      	ldr	r0, [r7, #56]	@ 0x38
10004534:	6bf9      	ldr	r1, [r7, #60]	@ 0x3c
10004536:	f001 fc2d 	bl	10005d94 <__wrap___aeabi_dcmpgt>
1000453a:	1e03      	subs	r3, r0, #0
1000453c:	d015      	beq.n	1000456a <_ftoa+0x236>
1000453e:	6cbb      	ldr	r3, [r7, #72]	@ 0x48
10004540:	3301      	adds	r3, #1
10004542:	64bb      	str	r3, [r7, #72]	@ 0x48
10004544:	6cb8      	ldr	r0, [r7, #72]	@ 0x48
10004546:	f001 fc39 	bl	10005dbc <__wrap___aeabi_ui2d>
1000454a:	4a58      	ldr	r2, [pc, #352]	@ (100046ac <_ftoa+0x378>)
1000454c:	6fbb      	ldr	r3, [r7, #120]	@ 0x78
1000454e:	00db      	lsls	r3, r3, #3
10004550:	18d3      	adds	r3, r2, r3
10004552:	681a      	ldr	r2, [r3, #0]
10004554:	685b      	ldr	r3, [r3, #4]
10004556:	f001 fc15 	bl	10005d84 <__wrap___aeabi_dcmpge>
1000455a:	1e03      	subs	r3, r0, #0
1000455c:	d017      	beq.n	1000458e <_ftoa+0x25a>
1000455e:	2300      	movs	r3, #0
10004560:	64bb      	str	r3, [r7, #72]	@ 0x48
10004562:	6cfb      	ldr	r3, [r7, #76]	@ 0x4c
10004564:	3301      	adds	r3, #1
10004566:	64fb      	str	r3, [r7, #76]	@ 0x4c
10004568:	e011      	b.n	1000458e <_ftoa+0x25a>
1000456a:	2200      	movs	r2, #0
1000456c:	4b50      	ldr	r3, [pc, #320]	@ (100046b0 <_ftoa+0x37c>)
1000456e:	6bb8      	ldr	r0, [r7, #56]	@ 0x38
10004570:	6bf9      	ldr	r1, [r7, #60]	@ 0x3c
10004572:	f001 fc01 	bl	10005d78 <__wrap___aeabi_dcmplt>
10004576:	1e03      	subs	r3, r0, #0
10004578:	d109      	bne.n	1000458e <_ftoa+0x25a>
1000457a:	6cbb      	ldr	r3, [r7, #72]	@ 0x48
1000457c:	2b00      	cmp	r3, #0
1000457e:	d003      	beq.n	10004588 <_ftoa+0x254>
10004580:	6cbb      	ldr	r3, [r7, #72]	@ 0x48
10004582:	2201      	movs	r2, #1
10004584:	4013      	ands	r3, r2
10004586:	d002      	beq.n	1000458e <_ftoa+0x25a>
10004588:	6cbb      	ldr	r3, [r7, #72]	@ 0x48
1000458a:	3301      	adds	r3, #1
1000458c:	64bb      	str	r3, [r7, #72]	@ 0x48
1000458e:	6fbb      	ldr	r3, [r7, #120]	@ 0x78
10004590:	2b00      	cmp	r3, #0
10004592:	d13b      	bne.n	1000460c <_ftoa+0x2d8>
10004594:	6cf8      	ldr	r0, [r7, #76]	@ 0x4c
10004596:	f001 fc15 	bl	10005dc4 <__wrap___aeabi_i2d>
1000459a:	0002      	movs	r2, r0
1000459c:	000b      	movs	r3, r1
1000459e:	6f38      	ldr	r0, [r7, #112]	@ 0x70
100045a0:	6f79      	ldr	r1, [r7, #116]	@ 0x74
100045a2:	f001 fb76 	bl	10005c92 <__wrap___aeabi_dsub>
100045a6:	0002      	movs	r2, r0
100045a8:	000b      	movs	r3, r1
100045aa:	63ba      	str	r2, [r7, #56]	@ 0x38
100045ac:	63fb      	str	r3, [r7, #60]	@ 0x3c
100045ae:	2301      	movs	r3, #1
100045b0:	1c1c      	adds	r4, r3, #0
100045b2:	2200      	movs	r2, #0
100045b4:	4b3e      	ldr	r3, [pc, #248]	@ (100046b0 <_ftoa+0x37c>)
100045b6:	6bb8      	ldr	r0, [r7, #56]	@ 0x38
100045b8:	6bf9      	ldr	r1, [r7, #60]	@ 0x3c
100045ba:	f001 fbdd 	bl	10005d78 <__wrap___aeabi_dcmplt>
100045be:	1e03      	subs	r3, r0, #0
100045c0:	d101      	bne.n	100045c6 <_ftoa+0x292>
100045c2:	2300      	movs	r3, #0
100045c4:	1c1c      	adds	r4, r3, #0
100045c6:	b2e3      	uxtb	r3, r4
100045c8:	2201      	movs	r2, #1
100045ca:	4053      	eors	r3, r2
100045cc:	b2db      	uxtb	r3, r3
100045ce:	2b00      	cmp	r3, #0
100045d0:	d100      	bne.n	100045d4 <_ftoa+0x2a0>
100045d2:	e088      	b.n	100046e6 <_ftoa+0x3b2>
100045d4:	2301      	movs	r3, #1
100045d6:	1c1c      	adds	r4, r3, #0
100045d8:	2200      	movs	r2, #0
100045da:	4b35      	ldr	r3, [pc, #212]	@ (100046b0 <_ftoa+0x37c>)
100045dc:	6bb8      	ldr	r0, [r7, #56]	@ 0x38
100045de:	6bf9      	ldr	r1, [r7, #60]	@ 0x3c
100045e0:	f001 fbd8 	bl	10005d94 <__wrap___aeabi_dcmpgt>
100045e4:	1e03      	subs	r3, r0, #0
100045e6:	d101      	bne.n	100045ec <_ftoa+0x2b8>
100045e8:	2300      	movs	r3, #0
100045ea:	1c1c      	adds	r4, r3, #0
100045ec:	b2e3      	uxtb	r3, r4
100045ee:	2201      	movs	r2, #1
100045f0:	4053      	eors	r3, r2
100045f2:	b2db      	uxtb	r3, r3
100045f4:	2b00      	cmp	r3, #0
100045f6:	d100      	bne.n	100045fa <_ftoa+0x2c6>
100045f8:	e075      	b.n	100046e6 <_ftoa+0x3b2>
100045fa:	6cfb      	ldr	r3, [r7, #76]	@ 0x4c
100045fc:	2201      	movs	r2, #1
100045fe:	4013      	ands	r3, r2
10004600:	d100      	bne.n	10004604 <_ftoa+0x2d0>
10004602:	e070      	b.n	100046e6 <_ftoa+0x3b2>
10004604:	6cfb      	ldr	r3, [r7, #76]	@ 0x4c
10004606:	3301      	adds	r3, #1
10004608:	64fb      	str	r3, [r7, #76]	@ 0x4c
1000460a:	e06c      	b.n	100046e6 <_ftoa+0x3b2>
1000460c:	6fbb      	ldr	r3, [r7, #120]	@ 0x78
1000460e:	647b      	str	r3, [r7, #68]	@ 0x44
10004610:	e01b      	b.n	1000464a <_ftoa+0x316>
10004612:	6c7b      	ldr	r3, [r7, #68]	@ 0x44
10004614:	3b01      	subs	r3, #1
10004616:	647b      	str	r3, [r7, #68]	@ 0x44
10004618:	6cbb      	ldr	r3, [r7, #72]	@ 0x48
1000461a:	210a      	movs	r1, #10
1000461c:	0018      	movs	r0, r3
1000461e:	f001 f8fd 	bl	1000581c <__wrap___aeabi_uidiv>
10004622:	000b      	movs	r3, r1
10004624:	b2da      	uxtb	r2, r3
10004626:	6d7b      	ldr	r3, [r7, #84]	@ 0x54
10004628:	1c59      	adds	r1, r3, #1
1000462a:	6579      	str	r1, [r7, #84]	@ 0x54
1000462c:	3230      	adds	r2, #48	@ 0x30
1000462e:	b2d1      	uxtb	r1, r2
10004630:	2210      	movs	r2, #16
10004632:	18ba      	adds	r2, r7, r2
10004634:	54d1      	strb	r1, [r2, r3]
10004636:	6cbb      	ldr	r3, [r7, #72]	@ 0x48
10004638:	210a      	movs	r1, #10
1000463a:	0018      	movs	r0, r3
1000463c:	f001 f8ee 	bl	1000581c <__wrap___aeabi_uidiv>
10004640:	0003      	movs	r3, r0
10004642:	64bb      	str	r3, [r7, #72]	@ 0x48
10004644:	6cbb      	ldr	r3, [r7, #72]	@ 0x48
10004646:	2b00      	cmp	r3, #0
10004648:	d003      	beq.n	10004652 <_ftoa+0x31e>
1000464a:	6d7b      	ldr	r3, [r7, #84]	@ 0x54
1000464c:	2b1f      	cmp	r3, #31
1000464e:	d9e0      	bls.n	10004612 <_ftoa+0x2de>
10004650:	e008      	b.n	10004664 <_ftoa+0x330>
10004652:	46c0      	nop			@ (mov r8, r8)
10004654:	e006      	b.n	10004664 <_ftoa+0x330>
10004656:	6d7b      	ldr	r3, [r7, #84]	@ 0x54
10004658:	1c5a      	adds	r2, r3, #1
1000465a:	657a      	str	r2, [r7, #84]	@ 0x54
1000465c:	2210      	movs	r2, #16
1000465e:	18ba      	adds	r2, r7, r2
10004660:	2130      	movs	r1, #48	@ 0x30
10004662:	54d1      	strb	r1, [r2, r3]
10004664:	6d7b      	ldr	r3, [r7, #84]	@ 0x54
10004666:	2b1f      	cmp	r3, #31
10004668:	d804      	bhi.n	10004674 <_ftoa+0x340>
1000466a:	6c7b      	ldr	r3, [r7, #68]	@ 0x44
1000466c:	1e5a      	subs	r2, r3, #1
1000466e:	647a      	str	r2, [r7, #68]	@ 0x44
10004670:	2b00      	cmp	r3, #0
10004672:	d1f0      	bne.n	10004656 <_ftoa+0x322>
10004674:	6d7b      	ldr	r3, [r7, #84]	@ 0x54
10004676:	2b1f      	cmp	r3, #31
10004678:	d835      	bhi.n	100046e6 <_ftoa+0x3b2>
1000467a:	6d7b      	ldr	r3, [r7, #84]	@ 0x54
1000467c:	1c5a      	adds	r2, r3, #1
1000467e:	657a      	str	r2, [r7, #84]	@ 0x54
10004680:	2210      	movs	r2, #16
10004682:	18ba      	adds	r2, r7, r2
10004684:	212e      	movs	r1, #46	@ 0x2e
10004686:	54d1      	strb	r1, [r2, r3]
10004688:	e02d      	b.n	100046e6 <_ftoa+0x3b2>
1000468a:	46c0      	nop			@ (mov r8, r8)
1000468c:	1000a21c 	.word	0x1000a21c
10004690:	ffefffff 	.word	0xffefffff
10004694:	1000a220 	.word	0x1000a220
10004698:	7fefffff 	.word	0x7fefffff
1000469c:	1000a228 	.word	0x1000a228
100046a0:	1000a230 	.word	0x1000a230
100046a4:	41cdcd65 	.word	0x41cdcd65
100046a8:	c1cdcd65 	.word	0xc1cdcd65
100046ac:	1000a3d0 	.word	0x1000a3d0
100046b0:	3fe00000 	.word	0x3fe00000
100046b4:	6cfb      	ldr	r3, [r7, #76]	@ 0x4c
100046b6:	210a      	movs	r1, #10
100046b8:	0018      	movs	r0, r3
100046ba:	f001 f887 	bl	100057cc <__wrap___aeabi_idiv>
100046be:	000b      	movs	r3, r1
100046c0:	b2da      	uxtb	r2, r3
100046c2:	6d7b      	ldr	r3, [r7, #84]	@ 0x54
100046c4:	1c59      	adds	r1, r3, #1
100046c6:	6579      	str	r1, [r7, #84]	@ 0x54
100046c8:	3230      	adds	r2, #48	@ 0x30
100046ca:	b2d1      	uxtb	r1, r2
100046cc:	2210      	movs	r2, #16
100046ce:	18ba      	adds	r2, r7, r2
100046d0:	54d1      	strb	r1, [r2, r3]
100046d2:	6cfb      	ldr	r3, [r7, #76]	@ 0x4c
100046d4:	210a      	movs	r1, #10
100046d6:	0018      	movs	r0, r3
100046d8:	f001 f878 	bl	100057cc <__wrap___aeabi_idiv>
100046dc:	0003      	movs	r3, r0
100046de:	64fb      	str	r3, [r7, #76]	@ 0x4c
100046e0:	6cfb      	ldr	r3, [r7, #76]	@ 0x4c
100046e2:	2b00      	cmp	r3, #0
100046e4:	d003      	beq.n	100046ee <_ftoa+0x3ba>
100046e6:	6d7b      	ldr	r3, [r7, #84]	@ 0x54
100046e8:	2b1f      	cmp	r3, #31
100046ea:	d9e3      	bls.n	100046b4 <_ftoa+0x380>
100046ec:	e000      	b.n	100046f0 <_ftoa+0x3bc>
100046ee:	46c0      	nop			@ (mov r8, r8)
100046f0:	2180      	movs	r1, #128	@ 0x80
100046f2:	187b      	adds	r3, r7, r1
100046f4:	681b      	ldr	r3, [r3, #0]
100046f6:	2202      	movs	r2, #2
100046f8:	4013      	ands	r3, r2
100046fa:	d123      	bne.n	10004744 <_ftoa+0x410>
100046fc:	187b      	adds	r3, r7, r1
100046fe:	681b      	ldr	r3, [r3, #0]
10004700:	2201      	movs	r2, #1
10004702:	4013      	ands	r3, r2
10004704:	d01e      	beq.n	10004744 <_ftoa+0x410>
10004706:	6ffb      	ldr	r3, [r7, #124]	@ 0x7c
10004708:	2b00      	cmp	r3, #0
1000470a:	d014      	beq.n	10004736 <_ftoa+0x402>
1000470c:	2353      	movs	r3, #83	@ 0x53
1000470e:	18fb      	adds	r3, r7, r3
10004710:	781b      	ldrb	r3, [r3, #0]
10004712:	2b00      	cmp	r3, #0
10004714:	d104      	bne.n	10004720 <_ftoa+0x3ec>
10004716:	187b      	adds	r3, r7, r1
10004718:	681b      	ldr	r3, [r3, #0]
1000471a:	220c      	movs	r2, #12
1000471c:	4013      	ands	r3, r2
1000471e:	d00a      	beq.n	10004736 <_ftoa+0x402>
10004720:	6ffb      	ldr	r3, [r7, #124]	@ 0x7c
10004722:	3b01      	subs	r3, #1
10004724:	67fb      	str	r3, [r7, #124]	@ 0x7c
10004726:	e006      	b.n	10004736 <_ftoa+0x402>
10004728:	6d7b      	ldr	r3, [r7, #84]	@ 0x54
1000472a:	1c5a      	adds	r2, r3, #1
1000472c:	657a      	str	r2, [r7, #84]	@ 0x54
1000472e:	2210      	movs	r2, #16
10004730:	18ba      	adds	r2, r7, r2
10004732:	2130      	movs	r1, #48	@ 0x30
10004734:	54d1      	strb	r1, [r2, r3]
10004736:	6d7a      	ldr	r2, [r7, #84]	@ 0x54
10004738:	6ffb      	ldr	r3, [r7, #124]	@ 0x7c
1000473a:	429a      	cmp	r2, r3
1000473c:	d202      	bcs.n	10004744 <_ftoa+0x410>
1000473e:	6d7b      	ldr	r3, [r7, #84]	@ 0x54
10004740:	2b1f      	cmp	r3, #31
10004742:	d9f1      	bls.n	10004728 <_ftoa+0x3f4>
10004744:	6d7b      	ldr	r3, [r7, #84]	@ 0x54
10004746:	2b1f      	cmp	r3, #31
10004748:	d827      	bhi.n	1000479a <_ftoa+0x466>
1000474a:	2353      	movs	r3, #83	@ 0x53
1000474c:	18fb      	adds	r3, r7, r3
1000474e:	781b      	ldrb	r3, [r3, #0]
10004750:	2b00      	cmp	r3, #0
10004752:	d007      	beq.n	10004764 <_ftoa+0x430>
10004754:	6d7b      	ldr	r3, [r7, #84]	@ 0x54
10004756:	1c5a      	adds	r2, r3, #1
10004758:	657a      	str	r2, [r7, #84]	@ 0x54
1000475a:	2210      	movs	r2, #16
1000475c:	18ba      	adds	r2, r7, r2
1000475e:	212d      	movs	r1, #45	@ 0x2d
10004760:	54d1      	strb	r1, [r2, r3]
10004762:	e01a      	b.n	1000479a <_ftoa+0x466>
10004764:	2380      	movs	r3, #128	@ 0x80
10004766:	18fb      	adds	r3, r7, r3
10004768:	681b      	ldr	r3, [r3, #0]
1000476a:	2204      	movs	r2, #4
1000476c:	4013      	ands	r3, r2
1000476e:	d007      	beq.n	10004780 <_ftoa+0x44c>
10004770:	6d7b      	ldr	r3, [r7, #84]	@ 0x54
10004772:	1c5a      	adds	r2, r3, #1
10004774:	657a      	str	r2, [r7, #84]	@ 0x54
10004776:	2210      	movs	r2, #16
10004778:	18ba      	adds	r2, r7, r2
1000477a:	212b      	movs	r1, #43	@ 0x2b
1000477c:	54d1      	strb	r1, [r2, r3]
1000477e:	e00c      	b.n	1000479a <_ftoa+0x466>
10004780:	2380      	movs	r3, #128	@ 0x80
10004782:	18fb      	adds	r3, r7, r3
10004784:	681b      	ldr	r3, [r3, #0]
10004786:	2208      	movs	r2, #8
10004788:	4013      	ands	r3, r2
1000478a:	d006      	beq.n	1000479a <_ftoa+0x466>
1000478c:	6d7b      	ldr	r3, [r7, #84]	@ 0x54
1000478e:	1c5a      	adds	r2, r3, #1
10004790:	657a      	str	r2, [r7, #84]	@ 0x54
10004792:	2210      	movs	r2, #16
10004794:	18ba      	adds	r2, r7, r2
10004796:	2120      	movs	r1, #32
10004798:	54d1      	strb	r1, [r2, r3]
1000479a:	683c      	ldr	r4, [r7, #0]
1000479c:	687a      	ldr	r2, [r7, #4]
1000479e:	68b9      	ldr	r1, [r7, #8]
100047a0:	68f8      	ldr	r0, [r7, #12]
100047a2:	2380      	movs	r3, #128	@ 0x80
100047a4:	18fb      	adds	r3, r7, r3
100047a6:	681b      	ldr	r3, [r3, #0]
100047a8:	9303      	str	r3, [sp, #12]
100047aa:	6ffb      	ldr	r3, [r7, #124]	@ 0x7c
100047ac:	9302      	str	r3, [sp, #8]
100047ae:	6d7b      	ldr	r3, [r7, #84]	@ 0x54
100047b0:	9301      	str	r3, [sp, #4]
100047b2:	2310      	movs	r3, #16
100047b4:	18fb      	adds	r3, r7, r3
100047b6:	9300      	str	r3, [sp, #0]
100047b8:	0023      	movs	r3, r4
100047ba:	f7ff fbbb 	bl	10003f34 <_out_rev>
100047be:	0003      	movs	r3, r0
100047c0:	0018      	movs	r0, r3
100047c2:	46bd      	mov	sp, r7
100047c4:	b017      	add	sp, #92	@ 0x5c
100047c6:	bdf0      	pop	{r4, r5, r6, r7, pc}

100047c8 <_etoa>:
100047c8:	b5f0      	push	{r4, r5, r6, r7, lr}
100047ca:	b0a7      	sub	sp, #156	@ 0x9c
100047cc:	af06      	add	r7, sp, #24
100047ce:	6478      	str	r0, [r7, #68]	@ 0x44
100047d0:	6439      	str	r1, [r7, #64]	@ 0x40
100047d2:	63fa      	str	r2, [r7, #60]	@ 0x3c
100047d4:	63bb      	str	r3, [r7, #56]	@ 0x38
100047d6:	2698      	movs	r6, #152	@ 0x98
100047d8:	19bb      	adds	r3, r7, r6
100047da:	681a      	ldr	r2, [r3, #0]
100047dc:	685b      	ldr	r3, [r3, #4]
100047de:	19b9      	adds	r1, r7, r6
100047e0:	6808      	ldr	r0, [r1, #0]
100047e2:	6849      	ldr	r1, [r1, #4]
100047e4:	f001 fadb 	bl	10005d9e <__wrap___aeabi_dcmpun>
100047e8:	1e03      	subs	r3, r0, #0
100047ea:	d113      	bne.n	10004814 <_etoa+0x4c>
100047ec:	2201      	movs	r2, #1
100047ee:	4252      	negs	r2, r2
100047f0:	4bd9      	ldr	r3, [pc, #868]	@ (10004b58 <_etoa+0x390>)
100047f2:	19b9      	adds	r1, r7, r6
100047f4:	6808      	ldr	r0, [r1, #0]
100047f6:	6849      	ldr	r1, [r1, #4]
100047f8:	f001 facc 	bl	10005d94 <__wrap___aeabi_dcmpgt>
100047fc:	1e03      	subs	r3, r0, #0
100047fe:	d109      	bne.n	10004814 <_etoa+0x4c>
10004800:	2201      	movs	r2, #1
10004802:	4252      	negs	r2, r2
10004804:	4bd5      	ldr	r3, [pc, #852]	@ (10004b5c <_etoa+0x394>)
10004806:	19b9      	adds	r1, r7, r6
10004808:	6808      	ldr	r0, [r1, #0]
1000480a:	6849      	ldr	r1, [r1, #4]
1000480c:	f001 fab4 	bl	10005d78 <__wrap___aeabi_dcmplt>
10004810:	1e03      	subs	r3, r0, #0
10004812:	d01b      	beq.n	1000484c <_etoa+0x84>
10004814:	6bbd      	ldr	r5, [r7, #56]	@ 0x38
10004816:	6bfc      	ldr	r4, [r7, #60]	@ 0x3c
10004818:	6c39      	ldr	r1, [r7, #64]	@ 0x40
1000481a:	6c78      	ldr	r0, [r7, #68]	@ 0x44
1000481c:	23a8      	movs	r3, #168	@ 0xa8
1000481e:	18fb      	adds	r3, r7, r3
10004820:	681b      	ldr	r3, [r3, #0]
10004822:	9304      	str	r3, [sp, #16]
10004824:	23a4      	movs	r3, #164	@ 0xa4
10004826:	18fb      	adds	r3, r7, r3
10004828:	681b      	ldr	r3, [r3, #0]
1000482a:	9303      	str	r3, [sp, #12]
1000482c:	23a0      	movs	r3, #160	@ 0xa0
1000482e:	18fb      	adds	r3, r7, r3
10004830:	681b      	ldr	r3, [r3, #0]
10004832:	9302      	str	r3, [sp, #8]
10004834:	2398      	movs	r3, #152	@ 0x98
10004836:	18fb      	adds	r3, r7, r3
10004838:	681a      	ldr	r2, [r3, #0]
1000483a:	685b      	ldr	r3, [r3, #4]
1000483c:	9200      	str	r2, [sp, #0]
1000483e:	9301      	str	r3, [sp, #4]
10004840:	002b      	movs	r3, r5
10004842:	0022      	movs	r2, r4
10004844:	f7ff fd76 	bl	10004334 <_ftoa>
10004848:	0003      	movs	r3, r0
1000484a:	e281      	b.n	10004d50 <_etoa+0x588>
1000484c:	233b      	movs	r3, #59	@ 0x3b
1000484e:	2238      	movs	r2, #56	@ 0x38
10004850:	189b      	adds	r3, r3, r2
10004852:	19de      	adds	r6, r3, r7
10004854:	2301      	movs	r3, #1
10004856:	73fb      	strb	r3, [r7, #15]
10004858:	2200      	movs	r2, #0
1000485a:	2300      	movs	r3, #0
1000485c:	2198      	movs	r1, #152	@ 0x98
1000485e:	1879      	adds	r1, r7, r1
10004860:	6808      	ldr	r0, [r1, #0]
10004862:	6849      	ldr	r1, [r1, #4]
10004864:	f001 fa88 	bl	10005d78 <__wrap___aeabi_dcmplt>
10004868:	1e03      	subs	r3, r0, #0
1000486a:	d101      	bne.n	10004870 <_etoa+0xa8>
1000486c:	2300      	movs	r3, #0
1000486e:	73fb      	strb	r3, [r7, #15]
10004870:	7bfb      	ldrb	r3, [r7, #15]
10004872:	7033      	strb	r3, [r6, #0]
10004874:	233b      	movs	r3, #59	@ 0x3b
10004876:	2238      	movs	r2, #56	@ 0x38
10004878:	189b      	adds	r3, r3, r2
1000487a:	19db      	adds	r3, r3, r7
1000487c:	781b      	ldrb	r3, [r3, #0]
1000487e:	2b00      	cmp	r3, #0
10004880:	d00f      	beq.n	100048a2 <_etoa+0xda>
10004882:	2198      	movs	r1, #152	@ 0x98
10004884:	187b      	adds	r3, r7, r1
10004886:	681b      	ldr	r3, [r3, #0]
10004888:	603b      	str	r3, [r7, #0]
1000488a:	239c      	movs	r3, #156	@ 0x9c
1000488c:	18fb      	adds	r3, r7, r3
1000488e:	681a      	ldr	r2, [r3, #0]
10004890:	2380      	movs	r3, #128	@ 0x80
10004892:	061b      	lsls	r3, r3, #24
10004894:	4053      	eors	r3, r2
10004896:	607b      	str	r3, [r7, #4]
10004898:	683a      	ldr	r2, [r7, #0]
1000489a:	687b      	ldr	r3, [r7, #4]
1000489c:	1879      	adds	r1, r7, r1
1000489e:	600a      	str	r2, [r1, #0]
100048a0:	604b      	str	r3, [r1, #4]
100048a2:	23a8      	movs	r3, #168	@ 0xa8
100048a4:	18fb      	adds	r3, r7, r3
100048a6:	681a      	ldr	r2, [r3, #0]
100048a8:	2380      	movs	r3, #128	@ 0x80
100048aa:	00db      	lsls	r3, r3, #3
100048ac:	4013      	ands	r3, r2
100048ae:	d103      	bne.n	100048b8 <_etoa+0xf0>
100048b0:	2306      	movs	r3, #6
100048b2:	22a0      	movs	r2, #160	@ 0xa0
100048b4:	18ba      	adds	r2, r7, r2
100048b6:	6013      	str	r3, [r2, #0]
100048b8:	2698      	movs	r6, #152	@ 0x98
100048ba:	19bb      	adds	r3, r7, r6
100048bc:	681a      	ldr	r2, [r3, #0]
100048be:	685b      	ldr	r3, [r3, #4]
100048c0:	64ba      	str	r2, [r7, #72]	@ 0x48
100048c2:	64fb      	str	r3, [r7, #76]	@ 0x4c
100048c4:	6cba      	ldr	r2, [r7, #72]	@ 0x48
100048c6:	6cfb      	ldr	r3, [r7, #76]	@ 0x4c
100048c8:	0011      	movs	r1, r2
100048ca:	4319      	orrs	r1, r3
100048cc:	d100      	bne.n	100048d0 <_etoa+0x108>
100048ce:	e108      	b.n	10004ae2 <_etoa+0x31a>
100048d0:	6cba      	ldr	r2, [r7, #72]	@ 0x48
100048d2:	6cfb      	ldr	r3, [r7, #76]	@ 0x4c
100048d4:	0d1b      	lsrs	r3, r3, #20
100048d6:	62bb      	str	r3, [r7, #40]	@ 0x28
100048d8:	2300      	movs	r3, #0
100048da:	62fb      	str	r3, [r7, #44]	@ 0x2c
100048dc:	6abb      	ldr	r3, [r7, #40]	@ 0x28
100048de:	055b      	lsls	r3, r3, #21
100048e0:	0d5b      	lsrs	r3, r3, #21
100048e2:	4a9f      	ldr	r2, [pc, #636]	@ (10004b60 <_etoa+0x398>)
100048e4:	4694      	mov	ip, r2
100048e6:	4463      	add	r3, ip
100048e8:	66fb      	str	r3, [r7, #108]	@ 0x6c
100048ea:	6cba      	ldr	r2, [r7, #72]	@ 0x48
100048ec:	6cfb      	ldr	r3, [r7, #76]	@ 0x4c
100048ee:	2100      	movs	r1, #0
100048f0:	0010      	movs	r0, r2
100048f2:	4388      	bics	r0, r1
100048f4:	0004      	movs	r4, r0
100048f6:	031b      	lsls	r3, r3, #12
100048f8:	0b1d      	lsrs	r5, r3, #12
100048fa:	2300      	movs	r3, #0
100048fc:	4323      	orrs	r3, r4
100048fe:	623b      	str	r3, [r7, #32]
10004900:	4b98      	ldr	r3, [pc, #608]	@ (10004b64 <_etoa+0x39c>)
10004902:	432b      	orrs	r3, r5
10004904:	627b      	str	r3, [r7, #36]	@ 0x24
10004906:	6a3b      	ldr	r3, [r7, #32]
10004908:	6a7c      	ldr	r4, [r7, #36]	@ 0x24
1000490a:	64bb      	str	r3, [r7, #72]	@ 0x48
1000490c:	64fc      	str	r4, [r7, #76]	@ 0x4c
1000490e:	6ef8      	ldr	r0, [r7, #108]	@ 0x6c
10004910:	f001 fa58 	bl	10005dc4 <__wrap___aeabi_i2d>
10004914:	4a94      	ldr	r2, [pc, #592]	@ (10004b68 <_etoa+0x3a0>)
10004916:	4b95      	ldr	r3, [pc, #596]	@ (10004b6c <_etoa+0x3a4>)
10004918:	f001 f9eb 	bl	10005cf2 <__wrap___aeabi_dmul>
1000491c:	0002      	movs	r2, r0
1000491e:	000b      	movs	r3, r1
10004920:	0010      	movs	r0, r2
10004922:	0019      	movs	r1, r3
10004924:	4a92      	ldr	r2, [pc, #584]	@ (10004b70 <_etoa+0x3a8>)
10004926:	4b93      	ldr	r3, [pc, #588]	@ (10004b74 <_etoa+0x3ac>)
10004928:	f001 f9bc 	bl	10005ca4 <__wrap___aeabi_dadd>
1000492c:	0002      	movs	r2, r0
1000492e:	000b      	movs	r3, r1
10004930:	0014      	movs	r4, r2
10004932:	001d      	movs	r5, r3
10004934:	6cb8      	ldr	r0, [r7, #72]	@ 0x48
10004936:	6cf9      	ldr	r1, [r7, #76]	@ 0x4c
10004938:	2200      	movs	r2, #0
1000493a:	4b8f      	ldr	r3, [pc, #572]	@ (10004b78 <_etoa+0x3b0>)
1000493c:	f001 f9a9 	bl	10005c92 <__wrap___aeabi_dsub>
10004940:	0002      	movs	r2, r0
10004942:	000b      	movs	r3, r1
10004944:	0010      	movs	r0, r2
10004946:	0019      	movs	r1, r3
10004948:	4a8c      	ldr	r2, [pc, #560]	@ (10004b7c <_etoa+0x3b4>)
1000494a:	4b8d      	ldr	r3, [pc, #564]	@ (10004b80 <_etoa+0x3b8>)
1000494c:	f001 f9d1 	bl	10005cf2 <__wrap___aeabi_dmul>
10004950:	0002      	movs	r2, r0
10004952:	000b      	movs	r3, r1
10004954:	0020      	movs	r0, r4
10004956:	0029      	movs	r1, r5
10004958:	f001 f9a4 	bl	10005ca4 <__wrap___aeabi_dadd>
1000495c:	0002      	movs	r2, r0
1000495e:	000b      	movs	r3, r1
10004960:	0010      	movs	r0, r2
10004962:	0019      	movs	r1, r3
10004964:	f001 fa46 	bl	10005df4 <__wrap___aeabi_d2iz>
10004968:	0003      	movs	r3, r0
1000496a:	67fb      	str	r3, [r7, #124]	@ 0x7c
1000496c:	6ff8      	ldr	r0, [r7, #124]	@ 0x7c
1000496e:	f001 fa29 	bl	10005dc4 <__wrap___aeabi_i2d>
10004972:	4a84      	ldr	r2, [pc, #528]	@ (10004b84 <_etoa+0x3bc>)
10004974:	4b84      	ldr	r3, [pc, #528]	@ (10004b88 <_etoa+0x3c0>)
10004976:	f001 f9bc 	bl	10005cf2 <__wrap___aeabi_dmul>
1000497a:	0002      	movs	r2, r0
1000497c:	000b      	movs	r3, r1
1000497e:	0010      	movs	r0, r2
10004980:	0019      	movs	r1, r3
10004982:	2200      	movs	r2, #0
10004984:	4b81      	ldr	r3, [pc, #516]	@ (10004b8c <_etoa+0x3c4>)
10004986:	f001 f98d 	bl	10005ca4 <__wrap___aeabi_dadd>
1000498a:	0002      	movs	r2, r0
1000498c:	000b      	movs	r3, r1
1000498e:	0010      	movs	r0, r2
10004990:	0019      	movs	r1, r3
10004992:	f001 fa2f 	bl	10005df4 <__wrap___aeabi_d2iz>
10004996:	0003      	movs	r3, r0
10004998:	66fb      	str	r3, [r7, #108]	@ 0x6c
1000499a:	6ff8      	ldr	r0, [r7, #124]	@ 0x7c
1000499c:	f001 fa12 	bl	10005dc4 <__wrap___aeabi_i2d>
100049a0:	4a7b      	ldr	r2, [pc, #492]	@ (10004b90 <_etoa+0x3c8>)
100049a2:	4b7c      	ldr	r3, [pc, #496]	@ (10004b94 <_etoa+0x3cc>)
100049a4:	f001 f9a5 	bl	10005cf2 <__wrap___aeabi_dmul>
100049a8:	0002      	movs	r2, r0
100049aa:	000b      	movs	r3, r1
100049ac:	0014      	movs	r4, r2
100049ae:	001d      	movs	r5, r3
100049b0:	6ef8      	ldr	r0, [r7, #108]	@ 0x6c
100049b2:	f001 fa07 	bl	10005dc4 <__wrap___aeabi_i2d>
100049b6:	4a78      	ldr	r2, [pc, #480]	@ (10004b98 <_etoa+0x3d0>)
100049b8:	4b78      	ldr	r3, [pc, #480]	@ (10004b9c <_etoa+0x3d4>)
100049ba:	f001 f99a 	bl	10005cf2 <__wrap___aeabi_dmul>
100049be:	0002      	movs	r2, r0
100049c0:	000b      	movs	r3, r1
100049c2:	0020      	movs	r0, r4
100049c4:	0029      	movs	r1, r5
100049c6:	f001 f964 	bl	10005c92 <__wrap___aeabi_dsub>
100049ca:	0002      	movs	r2, r0
100049cc:	000b      	movs	r3, r1
100049ce:	663a      	str	r2, [r7, #96]	@ 0x60
100049d0:	667b      	str	r3, [r7, #100]	@ 0x64
100049d2:	6e3a      	ldr	r2, [r7, #96]	@ 0x60
100049d4:	6e7b      	ldr	r3, [r7, #100]	@ 0x64
100049d6:	6e38      	ldr	r0, [r7, #96]	@ 0x60
100049d8:	6e79      	ldr	r1, [r7, #100]	@ 0x64
100049da:	f001 f98a 	bl	10005cf2 <__wrap___aeabi_dmul>
100049de:	0002      	movs	r2, r0
100049e0:	000b      	movs	r3, r1
100049e2:	65ba      	str	r2, [r7, #88]	@ 0x58
100049e4:	65fb      	str	r3, [r7, #92]	@ 0x5c
100049e6:	6efb      	ldr	r3, [r7, #108]	@ 0x6c
100049e8:	4a6d      	ldr	r2, [pc, #436]	@ (10004ba0 <_etoa+0x3d8>)
100049ea:	4694      	mov	ip, r2
100049ec:	4463      	add	r3, ip
100049ee:	61bb      	str	r3, [r7, #24]
100049f0:	17db      	asrs	r3, r3, #31
100049f2:	61fb      	str	r3, [r7, #28]
100049f4:	69bb      	ldr	r3, [r7, #24]
100049f6:	051b      	lsls	r3, r3, #20
100049f8:	617b      	str	r3, [r7, #20]
100049fa:	2300      	movs	r3, #0
100049fc:	613b      	str	r3, [r7, #16]
100049fe:	693b      	ldr	r3, [r7, #16]
10004a00:	697c      	ldr	r4, [r7, #20]
10004a02:	64bb      	str	r3, [r7, #72]	@ 0x48
10004a04:	64fc      	str	r4, [r7, #76]	@ 0x4c
10004a06:	6cbc      	ldr	r4, [r7, #72]	@ 0x48
10004a08:	6cfd      	ldr	r5, [r7, #76]	@ 0x4c
10004a0a:	6e38      	ldr	r0, [r7, #96]	@ 0x60
10004a0c:	6e79      	ldr	r1, [r7, #100]	@ 0x64
10004a0e:	0002      	movs	r2, r0
10004a10:	000b      	movs	r3, r1
10004a12:	f001 f947 	bl	10005ca4 <__wrap___aeabi_dadd>
10004a16:	0002      	movs	r2, r0
10004a18:	000b      	movs	r3, r1
10004a1a:	62ba      	str	r2, [r7, #40]	@ 0x28
10004a1c:	62fb      	str	r3, [r7, #44]	@ 0x2c
10004a1e:	6e3a      	ldr	r2, [r7, #96]	@ 0x60
10004a20:	6e7b      	ldr	r3, [r7, #100]	@ 0x64
10004a22:	2000      	movs	r0, #0
10004a24:	2180      	movs	r1, #128	@ 0x80
10004a26:	05c9      	lsls	r1, r1, #23
10004a28:	f001 f933 	bl	10005c92 <__wrap___aeabi_dsub>
10004a2c:	0002      	movs	r2, r0
10004a2e:	000b      	movs	r3, r1
10004a30:	623a      	str	r2, [r7, #32]
10004a32:	627b      	str	r3, [r7, #36]	@ 0x24
10004a34:	2200      	movs	r2, #0
10004a36:	4b5b      	ldr	r3, [pc, #364]	@ (10004ba4 <_etoa+0x3dc>)
10004a38:	6db8      	ldr	r0, [r7, #88]	@ 0x58
10004a3a:	6df9      	ldr	r1, [r7, #92]	@ 0x5c
10004a3c:	f001 f93b 	bl	10005cb6 <__wrap___aeabi_ddiv>
10004a40:	0002      	movs	r2, r0
10004a42:	000b      	movs	r3, r1
10004a44:	0010      	movs	r0, r2
10004a46:	0019      	movs	r1, r3
10004a48:	2200      	movs	r2, #0
10004a4a:	4b57      	ldr	r3, [pc, #348]	@ (10004ba8 <_etoa+0x3e0>)
10004a4c:	f001 f92a 	bl	10005ca4 <__wrap___aeabi_dadd>
10004a50:	0002      	movs	r2, r0
10004a52:	000b      	movs	r3, r1
10004a54:	6db8      	ldr	r0, [r7, #88]	@ 0x58
10004a56:	6df9      	ldr	r1, [r7, #92]	@ 0x5c
10004a58:	f001 f92d 	bl	10005cb6 <__wrap___aeabi_ddiv>
10004a5c:	0002      	movs	r2, r0
10004a5e:	000b      	movs	r3, r1
10004a60:	0010      	movs	r0, r2
10004a62:	0019      	movs	r1, r3
10004a64:	2200      	movs	r2, #0
10004a66:	4b51      	ldr	r3, [pc, #324]	@ (10004bac <_etoa+0x3e4>)
10004a68:	f001 f91c 	bl	10005ca4 <__wrap___aeabi_dadd>
10004a6c:	0002      	movs	r2, r0
10004a6e:	000b      	movs	r3, r1
10004a70:	6db8      	ldr	r0, [r7, #88]	@ 0x58
10004a72:	6df9      	ldr	r1, [r7, #92]	@ 0x5c
10004a74:	f001 f91f 	bl	10005cb6 <__wrap___aeabi_ddiv>
10004a78:	0002      	movs	r2, r0
10004a7a:	000b      	movs	r3, r1
10004a7c:	6a38      	ldr	r0, [r7, #32]
10004a7e:	6a79      	ldr	r1, [r7, #36]	@ 0x24
10004a80:	f001 f910 	bl	10005ca4 <__wrap___aeabi_dadd>
10004a84:	0002      	movs	r2, r0
10004a86:	000b      	movs	r3, r1
10004a88:	6ab8      	ldr	r0, [r7, #40]	@ 0x28
10004a8a:	6af9      	ldr	r1, [r7, #44]	@ 0x2c
10004a8c:	f001 f913 	bl	10005cb6 <__wrap___aeabi_ddiv>
10004a90:	0002      	movs	r2, r0
10004a92:	000b      	movs	r3, r1
10004a94:	0010      	movs	r0, r2
10004a96:	0019      	movs	r1, r3
10004a98:	2200      	movs	r2, #0
10004a9a:	4b32      	ldr	r3, [pc, #200]	@ (10004b64 <_etoa+0x39c>)
10004a9c:	f001 f902 	bl	10005ca4 <__wrap___aeabi_dadd>
10004aa0:	0002      	movs	r2, r0
10004aa2:	000b      	movs	r3, r1
10004aa4:	0020      	movs	r0, r4
10004aa6:	0029      	movs	r1, r5
10004aa8:	f001 f923 	bl	10005cf2 <__wrap___aeabi_dmul>
10004aac:	0002      	movs	r2, r0
10004aae:	000b      	movs	r3, r1
10004ab0:	64ba      	str	r2, [r7, #72]	@ 0x48
10004ab2:	64fb      	str	r3, [r7, #76]	@ 0x4c
10004ab4:	6cba      	ldr	r2, [r7, #72]	@ 0x48
10004ab6:	6cfb      	ldr	r3, [r7, #76]	@ 0x4c
10004ab8:	19b9      	adds	r1, r7, r6
10004aba:	6808      	ldr	r0, [r1, #0]
10004abc:	6849      	ldr	r1, [r1, #4]
10004abe:	f001 f95b 	bl	10005d78 <__wrap___aeabi_dcmplt>
10004ac2:	1e03      	subs	r3, r0, #0
10004ac4:	d00f      	beq.n	10004ae6 <_etoa+0x31e>
10004ac6:	6ffb      	ldr	r3, [r7, #124]	@ 0x7c
10004ac8:	3b01      	subs	r3, #1
10004aca:	67fb      	str	r3, [r7, #124]	@ 0x7c
10004acc:	6cb8      	ldr	r0, [r7, #72]	@ 0x48
10004ace:	6cf9      	ldr	r1, [r7, #76]	@ 0x4c
10004ad0:	2200      	movs	r2, #0
10004ad2:	4b35      	ldr	r3, [pc, #212]	@ (10004ba8 <_etoa+0x3e0>)
10004ad4:	f001 f8ef 	bl	10005cb6 <__wrap___aeabi_ddiv>
10004ad8:	0002      	movs	r2, r0
10004ada:	000b      	movs	r3, r1
10004adc:	64ba      	str	r2, [r7, #72]	@ 0x48
10004ade:	64fb      	str	r3, [r7, #76]	@ 0x4c
10004ae0:	e001      	b.n	10004ae6 <_etoa+0x31e>
10004ae2:	2300      	movs	r3, #0
10004ae4:	67fb      	str	r3, [r7, #124]	@ 0x7c
10004ae6:	6ffb      	ldr	r3, [r7, #124]	@ 0x7c
10004ae8:	2b63      	cmp	r3, #99	@ 0x63
10004aea:	dc04      	bgt.n	10004af6 <_etoa+0x32e>
10004aec:	6ffb      	ldr	r3, [r7, #124]	@ 0x7c
10004aee:	3363      	adds	r3, #99	@ 0x63
10004af0:	db01      	blt.n	10004af6 <_etoa+0x32e>
10004af2:	2304      	movs	r3, #4
10004af4:	e000      	b.n	10004af8 <_etoa+0x330>
10004af6:	2305      	movs	r3, #5
10004af8:	67bb      	str	r3, [r7, #120]	@ 0x78
10004afa:	23a8      	movs	r3, #168	@ 0xa8
10004afc:	18fb      	adds	r3, r7, r3
10004afe:	681a      	ldr	r2, [r3, #0]
10004b00:	2380      	movs	r3, #128	@ 0x80
10004b02:	011b      	lsls	r3, r3, #4
10004b04:	4013      	ands	r3, r2
10004b06:	d100      	bne.n	10004b0a <_etoa+0x342>
10004b08:	e07a      	b.n	10004c00 <_etoa+0x438>
10004b0a:	6cba      	ldr	r2, [r7, #72]	@ 0x48
10004b0c:	6cfb      	ldr	r3, [r7, #76]	@ 0x4c
10004b0e:	0011      	movs	r1, r2
10004b10:	4319      	orrs	r1, r3
10004b12:	d012      	beq.n	10004b3a <_etoa+0x372>
10004b14:	4a26      	ldr	r2, [pc, #152]	@ (10004bb0 <_etoa+0x3e8>)
10004b16:	4b27      	ldr	r3, [pc, #156]	@ (10004bb4 <_etoa+0x3ec>)
10004b18:	2498      	movs	r4, #152	@ 0x98
10004b1a:	1939      	adds	r1, r7, r4
10004b1c:	6808      	ldr	r0, [r1, #0]
10004b1e:	6849      	ldr	r1, [r1, #4]
10004b20:	f001 f930 	bl	10005d84 <__wrap___aeabi_dcmpge>
10004b24:	1e03      	subs	r3, r0, #0
10004b26:	d05a      	beq.n	10004bde <_etoa+0x416>
10004b28:	2200      	movs	r2, #0
10004b2a:	4b23      	ldr	r3, [pc, #140]	@ (10004bb8 <_etoa+0x3f0>)
10004b2c:	1939      	adds	r1, r7, r4
10004b2e:	6808      	ldr	r0, [r1, #0]
10004b30:	6849      	ldr	r1, [r1, #4]
10004b32:	f001 f921 	bl	10005d78 <__wrap___aeabi_dcmplt>
10004b36:	1e03      	subs	r3, r0, #0
10004b38:	d051      	beq.n	10004bde <_etoa+0x416>
10004b3a:	21a0      	movs	r1, #160	@ 0xa0
10004b3c:	187b      	adds	r3, r7, r1
10004b3e:	681b      	ldr	r3, [r3, #0]
10004b40:	6ffa      	ldr	r2, [r7, #124]	@ 0x7c
10004b42:	429a      	cmp	r2, r3
10004b44:	da3a      	bge.n	10004bbc <_etoa+0x3f4>
10004b46:	187b      	adds	r3, r7, r1
10004b48:	681a      	ldr	r2, [r3, #0]
10004b4a:	6ffb      	ldr	r3, [r7, #124]	@ 0x7c
10004b4c:	1ad3      	subs	r3, r2, r3
10004b4e:	3b01      	subs	r3, #1
10004b50:	187a      	adds	r2, r7, r1
10004b52:	6013      	str	r3, [r2, #0]
10004b54:	e036      	b.n	10004bc4 <_etoa+0x3fc>
10004b56:	46c0      	nop			@ (mov r8, r8)
10004b58:	7fefffff 	.word	0x7fefffff
10004b5c:	ffefffff 	.word	0xffefffff
10004b60:	fffffc01 	.word	0xfffffc01
10004b64:	3ff00000 	.word	0x3ff00000
10004b68:	509f79fb 	.word	0x509f79fb
10004b6c:	3fd34413 	.word	0x3fd34413
10004b70:	8b60c8b3 	.word	0x8b60c8b3
10004b74:	3fc68a28 	.word	0x3fc68a28
10004b78:	3ff80000 	.word	0x3ff80000
10004b7c:	636f4361 	.word	0x636f4361
10004b80:	3fd287a7 	.word	0x3fd287a7
10004b84:	0979a371 	.word	0x0979a371
10004b88:	400a934f 	.word	0x400a934f
10004b8c:	3fe00000 	.word	0x3fe00000
10004b90:	bbb55516 	.word	0xbbb55516
10004b94:	40026bb1 	.word	0x40026bb1
10004b98:	fefa39ef 	.word	0xfefa39ef
10004b9c:	3fe62e42 	.word	0x3fe62e42
10004ba0:	000003ff 	.word	0x000003ff
10004ba4:	402c0000 	.word	0x402c0000
10004ba8:	40240000 	.word	0x40240000
10004bac:	40180000 	.word	0x40180000
10004bb0:	eb1c432d 	.word	0xeb1c432d
10004bb4:	3f1a36e2 	.word	0x3f1a36e2
10004bb8:	412e8480 	.word	0x412e8480
10004bbc:	2300      	movs	r3, #0
10004bbe:	22a0      	movs	r2, #160	@ 0xa0
10004bc0:	18ba      	adds	r2, r7, r2
10004bc2:	6013      	str	r3, [r2, #0]
10004bc4:	21a8      	movs	r1, #168	@ 0xa8
10004bc6:	187b      	adds	r3, r7, r1
10004bc8:	681b      	ldr	r3, [r3, #0]
10004bca:	2280      	movs	r2, #128	@ 0x80
10004bcc:	00d2      	lsls	r2, r2, #3
10004bce:	4313      	orrs	r3, r2
10004bd0:	187a      	adds	r2, r7, r1
10004bd2:	6013      	str	r3, [r2, #0]
10004bd4:	2300      	movs	r3, #0
10004bd6:	67bb      	str	r3, [r7, #120]	@ 0x78
10004bd8:	2300      	movs	r3, #0
10004bda:	67fb      	str	r3, [r7, #124]	@ 0x7c
10004bdc:	e010      	b.n	10004c00 <_etoa+0x438>
10004bde:	21a0      	movs	r1, #160	@ 0xa0
10004be0:	187b      	adds	r3, r7, r1
10004be2:	681b      	ldr	r3, [r3, #0]
10004be4:	2b00      	cmp	r3, #0
10004be6:	d00b      	beq.n	10004c00 <_etoa+0x438>
10004be8:	23a8      	movs	r3, #168	@ 0xa8
10004bea:	18fb      	adds	r3, r7, r3
10004bec:	681a      	ldr	r2, [r3, #0]
10004bee:	2380      	movs	r3, #128	@ 0x80
10004bf0:	00db      	lsls	r3, r3, #3
10004bf2:	4013      	ands	r3, r2
10004bf4:	d004      	beq.n	10004c00 <_etoa+0x438>
10004bf6:	187b      	adds	r3, r7, r1
10004bf8:	681b      	ldr	r3, [r3, #0]
10004bfa:	3b01      	subs	r3, #1
10004bfc:	187a      	adds	r2, r7, r1
10004bfe:	6013      	str	r3, [r2, #0]
10004c00:	22a4      	movs	r2, #164	@ 0xa4
10004c02:	18bb      	adds	r3, r7, r2
10004c04:	681b      	ldr	r3, [r3, #0]
10004c06:	677b      	str	r3, [r7, #116]	@ 0x74
10004c08:	18bb      	adds	r3, r7, r2
10004c0a:	681a      	ldr	r2, [r3, #0]
10004c0c:	6fbb      	ldr	r3, [r7, #120]	@ 0x78
10004c0e:	429a      	cmp	r2, r3
10004c10:	d904      	bls.n	10004c1c <_etoa+0x454>
10004c12:	6f7a      	ldr	r2, [r7, #116]	@ 0x74
10004c14:	6fbb      	ldr	r3, [r7, #120]	@ 0x78
10004c16:	1ad3      	subs	r3, r2, r3
10004c18:	677b      	str	r3, [r7, #116]	@ 0x74
10004c1a:	e001      	b.n	10004c20 <_etoa+0x458>
10004c1c:	2300      	movs	r3, #0
10004c1e:	677b      	str	r3, [r7, #116]	@ 0x74
10004c20:	23a8      	movs	r3, #168	@ 0xa8
10004c22:	18fb      	adds	r3, r7, r3
10004c24:	681b      	ldr	r3, [r3, #0]
10004c26:	2202      	movs	r2, #2
10004c28:	4013      	ands	r3, r2
10004c2a:	d004      	beq.n	10004c36 <_etoa+0x46e>
10004c2c:	6fbb      	ldr	r3, [r7, #120]	@ 0x78
10004c2e:	2b00      	cmp	r3, #0
10004c30:	d001      	beq.n	10004c36 <_etoa+0x46e>
10004c32:	2300      	movs	r3, #0
10004c34:	677b      	str	r3, [r7, #116]	@ 0x74
10004c36:	6ffb      	ldr	r3, [r7, #124]	@ 0x7c
10004c38:	2b00      	cmp	r3, #0
10004c3a:	d00c      	beq.n	10004c56 <_etoa+0x48e>
10004c3c:	6cba      	ldr	r2, [r7, #72]	@ 0x48
10004c3e:	6cfb      	ldr	r3, [r7, #76]	@ 0x4c
10004c40:	2498      	movs	r4, #152	@ 0x98
10004c42:	1939      	adds	r1, r7, r4
10004c44:	6808      	ldr	r0, [r1, #0]
10004c46:	6849      	ldr	r1, [r1, #4]
10004c48:	f001 f835 	bl	10005cb6 <__wrap___aeabi_ddiv>
10004c4c:	0002      	movs	r2, r0
10004c4e:	000b      	movs	r3, r1
10004c50:	1939      	adds	r1, r7, r4
10004c52:	600a      	str	r2, [r1, #0]
10004c54:	604b      	str	r3, [r1, #4]
10004c56:	6bfb      	ldr	r3, [r7, #60]	@ 0x3c
10004c58:	657b      	str	r3, [r7, #84]	@ 0x54
10004c5a:	233b      	movs	r3, #59	@ 0x3b
10004c5c:	2238      	movs	r2, #56	@ 0x38
10004c5e:	189b      	adds	r3, r3, r2
10004c60:	19db      	adds	r3, r3, r7
10004c62:	781b      	ldrb	r3, [r3, #0]
10004c64:	2b00      	cmp	r3, #0
10004c66:	d00b      	beq.n	10004c80 <_etoa+0x4b8>
10004c68:	2398      	movs	r3, #152	@ 0x98
10004c6a:	18fb      	adds	r3, r7, r3
10004c6c:	681b      	ldr	r3, [r3, #0]
10004c6e:	633b      	str	r3, [r7, #48]	@ 0x30
10004c70:	239c      	movs	r3, #156	@ 0x9c
10004c72:	18fb      	adds	r3, r7, r3
10004c74:	681b      	ldr	r3, [r3, #0]
10004c76:	2280      	movs	r2, #128	@ 0x80
10004c78:	0612      	lsls	r2, r2, #24
10004c7a:	405a      	eors	r2, r3
10004c7c:	637a      	str	r2, [r7, #52]	@ 0x34
10004c7e:	e005      	b.n	10004c8c <_etoa+0x4c4>
10004c80:	2398      	movs	r3, #152	@ 0x98
10004c82:	18fb      	adds	r3, r7, r3
10004c84:	685c      	ldr	r4, [r3, #4]
10004c86:	681b      	ldr	r3, [r3, #0]
10004c88:	633b      	str	r3, [r7, #48]	@ 0x30
10004c8a:	637c      	str	r4, [r7, #52]	@ 0x34
10004c8c:	23a8      	movs	r3, #168	@ 0xa8
10004c8e:	18fa      	adds	r2, r7, r3
10004c90:	6813      	ldr	r3, [r2, #0]
10004c92:	4a31      	ldr	r2, [pc, #196]	@ (10004d58 <_etoa+0x590>)
10004c94:	4013      	ands	r3, r2
10004c96:	6bbc      	ldr	r4, [r7, #56]	@ 0x38
10004c98:	6bfa      	ldr	r2, [r7, #60]	@ 0x3c
10004c9a:	6c39      	ldr	r1, [r7, #64]	@ 0x40
10004c9c:	6c78      	ldr	r0, [r7, #68]	@ 0x44
10004c9e:	9304      	str	r3, [sp, #16]
10004ca0:	6f7b      	ldr	r3, [r7, #116]	@ 0x74
10004ca2:	9303      	str	r3, [sp, #12]
10004ca4:	25a0      	movs	r5, #160	@ 0xa0
10004ca6:	197d      	adds	r5, r7, r5
10004ca8:	682b      	ldr	r3, [r5, #0]
10004caa:	9302      	str	r3, [sp, #8]
10004cac:	6b3d      	ldr	r5, [r7, #48]	@ 0x30
10004cae:	6b7e      	ldr	r6, [r7, #52]	@ 0x34
10004cb0:	9500      	str	r5, [sp, #0]
10004cb2:	9601      	str	r6, [sp, #4]
10004cb4:	0023      	movs	r3, r4
10004cb6:	f7ff fb3d 	bl	10004334 <_ftoa>
10004cba:	0003      	movs	r3, r0
10004cbc:	63fb      	str	r3, [r7, #60]	@ 0x3c
10004cbe:	6fbb      	ldr	r3, [r7, #120]	@ 0x78
10004cc0:	2b00      	cmp	r3, #0
10004cc2:	d044      	beq.n	10004d4e <_etoa+0x586>
10004cc4:	23a8      	movs	r3, #168	@ 0xa8
10004cc6:	18fb      	adds	r3, r7, r3
10004cc8:	681b      	ldr	r3, [r3, #0]
10004cca:	2220      	movs	r2, #32
10004ccc:	4013      	ands	r3, r2
10004cce:	d001      	beq.n	10004cd4 <_etoa+0x50c>
10004cd0:	2045      	movs	r0, #69	@ 0x45
10004cd2:	e000      	b.n	10004cd6 <_etoa+0x50e>
10004cd4:	2065      	movs	r0, #101	@ 0x65
10004cd6:	6bfa      	ldr	r2, [r7, #60]	@ 0x3c
10004cd8:	1c53      	adds	r3, r2, #1
10004cda:	63fb      	str	r3, [r7, #60]	@ 0x3c
10004cdc:	6bbb      	ldr	r3, [r7, #56]	@ 0x38
10004cde:	6c39      	ldr	r1, [r7, #64]	@ 0x40
10004ce0:	6c7c      	ldr	r4, [r7, #68]	@ 0x44
10004ce2:	47a0      	blx	r4
10004ce4:	6ffb      	ldr	r3, [r7, #124]	@ 0x7c
10004ce6:	17da      	asrs	r2, r3, #31
10004ce8:	189b      	adds	r3, r3, r2
10004cea:	4053      	eors	r3, r2
10004cec:	469c      	mov	ip, r3
10004cee:	6ffb      	ldr	r3, [r7, #124]	@ 0x7c
10004cf0:	0fdb      	lsrs	r3, r3, #31
10004cf2:	b2db      	uxtb	r3, r3
10004cf4:	6fba      	ldr	r2, [r7, #120]	@ 0x78
10004cf6:	3a01      	subs	r2, #1
10004cf8:	6bbd      	ldr	r5, [r7, #56]	@ 0x38
10004cfa:	6bfc      	ldr	r4, [r7, #60]	@ 0x3c
10004cfc:	6c39      	ldr	r1, [r7, #64]	@ 0x40
10004cfe:	6c78      	ldr	r0, [r7, #68]	@ 0x44
10004d00:	2605      	movs	r6, #5
10004d02:	9605      	str	r6, [sp, #20]
10004d04:	9204      	str	r2, [sp, #16]
10004d06:	2200      	movs	r2, #0
10004d08:	9203      	str	r2, [sp, #12]
10004d0a:	220a      	movs	r2, #10
10004d0c:	9202      	str	r2, [sp, #8]
10004d0e:	9301      	str	r3, [sp, #4]
10004d10:	4663      	mov	r3, ip
10004d12:	9300      	str	r3, [sp, #0]
10004d14:	002b      	movs	r3, r5
10004d16:	0022      	movs	r2, r4
10004d18:	f7ff fa2f 	bl	1000417a <_ntoa_long>
10004d1c:	0003      	movs	r3, r0
10004d1e:	63fb      	str	r3, [r7, #60]	@ 0x3c
10004d20:	23a8      	movs	r3, #168	@ 0xa8
10004d22:	18fb      	adds	r3, r7, r3
10004d24:	681b      	ldr	r3, [r3, #0]
10004d26:	2202      	movs	r2, #2
10004d28:	4013      	ands	r3, r2
10004d2a:	d010      	beq.n	10004d4e <_etoa+0x586>
10004d2c:	e007      	b.n	10004d3e <_etoa+0x576>
10004d2e:	6bfa      	ldr	r2, [r7, #60]	@ 0x3c
10004d30:	1c53      	adds	r3, r2, #1
10004d32:	63fb      	str	r3, [r7, #60]	@ 0x3c
10004d34:	6bbb      	ldr	r3, [r7, #56]	@ 0x38
10004d36:	6c39      	ldr	r1, [r7, #64]	@ 0x40
10004d38:	6c7c      	ldr	r4, [r7, #68]	@ 0x44
10004d3a:	2020      	movs	r0, #32
10004d3c:	47a0      	blx	r4
10004d3e:	6bfa      	ldr	r2, [r7, #60]	@ 0x3c
10004d40:	6d7b      	ldr	r3, [r7, #84]	@ 0x54
10004d42:	1ad3      	subs	r3, r2, r3
10004d44:	22a4      	movs	r2, #164	@ 0xa4
10004d46:	18ba      	adds	r2, r7, r2
10004d48:	6812      	ldr	r2, [r2, #0]
10004d4a:	429a      	cmp	r2, r3
10004d4c:	d8ef      	bhi.n	10004d2e <_etoa+0x566>
10004d4e:	6bfb      	ldr	r3, [r7, #60]	@ 0x3c
10004d50:	0018      	movs	r0, r3
10004d52:	46bd      	mov	sp, r7
10004d54:	b021      	add	sp, #132	@ 0x84
10004d56:	bdf0      	pop	{r4, r5, r6, r7, pc}
10004d58:	fffff7ff 	.word	0xfffff7ff

10004d5c <_vsnprintf>:
10004d5c:	b5f0      	push	{r4, r5, r6, r7, lr}
10004d5e:	46c6      	mov	lr, r8
10004d60:	b500      	push	{lr}
10004d62:	b0a8      	sub	sp, #160	@ 0xa0
10004d64:	af0a      	add	r7, sp, #40	@ 0x28
10004d66:	62f8      	str	r0, [r7, #44]	@ 0x2c
10004d68:	62b9      	str	r1, [r7, #40]	@ 0x28
10004d6a:	627a      	str	r2, [r7, #36]	@ 0x24
10004d6c:	623b      	str	r3, [r7, #32]
10004d6e:	2300      	movs	r3, #0
10004d70:	667b      	str	r3, [r7, #100]	@ 0x64
10004d72:	6abb      	ldr	r3, [r7, #40]	@ 0x28
10004d74:	2b00      	cmp	r3, #0
10004d76:	d001      	beq.n	10004d7c <_vsnprintf+0x20>
10004d78:	f000 fc54 	bl	10005624 <_vsnprintf+0x8c8>
10004d7c:	4bad      	ldr	r3, [pc, #692]	@ (10005034 <_vsnprintf+0x2d8>)
10004d7e:	62fb      	str	r3, [r7, #44]	@ 0x2c
10004d80:	f000 fc50 	bl	10005624 <_vsnprintf+0x8c8>
10004d84:	6a3b      	ldr	r3, [r7, #32]
10004d86:	781b      	ldrb	r3, [r3, #0]
10004d88:	2b25      	cmp	r3, #37	@ 0x25
10004d8a:	d00d      	beq.n	10004da8 <_vsnprintf+0x4c>
10004d8c:	6a3b      	ldr	r3, [r7, #32]
10004d8e:	7818      	ldrb	r0, [r3, #0]
10004d90:	6e7a      	ldr	r2, [r7, #100]	@ 0x64
10004d92:	1c53      	adds	r3, r2, #1
10004d94:	667b      	str	r3, [r7, #100]	@ 0x64
10004d96:	6a7b      	ldr	r3, [r7, #36]	@ 0x24
10004d98:	6ab9      	ldr	r1, [r7, #40]	@ 0x28
10004d9a:	6afc      	ldr	r4, [r7, #44]	@ 0x2c
10004d9c:	47a0      	blx	r4
10004d9e:	6a3b      	ldr	r3, [r7, #32]
10004da0:	3301      	adds	r3, #1
10004da2:	623b      	str	r3, [r7, #32]
10004da4:	f000 fc3e 	bl	10005624 <_vsnprintf+0x8c8>
10004da8:	6a3b      	ldr	r3, [r7, #32]
10004daa:	3301      	adds	r3, #1
10004dac:	623b      	str	r3, [r7, #32]
10004dae:	2300      	movs	r3, #0
10004db0:	677b      	str	r3, [r7, #116]	@ 0x74
10004db2:	6a3b      	ldr	r3, [r7, #32]
10004db4:	781b      	ldrb	r3, [r3, #0]
10004db6:	3b20      	subs	r3, #32
10004db8:	2b10      	cmp	r3, #16
10004dba:	d836      	bhi.n	10004e2a <_vsnprintf+0xce>
10004dbc:	009a      	lsls	r2, r3, #2
10004dbe:	4b9e      	ldr	r3, [pc, #632]	@ (10005038 <_vsnprintf+0x2dc>)
10004dc0:	18d3      	adds	r3, r2, r3
10004dc2:	681b      	ldr	r3, [r3, #0]
10004dc4:	469f      	mov	pc, r3
10004dc6:	6f7b      	ldr	r3, [r7, #116]	@ 0x74
10004dc8:	2201      	movs	r2, #1
10004dca:	4313      	orrs	r3, r2
10004dcc:	677b      	str	r3, [r7, #116]	@ 0x74
10004dce:	6a3b      	ldr	r3, [r7, #32]
10004dd0:	3301      	adds	r3, #1
10004dd2:	623b      	str	r3, [r7, #32]
10004dd4:	2301      	movs	r3, #1
10004dd6:	66bb      	str	r3, [r7, #104]	@ 0x68
10004dd8:	e02a      	b.n	10004e30 <_vsnprintf+0xd4>
10004dda:	6f7b      	ldr	r3, [r7, #116]	@ 0x74
10004ddc:	2202      	movs	r2, #2
10004dde:	4313      	orrs	r3, r2
10004de0:	677b      	str	r3, [r7, #116]	@ 0x74
10004de2:	6a3b      	ldr	r3, [r7, #32]
10004de4:	3301      	adds	r3, #1
10004de6:	623b      	str	r3, [r7, #32]
10004de8:	2301      	movs	r3, #1
10004dea:	66bb      	str	r3, [r7, #104]	@ 0x68
10004dec:	e020      	b.n	10004e30 <_vsnprintf+0xd4>
10004dee:	6f7b      	ldr	r3, [r7, #116]	@ 0x74
10004df0:	2204      	movs	r2, #4
10004df2:	4313      	orrs	r3, r2
10004df4:	677b      	str	r3, [r7, #116]	@ 0x74
10004df6:	6a3b      	ldr	r3, [r7, #32]
10004df8:	3301      	adds	r3, #1
10004dfa:	623b      	str	r3, [r7, #32]
10004dfc:	2301      	movs	r3, #1
10004dfe:	66bb      	str	r3, [r7, #104]	@ 0x68
10004e00:	e016      	b.n	10004e30 <_vsnprintf+0xd4>
10004e02:	6f7b      	ldr	r3, [r7, #116]	@ 0x74
10004e04:	2208      	movs	r2, #8
10004e06:	4313      	orrs	r3, r2
10004e08:	677b      	str	r3, [r7, #116]	@ 0x74
10004e0a:	6a3b      	ldr	r3, [r7, #32]
10004e0c:	3301      	adds	r3, #1
10004e0e:	623b      	str	r3, [r7, #32]
10004e10:	2301      	movs	r3, #1
10004e12:	66bb      	str	r3, [r7, #104]	@ 0x68
10004e14:	e00c      	b.n	10004e30 <_vsnprintf+0xd4>
10004e16:	6f7b      	ldr	r3, [r7, #116]	@ 0x74
10004e18:	2210      	movs	r2, #16
10004e1a:	4313      	orrs	r3, r2
10004e1c:	677b      	str	r3, [r7, #116]	@ 0x74
10004e1e:	6a3b      	ldr	r3, [r7, #32]
10004e20:	3301      	adds	r3, #1
10004e22:	623b      	str	r3, [r7, #32]
10004e24:	2301      	movs	r3, #1
10004e26:	66bb      	str	r3, [r7, #104]	@ 0x68
10004e28:	e002      	b.n	10004e30 <_vsnprintf+0xd4>
10004e2a:	2300      	movs	r3, #0
10004e2c:	66bb      	str	r3, [r7, #104]	@ 0x68
10004e2e:	46c0      	nop			@ (mov r8, r8)
10004e30:	6ebb      	ldr	r3, [r7, #104]	@ 0x68
10004e32:	2b00      	cmp	r3, #0
10004e34:	d1bd      	bne.n	10004db2 <_vsnprintf+0x56>
10004e36:	2300      	movs	r3, #0
10004e38:	673b      	str	r3, [r7, #112]	@ 0x70
10004e3a:	6a3b      	ldr	r3, [r7, #32]
10004e3c:	781b      	ldrb	r3, [r3, #0]
10004e3e:	0018      	movs	r0, r3
10004e40:	f7ff f83c 	bl	10003ebc <_is_digit>
10004e44:	1e03      	subs	r3, r0, #0
10004e46:	d007      	beq.n	10004e58 <_vsnprintf+0xfc>
10004e48:	2320      	movs	r3, #32
10004e4a:	18fb      	adds	r3, r7, r3
10004e4c:	0018      	movs	r0, r3
10004e4e:	f7ff f84e 	bl	10003eee <_atoi>
10004e52:	0003      	movs	r3, r0
10004e54:	673b      	str	r3, [r7, #112]	@ 0x70
10004e56:	e01c      	b.n	10004e92 <_vsnprintf+0x136>
10004e58:	6a3b      	ldr	r3, [r7, #32]
10004e5a:	781b      	ldrb	r3, [r3, #0]
10004e5c:	2b2a      	cmp	r3, #42	@ 0x2a
10004e5e:	d118      	bne.n	10004e92 <_vsnprintf+0x136>
10004e60:	2390      	movs	r3, #144	@ 0x90
10004e62:	18fb      	adds	r3, r7, r3
10004e64:	681b      	ldr	r3, [r3, #0]
10004e66:	1d1a      	adds	r2, r3, #4
10004e68:	2190      	movs	r1, #144	@ 0x90
10004e6a:	1879      	adds	r1, r7, r1
10004e6c:	600a      	str	r2, [r1, #0]
10004e6e:	681b      	ldr	r3, [r3, #0]
10004e70:	653b      	str	r3, [r7, #80]	@ 0x50
10004e72:	6d3b      	ldr	r3, [r7, #80]	@ 0x50
10004e74:	2b00      	cmp	r3, #0
10004e76:	da07      	bge.n	10004e88 <_vsnprintf+0x12c>
10004e78:	6f7b      	ldr	r3, [r7, #116]	@ 0x74
10004e7a:	2202      	movs	r2, #2
10004e7c:	4313      	orrs	r3, r2
10004e7e:	677b      	str	r3, [r7, #116]	@ 0x74
10004e80:	6d3b      	ldr	r3, [r7, #80]	@ 0x50
10004e82:	425b      	negs	r3, r3
10004e84:	673b      	str	r3, [r7, #112]	@ 0x70
10004e86:	e001      	b.n	10004e8c <_vsnprintf+0x130>
10004e88:	6d3b      	ldr	r3, [r7, #80]	@ 0x50
10004e8a:	673b      	str	r3, [r7, #112]	@ 0x70
10004e8c:	6a3b      	ldr	r3, [r7, #32]
10004e8e:	3301      	adds	r3, #1
10004e90:	623b      	str	r3, [r7, #32]
10004e92:	2300      	movs	r3, #0
10004e94:	66fb      	str	r3, [r7, #108]	@ 0x6c
10004e96:	6a3b      	ldr	r3, [r7, #32]
10004e98:	781b      	ldrb	r3, [r3, #0]
10004e9a:	2b2e      	cmp	r3, #46	@ 0x2e
10004e9c:	d12b      	bne.n	10004ef6 <_vsnprintf+0x19a>
10004e9e:	6f7b      	ldr	r3, [r7, #116]	@ 0x74
10004ea0:	2280      	movs	r2, #128	@ 0x80
10004ea2:	00d2      	lsls	r2, r2, #3
10004ea4:	4313      	orrs	r3, r2
10004ea6:	677b      	str	r3, [r7, #116]	@ 0x74
10004ea8:	6a3b      	ldr	r3, [r7, #32]
10004eaa:	3301      	adds	r3, #1
10004eac:	623b      	str	r3, [r7, #32]
10004eae:	6a3b      	ldr	r3, [r7, #32]
10004eb0:	781b      	ldrb	r3, [r3, #0]
10004eb2:	0018      	movs	r0, r3
10004eb4:	f7ff f802 	bl	10003ebc <_is_digit>
10004eb8:	1e03      	subs	r3, r0, #0
10004eba:	d007      	beq.n	10004ecc <_vsnprintf+0x170>
10004ebc:	2320      	movs	r3, #32
10004ebe:	18fb      	adds	r3, r7, r3
10004ec0:	0018      	movs	r0, r3
10004ec2:	f7ff f814 	bl	10003eee <_atoi>
10004ec6:	0003      	movs	r3, r0
10004ec8:	66fb      	str	r3, [r7, #108]	@ 0x6c
10004eca:	e014      	b.n	10004ef6 <_vsnprintf+0x19a>
10004ecc:	6a3b      	ldr	r3, [r7, #32]
10004ece:	781b      	ldrb	r3, [r3, #0]
10004ed0:	2b2a      	cmp	r3, #42	@ 0x2a
10004ed2:	d110      	bne.n	10004ef6 <_vsnprintf+0x19a>
10004ed4:	2390      	movs	r3, #144	@ 0x90
10004ed6:	18fb      	adds	r3, r7, r3
10004ed8:	681b      	ldr	r3, [r3, #0]
10004eda:	1d1a      	adds	r2, r3, #4
10004edc:	2190      	movs	r1, #144	@ 0x90
10004ede:	1879      	adds	r1, r7, r1
10004ee0:	600a      	str	r2, [r1, #0]
10004ee2:	681b      	ldr	r3, [r3, #0]
10004ee4:	64fb      	str	r3, [r7, #76]	@ 0x4c
10004ee6:	6cfb      	ldr	r3, [r7, #76]	@ 0x4c
10004ee8:	2b00      	cmp	r3, #0
10004eea:	da00      	bge.n	10004eee <_vsnprintf+0x192>
10004eec:	2300      	movs	r3, #0
10004eee:	66fb      	str	r3, [r7, #108]	@ 0x6c
10004ef0:	6a3b      	ldr	r3, [r7, #32]
10004ef2:	3301      	adds	r3, #1
10004ef4:	623b      	str	r3, [r7, #32]
10004ef6:	6a3b      	ldr	r3, [r7, #32]
10004ef8:	781b      	ldrb	r3, [r3, #0]
10004efa:	3b68      	subs	r3, #104	@ 0x68
10004efc:	2b12      	cmp	r3, #18
10004efe:	d847      	bhi.n	10004f90 <_vsnprintf+0x234>
10004f00:	009a      	lsls	r2, r3, #2
10004f02:	4b4e      	ldr	r3, [pc, #312]	@ (1000503c <_vsnprintf+0x2e0>)
10004f04:	18d3      	adds	r3, r2, r3
10004f06:	681b      	ldr	r3, [r3, #0]
10004f08:	469f      	mov	pc, r3
10004f0a:	6f7b      	ldr	r3, [r7, #116]	@ 0x74
10004f0c:	2280      	movs	r2, #128	@ 0x80
10004f0e:	0052      	lsls	r2, r2, #1
10004f10:	4313      	orrs	r3, r2
10004f12:	677b      	str	r3, [r7, #116]	@ 0x74
10004f14:	6a3b      	ldr	r3, [r7, #32]
10004f16:	3301      	adds	r3, #1
10004f18:	623b      	str	r3, [r7, #32]
10004f1a:	6a3b      	ldr	r3, [r7, #32]
10004f1c:	781b      	ldrb	r3, [r3, #0]
10004f1e:	2b6c      	cmp	r3, #108	@ 0x6c
10004f20:	d138      	bne.n	10004f94 <_vsnprintf+0x238>
10004f22:	6f7b      	ldr	r3, [r7, #116]	@ 0x74
10004f24:	2280      	movs	r2, #128	@ 0x80
10004f26:	0092      	lsls	r2, r2, #2
10004f28:	4313      	orrs	r3, r2
10004f2a:	677b      	str	r3, [r7, #116]	@ 0x74
10004f2c:	6a3b      	ldr	r3, [r7, #32]
10004f2e:	3301      	adds	r3, #1
10004f30:	623b      	str	r3, [r7, #32]
10004f32:	e02f      	b.n	10004f94 <_vsnprintf+0x238>
10004f34:	6f7b      	ldr	r3, [r7, #116]	@ 0x74
10004f36:	2280      	movs	r2, #128	@ 0x80
10004f38:	4313      	orrs	r3, r2
10004f3a:	677b      	str	r3, [r7, #116]	@ 0x74
10004f3c:	6a3b      	ldr	r3, [r7, #32]
10004f3e:	3301      	adds	r3, #1
10004f40:	623b      	str	r3, [r7, #32]
10004f42:	6a3b      	ldr	r3, [r7, #32]
10004f44:	781b      	ldrb	r3, [r3, #0]
10004f46:	2b68      	cmp	r3, #104	@ 0x68
10004f48:	d126      	bne.n	10004f98 <_vsnprintf+0x23c>
10004f4a:	6f7b      	ldr	r3, [r7, #116]	@ 0x74
10004f4c:	2240      	movs	r2, #64	@ 0x40
10004f4e:	4313      	orrs	r3, r2
10004f50:	677b      	str	r3, [r7, #116]	@ 0x74
10004f52:	6a3b      	ldr	r3, [r7, #32]
10004f54:	3301      	adds	r3, #1
10004f56:	623b      	str	r3, [r7, #32]
10004f58:	e01e      	b.n	10004f98 <_vsnprintf+0x23c>
10004f5a:	6f7b      	ldr	r3, [r7, #116]	@ 0x74
10004f5c:	2280      	movs	r2, #128	@ 0x80
10004f5e:	0052      	lsls	r2, r2, #1
10004f60:	4313      	orrs	r3, r2
10004f62:	677b      	str	r3, [r7, #116]	@ 0x74
10004f64:	6a3b      	ldr	r3, [r7, #32]
10004f66:	3301      	adds	r3, #1
10004f68:	623b      	str	r3, [r7, #32]
10004f6a:	e016      	b.n	10004f9a <_vsnprintf+0x23e>
10004f6c:	6f7b      	ldr	r3, [r7, #116]	@ 0x74
10004f6e:	2280      	movs	r2, #128	@ 0x80
10004f70:	0092      	lsls	r2, r2, #2
10004f72:	4313      	orrs	r3, r2
10004f74:	677b      	str	r3, [r7, #116]	@ 0x74
10004f76:	6a3b      	ldr	r3, [r7, #32]
10004f78:	3301      	adds	r3, #1
10004f7a:	623b      	str	r3, [r7, #32]
10004f7c:	e00d      	b.n	10004f9a <_vsnprintf+0x23e>
10004f7e:	6f7b      	ldr	r3, [r7, #116]	@ 0x74
10004f80:	2280      	movs	r2, #128	@ 0x80
10004f82:	0052      	lsls	r2, r2, #1
10004f84:	4313      	orrs	r3, r2
10004f86:	677b      	str	r3, [r7, #116]	@ 0x74
10004f88:	6a3b      	ldr	r3, [r7, #32]
10004f8a:	3301      	adds	r3, #1
10004f8c:	623b      	str	r3, [r7, #32]
10004f8e:	e004      	b.n	10004f9a <_vsnprintf+0x23e>
10004f90:	46c0      	nop			@ (mov r8, r8)
10004f92:	e002      	b.n	10004f9a <_vsnprintf+0x23e>
10004f94:	46c0      	nop			@ (mov r8, r8)
10004f96:	e000      	b.n	10004f9a <_vsnprintf+0x23e>
10004f98:	46c0      	nop			@ (mov r8, r8)
10004f9a:	6a3b      	ldr	r3, [r7, #32]
10004f9c:	781b      	ldrb	r3, [r3, #0]
10004f9e:	2b67      	cmp	r3, #103	@ 0x67
10004fa0:	dc28      	bgt.n	10004ff4 <_vsnprintf+0x298>
10004fa2:	2b25      	cmp	r3, #37	@ 0x25
10004fa4:	da1d      	bge.n	10004fe2 <_vsnprintf+0x286>
10004fa6:	e330      	b.n	1000560a <_vsnprintf+0x8ae>
10004fa8:	3b69      	subs	r3, #105	@ 0x69
10004faa:	2201      	movs	r2, #1
10004fac:	409a      	lsls	r2, r3
10004fae:	0013      	movs	r3, r2
10004fb0:	4a23      	ldr	r2, [pc, #140]	@ (10005040 <_vsnprintf+0x2e4>)
10004fb2:	401a      	ands	r2, r3
10004fb4:	1e51      	subs	r1, r2, #1
10004fb6:	418a      	sbcs	r2, r1
10004fb8:	b2d2      	uxtb	r2, r2
10004fba:	2a00      	cmp	r2, #0
10004fbc:	d120      	bne.n	10005000 <_vsnprintf+0x2a4>
10004fbe:	2280      	movs	r2, #128	@ 0x80
10004fc0:	401a      	ands	r2, r3
10004fc2:	1e51      	subs	r1, r2, #1
10004fc4:	418a      	sbcs	r2, r1
10004fc6:	b2d2      	uxtb	r2, r2
10004fc8:	2a00      	cmp	r2, #0
10004fca:	d000      	beq.n	10004fce <_vsnprintf+0x272>
10004fcc:	e2b8      	b.n	10005540 <_vsnprintf+0x7e4>
10004fce:	2280      	movs	r2, #128	@ 0x80
10004fd0:	00d2      	lsls	r2, r2, #3
10004fd2:	4013      	ands	r3, r2
10004fd4:	1e5a      	subs	r2, r3, #1
10004fd6:	4193      	sbcs	r3, r2
10004fd8:	b2db      	uxtb	r3, r3
10004fda:	2b00      	cmp	r3, #0
10004fdc:	d000      	beq.n	10004fe0 <_vsnprintf+0x284>
10004fde:	e249      	b.n	10005474 <_vsnprintf+0x718>
10004fe0:	e313      	b.n	1000560a <_vsnprintf+0x8ae>
10004fe2:	3b25      	subs	r3, #37	@ 0x25
10004fe4:	2b42      	cmp	r3, #66	@ 0x42
10004fe6:	d900      	bls.n	10004fea <_vsnprintf+0x28e>
10004fe8:	e30f      	b.n	1000560a <_vsnprintf+0x8ae>
10004fea:	009a      	lsls	r2, r3, #2
10004fec:	4b15      	ldr	r3, [pc, #84]	@ (10005044 <_vsnprintf+0x2e8>)
10004fee:	18d3      	adds	r3, r2, r3
10004ff0:	681b      	ldr	r3, [r3, #0]
10004ff2:	469f      	mov	pc, r3
10004ff4:	2b78      	cmp	r3, #120	@ 0x78
10004ff6:	dd00      	ble.n	10004ffa <_vsnprintf+0x29e>
10004ff8:	e307      	b.n	1000560a <_vsnprintf+0x8ae>
10004ffa:	2b69      	cmp	r3, #105	@ 0x69
10004ffc:	dad4      	bge.n	10004fa8 <_vsnprintf+0x24c>
10004ffe:	e304      	b.n	1000560a <_vsnprintf+0x8ae>
10005000:	6a3b      	ldr	r3, [r7, #32]
10005002:	781b      	ldrb	r3, [r3, #0]
10005004:	2b78      	cmp	r3, #120	@ 0x78
10005006:	d003      	beq.n	10005010 <_vsnprintf+0x2b4>
10005008:	6a3b      	ldr	r3, [r7, #32]
1000500a:	781b      	ldrb	r3, [r3, #0]
1000500c:	2b58      	cmp	r3, #88	@ 0x58
1000500e:	d102      	bne.n	10005016 <_vsnprintf+0x2ba>
10005010:	2310      	movs	r3, #16
10005012:	663b      	str	r3, [r7, #96]	@ 0x60
10005014:	e01e      	b.n	10005054 <_vsnprintf+0x2f8>
10005016:	6a3b      	ldr	r3, [r7, #32]
10005018:	781b      	ldrb	r3, [r3, #0]
1000501a:	2b6f      	cmp	r3, #111	@ 0x6f
1000501c:	d102      	bne.n	10005024 <_vsnprintf+0x2c8>
1000501e:	2308      	movs	r3, #8
10005020:	663b      	str	r3, [r7, #96]	@ 0x60
10005022:	e017      	b.n	10005054 <_vsnprintf+0x2f8>
10005024:	6a3b      	ldr	r3, [r7, #32]
10005026:	781b      	ldrb	r3, [r3, #0]
10005028:	2b62      	cmp	r3, #98	@ 0x62
1000502a:	d10d      	bne.n	10005048 <_vsnprintf+0x2ec>
1000502c:	2302      	movs	r3, #2
1000502e:	663b      	str	r3, [r7, #96]	@ 0x60
10005030:	e010      	b.n	10005054 <_vsnprintf+0x2f8>
10005032:	46c0      	nop			@ (mov r8, r8)
10005034:	10003e35 	.word	0x10003e35
10005038:	1000a234 	.word	0x1000a234
1000503c:	1000a278 	.word	0x1000a278
10005040:	00009041 	.word	0x00009041
10005044:	1000a2c4 	.word	0x1000a2c4
10005048:	230a      	movs	r3, #10
1000504a:	663b      	str	r3, [r7, #96]	@ 0x60
1000504c:	6f7b      	ldr	r3, [r7, #116]	@ 0x74
1000504e:	2210      	movs	r2, #16
10005050:	4393      	bics	r3, r2
10005052:	677b      	str	r3, [r7, #116]	@ 0x74
10005054:	6a3b      	ldr	r3, [r7, #32]
10005056:	781b      	ldrb	r3, [r3, #0]
10005058:	2b58      	cmp	r3, #88	@ 0x58
1000505a:	d103      	bne.n	10005064 <_vsnprintf+0x308>
1000505c:	6f7b      	ldr	r3, [r7, #116]	@ 0x74
1000505e:	2220      	movs	r2, #32
10005060:	4313      	orrs	r3, r2
10005062:	677b      	str	r3, [r7, #116]	@ 0x74
10005064:	6a3b      	ldr	r3, [r7, #32]
10005066:	781b      	ldrb	r3, [r3, #0]
10005068:	2b69      	cmp	r3, #105	@ 0x69
1000506a:	d007      	beq.n	1000507c <_vsnprintf+0x320>
1000506c:	6a3b      	ldr	r3, [r7, #32]
1000506e:	781b      	ldrb	r3, [r3, #0]
10005070:	2b64      	cmp	r3, #100	@ 0x64
10005072:	d003      	beq.n	1000507c <_vsnprintf+0x320>
10005074:	6f7b      	ldr	r3, [r7, #116]	@ 0x74
10005076:	220c      	movs	r2, #12
10005078:	4393      	bics	r3, r2
1000507a:	677b      	str	r3, [r7, #116]	@ 0x74
1000507c:	6f7a      	ldr	r2, [r7, #116]	@ 0x74
1000507e:	2380      	movs	r3, #128	@ 0x80
10005080:	00db      	lsls	r3, r3, #3
10005082:	4013      	ands	r3, r2
10005084:	d003      	beq.n	1000508e <_vsnprintf+0x332>
10005086:	6f7b      	ldr	r3, [r7, #116]	@ 0x74
10005088:	2201      	movs	r2, #1
1000508a:	4393      	bics	r3, r2
1000508c:	677b      	str	r3, [r7, #116]	@ 0x74
1000508e:	6a3b      	ldr	r3, [r7, #32]
10005090:	781b      	ldrb	r3, [r3, #0]
10005092:	2b69      	cmp	r3, #105	@ 0x69
10005094:	d004      	beq.n	100050a0 <_vsnprintf+0x344>
10005096:	6a3b      	ldr	r3, [r7, #32]
10005098:	781b      	ldrb	r3, [r3, #0]
1000509a:	2b64      	cmp	r3, #100	@ 0x64
1000509c:	d000      	beq.n	100050a0 <_vsnprintf+0x344>
1000509e:	e0b2      	b.n	10005206 <_vsnprintf+0x4aa>
100050a0:	6f7a      	ldr	r2, [r7, #116]	@ 0x74
100050a2:	2380      	movs	r3, #128	@ 0x80
100050a4:	009b      	lsls	r3, r3, #2
100050a6:	4013      	ands	r3, r2
100050a8:	d040      	beq.n	1000512c <_vsnprintf+0x3d0>
100050aa:	2390      	movs	r3, #144	@ 0x90
100050ac:	18fb      	adds	r3, r7, r3
100050ae:	681b      	ldr	r3, [r3, #0]
100050b0:	3307      	adds	r3, #7
100050b2:	2207      	movs	r2, #7
100050b4:	4393      	bics	r3, r2
100050b6:	001a      	movs	r2, r3
100050b8:	3208      	adds	r2, #8
100050ba:	2190      	movs	r1, #144	@ 0x90
100050bc:	1879      	adds	r1, r7, r1
100050be:	600a      	str	r2, [r1, #0]
100050c0:	681a      	ldr	r2, [r3, #0]
100050c2:	685b      	ldr	r3, [r3, #4]
100050c4:	633a      	str	r2, [r7, #48]	@ 0x30
100050c6:	637b      	str	r3, [r7, #52]	@ 0x34
100050c8:	6b3a      	ldr	r2, [r7, #48]	@ 0x30
100050ca:	6b7b      	ldr	r3, [r7, #52]	@ 0x34
100050cc:	2b00      	cmp	r3, #0
100050ce:	da05      	bge.n	100050dc <_vsnprintf+0x380>
100050d0:	2000      	movs	r0, #0
100050d2:	2100      	movs	r1, #0
100050d4:	1a80      	subs	r0, r0, r2
100050d6:	4199      	sbcs	r1, r3
100050d8:	0002      	movs	r2, r0
100050da:	000b      	movs	r3, r1
100050dc:	0010      	movs	r0, r2
100050de:	0019      	movs	r1, r3
100050e0:	6b7b      	ldr	r3, [r7, #52]	@ 0x34
100050e2:	0fdb      	lsrs	r3, r3, #31
100050e4:	603b      	str	r3, [r7, #0]
100050e6:	2300      	movs	r3, #0
100050e8:	607b      	str	r3, [r7, #4]
100050ea:	783a      	ldrb	r2, [r7, #0]
100050ec:	6e3b      	ldr	r3, [r7, #96]	@ 0x60
100050ee:	61bb      	str	r3, [r7, #24]
100050f0:	2300      	movs	r3, #0
100050f2:	61fb      	str	r3, [r7, #28]
100050f4:	6a7b      	ldr	r3, [r7, #36]	@ 0x24
100050f6:	469c      	mov	ip, r3
100050f8:	6e7e      	ldr	r6, [r7, #100]	@ 0x64
100050fa:	6abd      	ldr	r5, [r7, #40]	@ 0x28
100050fc:	6afb      	ldr	r3, [r7, #44]	@ 0x2c
100050fe:	4698      	mov	r8, r3
10005100:	6f7b      	ldr	r3, [r7, #116]	@ 0x74
10005102:	9308      	str	r3, [sp, #32]
10005104:	6f3b      	ldr	r3, [r7, #112]	@ 0x70
10005106:	9307      	str	r3, [sp, #28]
10005108:	6efb      	ldr	r3, [r7, #108]	@ 0x6c
1000510a:	9306      	str	r3, [sp, #24]
1000510c:	69bb      	ldr	r3, [r7, #24]
1000510e:	69fc      	ldr	r4, [r7, #28]
10005110:	9304      	str	r3, [sp, #16]
10005112:	9405      	str	r4, [sp, #20]
10005114:	9202      	str	r2, [sp, #8]
10005116:	9000      	str	r0, [sp, #0]
10005118:	9101      	str	r1, [sp, #4]
1000511a:	4663      	mov	r3, ip
1000511c:	0032      	movs	r2, r6
1000511e:	0029      	movs	r1, r5
10005120:	4640      	mov	r0, r8
10005122:	f7ff f893 	bl	1000424c <_ntoa_long_long>
10005126:	0003      	movs	r3, r0
10005128:	667b      	str	r3, [r7, #100]	@ 0x64
1000512a:	e0fa      	b.n	10005322 <_vsnprintf+0x5c6>
1000512c:	6f7a      	ldr	r2, [r7, #116]	@ 0x74
1000512e:	2380      	movs	r3, #128	@ 0x80
10005130:	005b      	lsls	r3, r3, #1
10005132:	4013      	ands	r3, r2
10005134:	d025      	beq.n	10005182 <_vsnprintf+0x426>
10005136:	2390      	movs	r3, #144	@ 0x90
10005138:	18fb      	adds	r3, r7, r3
1000513a:	681b      	ldr	r3, [r3, #0]
1000513c:	1d1a      	adds	r2, r3, #4
1000513e:	2190      	movs	r1, #144	@ 0x90
10005140:	1879      	adds	r1, r7, r1
10005142:	600a      	str	r2, [r1, #0]
10005144:	681b      	ldr	r3, [r3, #0]
10005146:	63fb      	str	r3, [r7, #60]	@ 0x3c
10005148:	6bfb      	ldr	r3, [r7, #60]	@ 0x3c
1000514a:	17da      	asrs	r2, r3, #31
1000514c:	189b      	adds	r3, r3, r2
1000514e:	4053      	eors	r3, r2
10005150:	001e      	movs	r6, r3
10005152:	6bfb      	ldr	r3, [r7, #60]	@ 0x3c
10005154:	0fdb      	lsrs	r3, r3, #31
10005156:	b2da      	uxtb	r2, r3
10005158:	6a7d      	ldr	r5, [r7, #36]	@ 0x24
1000515a:	6e7c      	ldr	r4, [r7, #100]	@ 0x64
1000515c:	6ab9      	ldr	r1, [r7, #40]	@ 0x28
1000515e:	6af8      	ldr	r0, [r7, #44]	@ 0x2c
10005160:	6f7b      	ldr	r3, [r7, #116]	@ 0x74
10005162:	9305      	str	r3, [sp, #20]
10005164:	6f3b      	ldr	r3, [r7, #112]	@ 0x70
10005166:	9304      	str	r3, [sp, #16]
10005168:	6efb      	ldr	r3, [r7, #108]	@ 0x6c
1000516a:	9303      	str	r3, [sp, #12]
1000516c:	6e3b      	ldr	r3, [r7, #96]	@ 0x60
1000516e:	9302      	str	r3, [sp, #8]
10005170:	9201      	str	r2, [sp, #4]
10005172:	9600      	str	r6, [sp, #0]
10005174:	002b      	movs	r3, r5
10005176:	0022      	movs	r2, r4
10005178:	f7fe ffff 	bl	1000417a <_ntoa_long>
1000517c:	0003      	movs	r3, r0
1000517e:	667b      	str	r3, [r7, #100]	@ 0x64
10005180:	e0cf      	b.n	10005322 <_vsnprintf+0x5c6>
10005182:	6f7b      	ldr	r3, [r7, #116]	@ 0x74
10005184:	2240      	movs	r2, #64	@ 0x40
10005186:	4013      	ands	r3, r2
10005188:	d009      	beq.n	1000519e <_vsnprintf+0x442>
1000518a:	2390      	movs	r3, #144	@ 0x90
1000518c:	18fb      	adds	r3, r7, r3
1000518e:	681b      	ldr	r3, [r3, #0]
10005190:	1d1a      	adds	r2, r3, #4
10005192:	2190      	movs	r1, #144	@ 0x90
10005194:	1879      	adds	r1, r7, r1
10005196:	600a      	str	r2, [r1, #0]
10005198:	681b      	ldr	r3, [r3, #0]
1000519a:	b2db      	uxtb	r3, r3
1000519c:	e015      	b.n	100051ca <_vsnprintf+0x46e>
1000519e:	6f7b      	ldr	r3, [r7, #116]	@ 0x74
100051a0:	2280      	movs	r2, #128	@ 0x80
100051a2:	4013      	ands	r3, r2
100051a4:	d009      	beq.n	100051ba <_vsnprintf+0x45e>
100051a6:	2390      	movs	r3, #144	@ 0x90
100051a8:	18fb      	adds	r3, r7, r3
100051aa:	681b      	ldr	r3, [r3, #0]
100051ac:	1d1a      	adds	r2, r3, #4
100051ae:	2190      	movs	r1, #144	@ 0x90
100051b0:	1879      	adds	r1, r7, r1
100051b2:	600a      	str	r2, [r1, #0]
100051b4:	681b      	ldr	r3, [r3, #0]
100051b6:	b21b      	sxth	r3, r3
100051b8:	e007      	b.n	100051ca <_vsnprintf+0x46e>
100051ba:	2390      	movs	r3, #144	@ 0x90
100051bc:	18fb      	adds	r3, r7, r3
100051be:	681b      	ldr	r3, [r3, #0]
100051c0:	1d1a      	adds	r2, r3, #4
100051c2:	2190      	movs	r1, #144	@ 0x90
100051c4:	1879      	adds	r1, r7, r1
100051c6:	600a      	str	r2, [r1, #0]
100051c8:	681b      	ldr	r3, [r3, #0]
100051ca:	643b      	str	r3, [r7, #64]	@ 0x40
100051cc:	6c3b      	ldr	r3, [r7, #64]	@ 0x40
100051ce:	17da      	asrs	r2, r3, #31
100051d0:	189b      	adds	r3, r3, r2
100051d2:	4053      	eors	r3, r2
100051d4:	001e      	movs	r6, r3
100051d6:	6c3b      	ldr	r3, [r7, #64]	@ 0x40
100051d8:	0fdb      	lsrs	r3, r3, #31
100051da:	b2da      	uxtb	r2, r3
100051dc:	6a7d      	ldr	r5, [r7, #36]	@ 0x24
100051de:	6e7c      	ldr	r4, [r7, #100]	@ 0x64
100051e0:	6ab9      	ldr	r1, [r7, #40]	@ 0x28
100051e2:	6af8      	ldr	r0, [r7, #44]	@ 0x2c
100051e4:	6f7b      	ldr	r3, [r7, #116]	@ 0x74
100051e6:	9305      	str	r3, [sp, #20]
100051e8:	6f3b      	ldr	r3, [r7, #112]	@ 0x70
100051ea:	9304      	str	r3, [sp, #16]
100051ec:	6efb      	ldr	r3, [r7, #108]	@ 0x6c
100051ee:	9303      	str	r3, [sp, #12]
100051f0:	6e3b      	ldr	r3, [r7, #96]	@ 0x60
100051f2:	9302      	str	r3, [sp, #8]
100051f4:	9201      	str	r2, [sp, #4]
100051f6:	9600      	str	r6, [sp, #0]
100051f8:	002b      	movs	r3, r5
100051fa:	0022      	movs	r2, r4
100051fc:	f7fe ffbd 	bl	1000417a <_ntoa_long>
10005200:	0003      	movs	r3, r0
10005202:	667b      	str	r3, [r7, #100]	@ 0x64
10005204:	e08d      	b.n	10005322 <_vsnprintf+0x5c6>
10005206:	6f7a      	ldr	r2, [r7, #116]	@ 0x74
10005208:	2380      	movs	r3, #128	@ 0x80
1000520a:	009b      	lsls	r3, r3, #2
1000520c:	4013      	ands	r3, r2
1000520e:	d02b      	beq.n	10005268 <_vsnprintf+0x50c>
10005210:	2390      	movs	r3, #144	@ 0x90
10005212:	18fb      	adds	r3, r7, r3
10005214:	681b      	ldr	r3, [r3, #0]
10005216:	3307      	adds	r3, #7
10005218:	2207      	movs	r2, #7
1000521a:	4393      	bics	r3, r2
1000521c:	001a      	movs	r2, r3
1000521e:	3208      	adds	r2, #8
10005220:	2190      	movs	r1, #144	@ 0x90
10005222:	1879      	adds	r1, r7, r1
10005224:	600a      	str	r2, [r1, #0]
10005226:	6818      	ldr	r0, [r3, #0]
10005228:	6859      	ldr	r1, [r3, #4]
1000522a:	6e3b      	ldr	r3, [r7, #96]	@ 0x60
1000522c:	613b      	str	r3, [r7, #16]
1000522e:	2300      	movs	r3, #0
10005230:	617b      	str	r3, [r7, #20]
10005232:	6a7e      	ldr	r6, [r7, #36]	@ 0x24
10005234:	6e7a      	ldr	r2, [r7, #100]	@ 0x64
10005236:	6abd      	ldr	r5, [r7, #40]	@ 0x28
10005238:	6afb      	ldr	r3, [r7, #44]	@ 0x2c
1000523a:	469c      	mov	ip, r3
1000523c:	6f7b      	ldr	r3, [r7, #116]	@ 0x74
1000523e:	9308      	str	r3, [sp, #32]
10005240:	6f3b      	ldr	r3, [r7, #112]	@ 0x70
10005242:	9307      	str	r3, [sp, #28]
10005244:	6efb      	ldr	r3, [r7, #108]	@ 0x6c
10005246:	9306      	str	r3, [sp, #24]
10005248:	693b      	ldr	r3, [r7, #16]
1000524a:	697c      	ldr	r4, [r7, #20]
1000524c:	9304      	str	r3, [sp, #16]
1000524e:	9405      	str	r4, [sp, #20]
10005250:	2300      	movs	r3, #0
10005252:	9302      	str	r3, [sp, #8]
10005254:	9000      	str	r0, [sp, #0]
10005256:	9101      	str	r1, [sp, #4]
10005258:	0033      	movs	r3, r6
1000525a:	0029      	movs	r1, r5
1000525c:	4660      	mov	r0, ip
1000525e:	f7fe fff5 	bl	1000424c <_ntoa_long_long>
10005262:	0003      	movs	r3, r0
10005264:	667b      	str	r3, [r7, #100]	@ 0x64
10005266:	e05c      	b.n	10005322 <_vsnprintf+0x5c6>
10005268:	6f7a      	ldr	r2, [r7, #116]	@ 0x74
1000526a:	2380      	movs	r3, #128	@ 0x80
1000526c:	005b      	lsls	r3, r3, #1
1000526e:	4013      	ands	r3, r2
10005270:	d01d      	beq.n	100052ae <_vsnprintf+0x552>
10005272:	2390      	movs	r3, #144	@ 0x90
10005274:	18fb      	adds	r3, r7, r3
10005276:	681b      	ldr	r3, [r3, #0]
10005278:	1d1a      	adds	r2, r3, #4
1000527a:	2190      	movs	r1, #144	@ 0x90
1000527c:	1879      	adds	r1, r7, r1
1000527e:	600a      	str	r2, [r1, #0]
10005280:	681a      	ldr	r2, [r3, #0]
10005282:	6a7d      	ldr	r5, [r7, #36]	@ 0x24
10005284:	6e7c      	ldr	r4, [r7, #100]	@ 0x64
10005286:	6ab9      	ldr	r1, [r7, #40]	@ 0x28
10005288:	6af8      	ldr	r0, [r7, #44]	@ 0x2c
1000528a:	6f7b      	ldr	r3, [r7, #116]	@ 0x74
1000528c:	9305      	str	r3, [sp, #20]
1000528e:	6f3b      	ldr	r3, [r7, #112]	@ 0x70
10005290:	9304      	str	r3, [sp, #16]
10005292:	6efb      	ldr	r3, [r7, #108]	@ 0x6c
10005294:	9303      	str	r3, [sp, #12]
10005296:	6e3b      	ldr	r3, [r7, #96]	@ 0x60
10005298:	9302      	str	r3, [sp, #8]
1000529a:	2300      	movs	r3, #0
1000529c:	9301      	str	r3, [sp, #4]
1000529e:	9200      	str	r2, [sp, #0]
100052a0:	002b      	movs	r3, r5
100052a2:	0022      	movs	r2, r4
100052a4:	f7fe ff69 	bl	1000417a <_ntoa_long>
100052a8:	0003      	movs	r3, r0
100052aa:	667b      	str	r3, [r7, #100]	@ 0x64
100052ac:	e039      	b.n	10005322 <_vsnprintf+0x5c6>
100052ae:	6f7b      	ldr	r3, [r7, #116]	@ 0x74
100052b0:	2240      	movs	r2, #64	@ 0x40
100052b2:	4013      	ands	r3, r2
100052b4:	d009      	beq.n	100052ca <_vsnprintf+0x56e>
100052b6:	2390      	movs	r3, #144	@ 0x90
100052b8:	18fb      	adds	r3, r7, r3
100052ba:	681b      	ldr	r3, [r3, #0]
100052bc:	1d1a      	adds	r2, r3, #4
100052be:	2190      	movs	r1, #144	@ 0x90
100052c0:	1879      	adds	r1, r7, r1
100052c2:	600a      	str	r2, [r1, #0]
100052c4:	681b      	ldr	r3, [r3, #0]
100052c6:	b2db      	uxtb	r3, r3
100052c8:	e015      	b.n	100052f6 <_vsnprintf+0x59a>
100052ca:	6f7b      	ldr	r3, [r7, #116]	@ 0x74
100052cc:	2280      	movs	r2, #128	@ 0x80
100052ce:	4013      	ands	r3, r2
100052d0:	d009      	beq.n	100052e6 <_vsnprintf+0x58a>
100052d2:	2390      	movs	r3, #144	@ 0x90
100052d4:	18fb      	adds	r3, r7, r3
100052d6:	681b      	ldr	r3, [r3, #0]
100052d8:	1d1a      	adds	r2, r3, #4
100052da:	2190      	movs	r1, #144	@ 0x90
100052dc:	1879      	adds	r1, r7, r1
100052de:	600a      	str	r2, [r1, #0]
100052e0:	681b      	ldr	r3, [r3, #0]
100052e2:	b29b      	uxth	r3, r3
100052e4:	e007      	b.n	100052f6 <_vsnprintf+0x59a>
100052e6:	2390      	movs	r3, #144	@ 0x90
100052e8:	18fb      	adds	r3, r7, r3
100052ea:	681b      	ldr	r3, [r3, #0]
100052ec:	1d1a      	adds	r2, r3, #4
100052ee:	2190      	movs	r1, #144	@ 0x90
100052f0:	1879      	adds	r1, r7, r1
100052f2:	600a      	str	r2, [r1, #0]
100052f4:	681b      	ldr	r3, [r3, #0]
100052f6:	647b      	str	r3, [r7, #68]	@ 0x44
100052f8:	6a7c      	ldr	r4, [r7, #36]	@ 0x24
100052fa:	6e7a      	ldr	r2, [r7, #100]	@ 0x64
100052fc:	6ab9      	ldr	r1, [r7, #40]	@ 0x28
100052fe:	6af8      	ldr	r0, [r7, #44]	@ 0x2c
10005300:	6f7b      	ldr	r3, [r7, #116]	@ 0x74
10005302:	9305      	str	r3, [sp, #20]
10005304:	6f3b      	ldr	r3, [r7, #112]	@ 0x70
10005306:	9304      	str	r3, [sp, #16]
10005308:	6efb      	ldr	r3, [r7, #108]	@ 0x6c
1000530a:	9303      	str	r3, [sp, #12]
1000530c:	6e3b      	ldr	r3, [r7, #96]	@ 0x60
1000530e:	9302      	str	r3, [sp, #8]
10005310:	2300      	movs	r3, #0
10005312:	9301      	str	r3, [sp, #4]
10005314:	6c7b      	ldr	r3, [r7, #68]	@ 0x44
10005316:	9300      	str	r3, [sp, #0]
10005318:	0023      	movs	r3, r4
1000531a:	f7fe ff2e 	bl	1000417a <_ntoa_long>
1000531e:	0003      	movs	r3, r0
10005320:	667b      	str	r3, [r7, #100]	@ 0x64
10005322:	6a3b      	ldr	r3, [r7, #32]
10005324:	3301      	adds	r3, #1
10005326:	623b      	str	r3, [r7, #32]
10005328:	e17c      	b.n	10005624 <_vsnprintf+0x8c8>
1000532a:	6a3b      	ldr	r3, [r7, #32]
1000532c:	781b      	ldrb	r3, [r3, #0]
1000532e:	2b46      	cmp	r3, #70	@ 0x46
10005330:	d103      	bne.n	1000533a <_vsnprintf+0x5de>
10005332:	6f7b      	ldr	r3, [r7, #116]	@ 0x74
10005334:	2220      	movs	r2, #32
10005336:	4313      	orrs	r3, r2
10005338:	677b      	str	r3, [r7, #116]	@ 0x74
1000533a:	2390      	movs	r3, #144	@ 0x90
1000533c:	18fb      	adds	r3, r7, r3
1000533e:	681b      	ldr	r3, [r3, #0]
10005340:	3307      	adds	r3, #7
10005342:	2207      	movs	r2, #7
10005344:	4393      	bics	r3, r2
10005346:	001a      	movs	r2, r3
10005348:	3208      	adds	r2, #8
1000534a:	2190      	movs	r1, #144	@ 0x90
1000534c:	1879      	adds	r1, r7, r1
1000534e:	600a      	str	r2, [r1, #0]
10005350:	6818      	ldr	r0, [r3, #0]
10005352:	6859      	ldr	r1, [r3, #4]
10005354:	6a7e      	ldr	r6, [r7, #36]	@ 0x24
10005356:	6e7a      	ldr	r2, [r7, #100]	@ 0x64
10005358:	6abd      	ldr	r5, [r7, #40]	@ 0x28
1000535a:	6afc      	ldr	r4, [r7, #44]	@ 0x2c
1000535c:	6f7b      	ldr	r3, [r7, #116]	@ 0x74
1000535e:	9304      	str	r3, [sp, #16]
10005360:	6f3b      	ldr	r3, [r7, #112]	@ 0x70
10005362:	9303      	str	r3, [sp, #12]
10005364:	6efb      	ldr	r3, [r7, #108]	@ 0x6c
10005366:	9302      	str	r3, [sp, #8]
10005368:	9000      	str	r0, [sp, #0]
1000536a:	9101      	str	r1, [sp, #4]
1000536c:	0033      	movs	r3, r6
1000536e:	0029      	movs	r1, r5
10005370:	0020      	movs	r0, r4
10005372:	f7fe ffdf 	bl	10004334 <_ftoa>
10005376:	0003      	movs	r3, r0
10005378:	667b      	str	r3, [r7, #100]	@ 0x64
1000537a:	6a3b      	ldr	r3, [r7, #32]
1000537c:	3301      	adds	r3, #1
1000537e:	623b      	str	r3, [r7, #32]
10005380:	e150      	b.n	10005624 <_vsnprintf+0x8c8>
10005382:	6a3b      	ldr	r3, [r7, #32]
10005384:	781b      	ldrb	r3, [r3, #0]
10005386:	2b67      	cmp	r3, #103	@ 0x67
10005388:	d003      	beq.n	10005392 <_vsnprintf+0x636>
1000538a:	6a3b      	ldr	r3, [r7, #32]
1000538c:	781b      	ldrb	r3, [r3, #0]
1000538e:	2b47      	cmp	r3, #71	@ 0x47
10005390:	d104      	bne.n	1000539c <_vsnprintf+0x640>
10005392:	6f7b      	ldr	r3, [r7, #116]	@ 0x74
10005394:	2280      	movs	r2, #128	@ 0x80
10005396:	0112      	lsls	r2, r2, #4
10005398:	4313      	orrs	r3, r2
1000539a:	677b      	str	r3, [r7, #116]	@ 0x74
1000539c:	6a3b      	ldr	r3, [r7, #32]
1000539e:	781b      	ldrb	r3, [r3, #0]
100053a0:	2b45      	cmp	r3, #69	@ 0x45
100053a2:	d003      	beq.n	100053ac <_vsnprintf+0x650>
100053a4:	6a3b      	ldr	r3, [r7, #32]
100053a6:	781b      	ldrb	r3, [r3, #0]
100053a8:	2b47      	cmp	r3, #71	@ 0x47
100053aa:	d103      	bne.n	100053b4 <_vsnprintf+0x658>
100053ac:	6f7b      	ldr	r3, [r7, #116]	@ 0x74
100053ae:	2220      	movs	r2, #32
100053b0:	4313      	orrs	r3, r2
100053b2:	677b      	str	r3, [r7, #116]	@ 0x74
100053b4:	2390      	movs	r3, #144	@ 0x90
100053b6:	18fb      	adds	r3, r7, r3
100053b8:	681b      	ldr	r3, [r3, #0]
100053ba:	3307      	adds	r3, #7
100053bc:	2207      	movs	r2, #7
100053be:	4393      	bics	r3, r2
100053c0:	001a      	movs	r2, r3
100053c2:	3208      	adds	r2, #8
100053c4:	2190      	movs	r1, #144	@ 0x90
100053c6:	1879      	adds	r1, r7, r1
100053c8:	600a      	str	r2, [r1, #0]
100053ca:	6818      	ldr	r0, [r3, #0]
100053cc:	6859      	ldr	r1, [r3, #4]
100053ce:	6a7e      	ldr	r6, [r7, #36]	@ 0x24
100053d0:	6e7a      	ldr	r2, [r7, #100]	@ 0x64
100053d2:	6abd      	ldr	r5, [r7, #40]	@ 0x28
100053d4:	6afc      	ldr	r4, [r7, #44]	@ 0x2c
100053d6:	6f7b      	ldr	r3, [r7, #116]	@ 0x74
100053d8:	9304      	str	r3, [sp, #16]
100053da:	6f3b      	ldr	r3, [r7, #112]	@ 0x70
100053dc:	9303      	str	r3, [sp, #12]
100053de:	6efb      	ldr	r3, [r7, #108]	@ 0x6c
100053e0:	9302      	str	r3, [sp, #8]
100053e2:	9000      	str	r0, [sp, #0]
100053e4:	9101      	str	r1, [sp, #4]
100053e6:	0033      	movs	r3, r6
100053e8:	0029      	movs	r1, r5
100053ea:	0020      	movs	r0, r4
100053ec:	f7ff f9ec 	bl	100047c8 <_etoa>
100053f0:	0003      	movs	r3, r0
100053f2:	667b      	str	r3, [r7, #100]	@ 0x64
100053f4:	6a3b      	ldr	r3, [r7, #32]
100053f6:	3301      	adds	r3, #1
100053f8:	623b      	str	r3, [r7, #32]
100053fa:	e113      	b.n	10005624 <_vsnprintf+0x8c8>
100053fc:	2301      	movs	r3, #1
100053fe:	65fb      	str	r3, [r7, #92]	@ 0x5c
10005400:	6f7b      	ldr	r3, [r7, #116]	@ 0x74
10005402:	2202      	movs	r2, #2
10005404:	4013      	ands	r3, r2
10005406:	d10e      	bne.n	10005426 <_vsnprintf+0x6ca>
10005408:	e007      	b.n	1000541a <_vsnprintf+0x6be>
1000540a:	6e7a      	ldr	r2, [r7, #100]	@ 0x64
1000540c:	1c53      	adds	r3, r2, #1
1000540e:	667b      	str	r3, [r7, #100]	@ 0x64
10005410:	6a7b      	ldr	r3, [r7, #36]	@ 0x24
10005412:	6ab9      	ldr	r1, [r7, #40]	@ 0x28
10005414:	6afc      	ldr	r4, [r7, #44]	@ 0x2c
10005416:	2020      	movs	r0, #32
10005418:	47a0      	blx	r4
1000541a:	6dfb      	ldr	r3, [r7, #92]	@ 0x5c
1000541c:	1c5a      	adds	r2, r3, #1
1000541e:	65fa      	str	r2, [r7, #92]	@ 0x5c
10005420:	6f3a      	ldr	r2, [r7, #112]	@ 0x70
10005422:	429a      	cmp	r2, r3
10005424:	d8f1      	bhi.n	1000540a <_vsnprintf+0x6ae>
10005426:	2390      	movs	r3, #144	@ 0x90
10005428:	18fb      	adds	r3, r7, r3
1000542a:	681b      	ldr	r3, [r3, #0]
1000542c:	1d1a      	adds	r2, r3, #4
1000542e:	2190      	movs	r1, #144	@ 0x90
10005430:	1879      	adds	r1, r7, r1
10005432:	600a      	str	r2, [r1, #0]
10005434:	681b      	ldr	r3, [r3, #0]
10005436:	b2d8      	uxtb	r0, r3
10005438:	6e7a      	ldr	r2, [r7, #100]	@ 0x64
1000543a:	1c53      	adds	r3, r2, #1
1000543c:	667b      	str	r3, [r7, #100]	@ 0x64
1000543e:	6a7b      	ldr	r3, [r7, #36]	@ 0x24
10005440:	6ab9      	ldr	r1, [r7, #40]	@ 0x28
10005442:	6afc      	ldr	r4, [r7, #44]	@ 0x2c
10005444:	47a0      	blx	r4
10005446:	6f7b      	ldr	r3, [r7, #116]	@ 0x74
10005448:	2202      	movs	r2, #2
1000544a:	4013      	ands	r3, r2
1000544c:	d00e      	beq.n	1000546c <_vsnprintf+0x710>
1000544e:	e007      	b.n	10005460 <_vsnprintf+0x704>
10005450:	6e7a      	ldr	r2, [r7, #100]	@ 0x64
10005452:	1c53      	adds	r3, r2, #1
10005454:	667b      	str	r3, [r7, #100]	@ 0x64
10005456:	6a7b      	ldr	r3, [r7, #36]	@ 0x24
10005458:	6ab9      	ldr	r1, [r7, #40]	@ 0x28
1000545a:	6afc      	ldr	r4, [r7, #44]	@ 0x2c
1000545c:	2020      	movs	r0, #32
1000545e:	47a0      	blx	r4
10005460:	6dfb      	ldr	r3, [r7, #92]	@ 0x5c
10005462:	1c5a      	adds	r2, r3, #1
10005464:	65fa      	str	r2, [r7, #92]	@ 0x5c
10005466:	6f3a      	ldr	r2, [r7, #112]	@ 0x70
10005468:	429a      	cmp	r2, r3
1000546a:	d8f1      	bhi.n	10005450 <_vsnprintf+0x6f4>
1000546c:	6a3b      	ldr	r3, [r7, #32]
1000546e:	3301      	adds	r3, #1
10005470:	623b      	str	r3, [r7, #32]
10005472:	e0d7      	b.n	10005624 <_vsnprintf+0x8c8>
10005474:	2390      	movs	r3, #144	@ 0x90
10005476:	18fb      	adds	r3, r7, r3
10005478:	681b      	ldr	r3, [r3, #0]
1000547a:	1d1a      	adds	r2, r3, #4
1000547c:	2190      	movs	r1, #144	@ 0x90
1000547e:	1879      	adds	r1, r7, r1
10005480:	600a      	str	r2, [r1, #0]
10005482:	681b      	ldr	r3, [r3, #0]
10005484:	65bb      	str	r3, [r7, #88]	@ 0x58
10005486:	6efb      	ldr	r3, [r7, #108]	@ 0x6c
10005488:	2b00      	cmp	r3, #0
1000548a:	d001      	beq.n	10005490 <_vsnprintf+0x734>
1000548c:	6efb      	ldr	r3, [r7, #108]	@ 0x6c
1000548e:	e001      	b.n	10005494 <_vsnprintf+0x738>
10005490:	2301      	movs	r3, #1
10005492:	425b      	negs	r3, r3
10005494:	6dba      	ldr	r2, [r7, #88]	@ 0x58
10005496:	0019      	movs	r1, r3
10005498:	0010      	movs	r0, r2
1000549a:	f7fe fcf4 	bl	10003e86 <_strnlen_s>
1000549e:	0003      	movs	r3, r0
100054a0:	657b      	str	r3, [r7, #84]	@ 0x54
100054a2:	6f7a      	ldr	r2, [r7, #116]	@ 0x74
100054a4:	2380      	movs	r3, #128	@ 0x80
100054a6:	00db      	lsls	r3, r3, #3
100054a8:	4013      	ands	r3, r2
100054aa:	d005      	beq.n	100054b8 <_vsnprintf+0x75c>
100054ac:	6d7a      	ldr	r2, [r7, #84]	@ 0x54
100054ae:	6efb      	ldr	r3, [r7, #108]	@ 0x6c
100054b0:	4293      	cmp	r3, r2
100054b2:	d900      	bls.n	100054b6 <_vsnprintf+0x75a>
100054b4:	0013      	movs	r3, r2
100054b6:	657b      	str	r3, [r7, #84]	@ 0x54
100054b8:	6f7b      	ldr	r3, [r7, #116]	@ 0x74
100054ba:	2202      	movs	r2, #2
100054bc:	4013      	ands	r3, r2
100054be:	d11a      	bne.n	100054f6 <_vsnprintf+0x79a>
100054c0:	e007      	b.n	100054d2 <_vsnprintf+0x776>
100054c2:	6e7a      	ldr	r2, [r7, #100]	@ 0x64
100054c4:	1c53      	adds	r3, r2, #1
100054c6:	667b      	str	r3, [r7, #100]	@ 0x64
100054c8:	6a7b      	ldr	r3, [r7, #36]	@ 0x24
100054ca:	6ab9      	ldr	r1, [r7, #40]	@ 0x28
100054cc:	6afc      	ldr	r4, [r7, #44]	@ 0x2c
100054ce:	2020      	movs	r0, #32
100054d0:	47a0      	blx	r4
100054d2:	6d7b      	ldr	r3, [r7, #84]	@ 0x54
100054d4:	1c5a      	adds	r2, r3, #1
100054d6:	657a      	str	r2, [r7, #84]	@ 0x54
100054d8:	6f3a      	ldr	r2, [r7, #112]	@ 0x70
100054da:	429a      	cmp	r2, r3
100054dc:	d8f1      	bhi.n	100054c2 <_vsnprintf+0x766>
100054de:	e00a      	b.n	100054f6 <_vsnprintf+0x79a>
100054e0:	6dbb      	ldr	r3, [r7, #88]	@ 0x58
100054e2:	1c5a      	adds	r2, r3, #1
100054e4:	65ba      	str	r2, [r7, #88]	@ 0x58
100054e6:	7818      	ldrb	r0, [r3, #0]
100054e8:	6e7a      	ldr	r2, [r7, #100]	@ 0x64
100054ea:	1c53      	adds	r3, r2, #1
100054ec:	667b      	str	r3, [r7, #100]	@ 0x64
100054ee:	6a7b      	ldr	r3, [r7, #36]	@ 0x24
100054f0:	6ab9      	ldr	r1, [r7, #40]	@ 0x28
100054f2:	6afc      	ldr	r4, [r7, #44]	@ 0x2c
100054f4:	47a0      	blx	r4
100054f6:	6dbb      	ldr	r3, [r7, #88]	@ 0x58
100054f8:	781b      	ldrb	r3, [r3, #0]
100054fa:	2b00      	cmp	r3, #0
100054fc:	d009      	beq.n	10005512 <_vsnprintf+0x7b6>
100054fe:	6f7a      	ldr	r2, [r7, #116]	@ 0x74
10005500:	2380      	movs	r3, #128	@ 0x80
10005502:	00db      	lsls	r3, r3, #3
10005504:	4013      	ands	r3, r2
10005506:	d0eb      	beq.n	100054e0 <_vsnprintf+0x784>
10005508:	6efb      	ldr	r3, [r7, #108]	@ 0x6c
1000550a:	1e5a      	subs	r2, r3, #1
1000550c:	66fa      	str	r2, [r7, #108]	@ 0x6c
1000550e:	2b00      	cmp	r3, #0
10005510:	d1e6      	bne.n	100054e0 <_vsnprintf+0x784>
10005512:	6f7b      	ldr	r3, [r7, #116]	@ 0x74
10005514:	2202      	movs	r2, #2
10005516:	4013      	ands	r3, r2
10005518:	d00e      	beq.n	10005538 <_vsnprintf+0x7dc>
1000551a:	e007      	b.n	1000552c <_vsnprintf+0x7d0>
1000551c:	6e7a      	ldr	r2, [r7, #100]	@ 0x64
1000551e:	1c53      	adds	r3, r2, #1
10005520:	667b      	str	r3, [r7, #100]	@ 0x64
10005522:	6a7b      	ldr	r3, [r7, #36]	@ 0x24
10005524:	6ab9      	ldr	r1, [r7, #40]	@ 0x28
10005526:	6afc      	ldr	r4, [r7, #44]	@ 0x2c
10005528:	2020      	movs	r0, #32
1000552a:	47a0      	blx	r4
1000552c:	6d7b      	ldr	r3, [r7, #84]	@ 0x54
1000552e:	1c5a      	adds	r2, r3, #1
10005530:	657a      	str	r2, [r7, #84]	@ 0x54
10005532:	6f3a      	ldr	r2, [r7, #112]	@ 0x70
10005534:	429a      	cmp	r2, r3
10005536:	d8f1      	bhi.n	1000551c <_vsnprintf+0x7c0>
10005538:	6a3b      	ldr	r3, [r7, #32]
1000553a:	3301      	adds	r3, #1
1000553c:	623b      	str	r3, [r7, #32]
1000553e:	e071      	b.n	10005624 <_vsnprintf+0x8c8>
10005540:	2308      	movs	r3, #8
10005542:	673b      	str	r3, [r7, #112]	@ 0x70
10005544:	6f7b      	ldr	r3, [r7, #116]	@ 0x74
10005546:	2221      	movs	r2, #33	@ 0x21
10005548:	4313      	orrs	r3, r2
1000554a:	677b      	str	r3, [r7, #116]	@ 0x74
1000554c:	212b      	movs	r1, #43	@ 0x2b
1000554e:	2320      	movs	r3, #32
10005550:	18cb      	adds	r3, r1, r3
10005552:	19db      	adds	r3, r3, r7
10005554:	2200      	movs	r2, #0
10005556:	701a      	strb	r2, [r3, #0]
10005558:	2320      	movs	r3, #32
1000555a:	18cb      	adds	r3, r1, r3
1000555c:	19db      	adds	r3, r3, r7
1000555e:	781b      	ldrb	r3, [r3, #0]
10005560:	2b00      	cmp	r3, #0
10005562:	d025      	beq.n	100055b0 <_vsnprintf+0x854>
10005564:	2390      	movs	r3, #144	@ 0x90
10005566:	18fb      	adds	r3, r7, r3
10005568:	681b      	ldr	r3, [r3, #0]
1000556a:	1d1a      	adds	r2, r3, #4
1000556c:	2190      	movs	r1, #144	@ 0x90
1000556e:	1879      	adds	r1, r7, r1
10005570:	600a      	str	r2, [r1, #0]
10005572:	681b      	ldr	r3, [r3, #0]
10005574:	60bb      	str	r3, [r7, #8]
10005576:	2300      	movs	r3, #0
10005578:	60fb      	str	r3, [r7, #12]
1000557a:	6a7d      	ldr	r5, [r7, #36]	@ 0x24
1000557c:	6e7c      	ldr	r4, [r7, #100]	@ 0x64
1000557e:	6ab9      	ldr	r1, [r7, #40]	@ 0x28
10005580:	6af8      	ldr	r0, [r7, #44]	@ 0x2c
10005582:	6f7b      	ldr	r3, [r7, #116]	@ 0x74
10005584:	9308      	str	r3, [sp, #32]
10005586:	6f3b      	ldr	r3, [r7, #112]	@ 0x70
10005588:	9307      	str	r3, [sp, #28]
1000558a:	6efb      	ldr	r3, [r7, #108]	@ 0x6c
1000558c:	9306      	str	r3, [sp, #24]
1000558e:	2210      	movs	r2, #16
10005590:	2300      	movs	r3, #0
10005592:	9204      	str	r2, [sp, #16]
10005594:	9305      	str	r3, [sp, #20]
10005596:	2300      	movs	r3, #0
10005598:	9302      	str	r3, [sp, #8]
1000559a:	68ba      	ldr	r2, [r7, #8]
1000559c:	68fb      	ldr	r3, [r7, #12]
1000559e:	9200      	str	r2, [sp, #0]
100055a0:	9301      	str	r3, [sp, #4]
100055a2:	002b      	movs	r3, r5
100055a4:	0022      	movs	r2, r4
100055a6:	f7fe fe51 	bl	1000424c <_ntoa_long_long>
100055aa:	0003      	movs	r3, r0
100055ac:	667b      	str	r3, [r7, #100]	@ 0x64
100055ae:	e01c      	b.n	100055ea <_vsnprintf+0x88e>
100055b0:	2390      	movs	r3, #144	@ 0x90
100055b2:	18fb      	adds	r3, r7, r3
100055b4:	681b      	ldr	r3, [r3, #0]
100055b6:	1d1a      	adds	r2, r3, #4
100055b8:	2190      	movs	r1, #144	@ 0x90
100055ba:	1879      	adds	r1, r7, r1
100055bc:	600a      	str	r2, [r1, #0]
100055be:	681b      	ldr	r3, [r3, #0]
100055c0:	001d      	movs	r5, r3
100055c2:	6a7c      	ldr	r4, [r7, #36]	@ 0x24
100055c4:	6e7a      	ldr	r2, [r7, #100]	@ 0x64
100055c6:	6ab9      	ldr	r1, [r7, #40]	@ 0x28
100055c8:	6af8      	ldr	r0, [r7, #44]	@ 0x2c
100055ca:	6f7b      	ldr	r3, [r7, #116]	@ 0x74
100055cc:	9305      	str	r3, [sp, #20]
100055ce:	6f3b      	ldr	r3, [r7, #112]	@ 0x70
100055d0:	9304      	str	r3, [sp, #16]
100055d2:	6efb      	ldr	r3, [r7, #108]	@ 0x6c
100055d4:	9303      	str	r3, [sp, #12]
100055d6:	2310      	movs	r3, #16
100055d8:	9302      	str	r3, [sp, #8]
100055da:	2300      	movs	r3, #0
100055dc:	9301      	str	r3, [sp, #4]
100055de:	9500      	str	r5, [sp, #0]
100055e0:	0023      	movs	r3, r4
100055e2:	f7fe fdca 	bl	1000417a <_ntoa_long>
100055e6:	0003      	movs	r3, r0
100055e8:	667b      	str	r3, [r7, #100]	@ 0x64
100055ea:	6a3b      	ldr	r3, [r7, #32]
100055ec:	3301      	adds	r3, #1
100055ee:	623b      	str	r3, [r7, #32]
100055f0:	e018      	b.n	10005624 <_vsnprintf+0x8c8>
100055f2:	6e7a      	ldr	r2, [r7, #100]	@ 0x64
100055f4:	1c53      	adds	r3, r2, #1
100055f6:	667b      	str	r3, [r7, #100]	@ 0x64
100055f8:	6a7b      	ldr	r3, [r7, #36]	@ 0x24
100055fa:	6ab9      	ldr	r1, [r7, #40]	@ 0x28
100055fc:	6afc      	ldr	r4, [r7, #44]	@ 0x2c
100055fe:	2025      	movs	r0, #37	@ 0x25
10005600:	47a0      	blx	r4
10005602:	6a3b      	ldr	r3, [r7, #32]
10005604:	3301      	adds	r3, #1
10005606:	623b      	str	r3, [r7, #32]
10005608:	e00c      	b.n	10005624 <_vsnprintf+0x8c8>
1000560a:	6a3b      	ldr	r3, [r7, #32]
1000560c:	7818      	ldrb	r0, [r3, #0]
1000560e:	6e7a      	ldr	r2, [r7, #100]	@ 0x64
10005610:	1c53      	adds	r3, r2, #1
10005612:	667b      	str	r3, [r7, #100]	@ 0x64
10005614:	6a7b      	ldr	r3, [r7, #36]	@ 0x24
10005616:	6ab9      	ldr	r1, [r7, #40]	@ 0x28
10005618:	6afc      	ldr	r4, [r7, #44]	@ 0x2c
1000561a:	47a0      	blx	r4
1000561c:	6a3b      	ldr	r3, [r7, #32]
1000561e:	3301      	adds	r3, #1
10005620:	623b      	str	r3, [r7, #32]
10005622:	46c0      	nop			@ (mov r8, r8)
10005624:	6a3b      	ldr	r3, [r7, #32]
10005626:	781b      	ldrb	r3, [r3, #0]
10005628:	2b00      	cmp	r3, #0
1000562a:	d001      	beq.n	10005630 <_vsnprintf+0x8d4>
1000562c:	f7ff fbaa 	bl	10004d84 <_vsnprintf+0x28>
10005630:	6e7a      	ldr	r2, [r7, #100]	@ 0x64
10005632:	6a7b      	ldr	r3, [r7, #36]	@ 0x24
10005634:	429a      	cmp	r2, r3
10005636:	d302      	bcc.n	1000563e <_vsnprintf+0x8e2>
10005638:	6a7b      	ldr	r3, [r7, #36]	@ 0x24
1000563a:	1e5a      	subs	r2, r3, #1
1000563c:	e000      	b.n	10005640 <_vsnprintf+0x8e4>
1000563e:	6e7a      	ldr	r2, [r7, #100]	@ 0x64
10005640:	6a7b      	ldr	r3, [r7, #36]	@ 0x24
10005642:	6ab9      	ldr	r1, [r7, #40]	@ 0x28
10005644:	6afc      	ldr	r4, [r7, #44]	@ 0x2c
10005646:	2000      	movs	r0, #0
10005648:	47a0      	blx	r4
1000564a:	6e7b      	ldr	r3, [r7, #100]	@ 0x64
1000564c:	0018      	movs	r0, r3
1000564e:	46bd      	mov	sp, r7
10005650:	b01e      	add	sp, #120	@ 0x78
10005652:	bc80      	pop	{r7}
10005654:	46b8      	mov	r8, r7
10005656:	bdf0      	pop	{r4, r5, r6, r7, pc}

10005658 <__wrap_snprintf>:
10005658:	b40c      	push	{r2, r3}
1000565a:	b590      	push	{r4, r7, lr}
1000565c:	b087      	sub	sp, #28
1000565e:	af02      	add	r7, sp, #8
10005660:	6078      	str	r0, [r7, #4]
10005662:	6039      	str	r1, [r7, #0]
10005664:	2324      	movs	r3, #36	@ 0x24
10005666:	18fb      	adds	r3, r7, r3
10005668:	60bb      	str	r3, [r7, #8]
1000566a:	6a3c      	ldr	r4, [r7, #32]
1000566c:	683a      	ldr	r2, [r7, #0]
1000566e:	6879      	ldr	r1, [r7, #4]
10005670:	4807      	ldr	r0, [pc, #28]	@ (10005690 <__wrap_snprintf+0x38>)
10005672:	68bb      	ldr	r3, [r7, #8]
10005674:	9300      	str	r3, [sp, #0]
10005676:	0023      	movs	r3, r4
10005678:	f7ff fb70 	bl	10004d5c <_vsnprintf>
1000567c:	0003      	movs	r3, r0
1000567e:	60fb      	str	r3, [r7, #12]
10005680:	68fb      	ldr	r3, [r7, #12]
10005682:	0018      	movs	r0, r3
10005684:	46bd      	mov	sp, r7
10005686:	b005      	add	sp, #20
10005688:	bc90      	pop	{r4, r7}
1000568a:	bc08      	pop	{r3}
1000568c:	b002      	add	sp, #8
1000568e:	4718      	bx	r3
10005690:	10003e05 	.word	0x10003e05

10005694 <vfctprintf>:
10005694:	b590      	push	{r4, r7, lr}
10005696:	b089      	sub	sp, #36	@ 0x24
10005698:	af02      	add	r7, sp, #8
1000569a:	60f8      	str	r0, [r7, #12]
1000569c:	60b9      	str	r1, [r7, #8]
1000569e:	607a      	str	r2, [r7, #4]
100056a0:	603b      	str	r3, [r7, #0]
100056a2:	2110      	movs	r1, #16
100056a4:	187b      	adds	r3, r7, r1
100056a6:	68fa      	ldr	r2, [r7, #12]
100056a8:	601a      	str	r2, [r3, #0]
100056aa:	187b      	adds	r3, r7, r1
100056ac:	68ba      	ldr	r2, [r7, #8]
100056ae:	605a      	str	r2, [r3, #4]
100056b0:	687c      	ldr	r4, [r7, #4]
100056b2:	2301      	movs	r3, #1
100056b4:	425a      	negs	r2, r3
100056b6:	1879      	adds	r1, r7, r1
100056b8:	4805      	ldr	r0, [pc, #20]	@ (100056d0 <vfctprintf+0x3c>)
100056ba:	683b      	ldr	r3, [r7, #0]
100056bc:	9300      	str	r3, [sp, #0]
100056be:	0023      	movs	r3, r4
100056c0:	f7ff fb4c 	bl	10004d5c <_vsnprintf>
100056c4:	0003      	movs	r3, r0
100056c6:	0018      	movs	r0, r3
100056c8:	46bd      	mov	sp, r7
100056ca:	b007      	add	sp, #28
100056cc:	bd90      	pop	{r4, r7, pc}
100056ce:	46c0      	nop			@ (mov r8, r8)
100056d0:	10003e51 	.word	0x10003e51

100056d4 <__aeabi_bits_init>:
100056d4:	4801      	ldr	r0, [pc, #4]	@ (100056dc <__aeabi_bits_init+0x8>)
100056d6:	2104      	movs	r1, #4
100056d8:	4b01      	ldr	r3, [pc, #4]	@ (100056e0 <__aeabi_bits_init+0xc>)
100056da:	4718      	bx	r3
100056dc:	20000580 	.word	0x20000580
100056e0:	10005763 	.word	0x10005763

100056e4 <rom_hword_as_ptr>:
100056e4:	b580      	push	{r7, lr}
100056e6:	b082      	sub	sp, #8
100056e8:	af00      	add	r7, sp, #0
100056ea:	0002      	movs	r2, r0
100056ec:	1dbb      	adds	r3, r7, #6
100056ee:	801a      	strh	r2, [r3, #0]
100056f0:	1dbb      	adds	r3, r7, #6
100056f2:	881b      	ldrh	r3, [r3, #0]
100056f4:	881b      	ldrh	r3, [r3, #0]
100056f6:	0018      	movs	r0, r3
100056f8:	46bd      	mov	sp, r7
100056fa:	b002      	add	sp, #8
100056fc:	bd80      	pop	{r7, pc}

100056fe <rom_func_lookup>:
100056fe:	b580      	push	{r7, lr}
10005700:	b086      	sub	sp, #24
10005702:	af00      	add	r7, sp, #0
10005704:	6078      	str	r0, [r7, #4]
10005706:	687b      	ldr	r3, [r7, #4]
10005708:	617b      	str	r3, [r7, #20]
1000570a:	2018      	movs	r0, #24
1000570c:	f7ff ffea 	bl	100056e4 <rom_hword_as_ptr>
10005710:	0003      	movs	r3, r0
10005712:	613b      	str	r3, [r7, #16]
10005714:	2014      	movs	r0, #20
10005716:	f7ff ffe5 	bl	100056e4 <rom_hword_as_ptr>
1000571a:	0003      	movs	r3, r0
1000571c:	60fb      	str	r3, [r7, #12]
1000571e:	6979      	ldr	r1, [r7, #20]
10005720:	68fa      	ldr	r2, [r7, #12]
10005722:	693b      	ldr	r3, [r7, #16]
10005724:	0010      	movs	r0, r2
10005726:	4798      	blx	r3
10005728:	0003      	movs	r3, r0
1000572a:	0018      	movs	r0, r3
1000572c:	46bd      	mov	sp, r7
1000572e:	b006      	add	sp, #24
10005730:	bd80      	pop	{r7, pc}

10005732 <rom_data_lookup>:
10005732:	b580      	push	{r7, lr}
10005734:	b084      	sub	sp, #16
10005736:	af00      	add	r7, sp, #0
10005738:	6078      	str	r0, [r7, #4]
1000573a:	2018      	movs	r0, #24
1000573c:	f7ff ffd2 	bl	100056e4 <rom_hword_as_ptr>
10005740:	0003      	movs	r3, r0
10005742:	60fb      	str	r3, [r7, #12]
10005744:	2016      	movs	r0, #22
10005746:	f7ff ffcd 	bl	100056e4 <rom_hword_as_ptr>
1000574a:	0003      	movs	r3, r0
1000574c:	60bb      	str	r3, [r7, #8]
1000574e:	6879      	ldr	r1, [r7, #4]
10005750:	68ba      	ldr	r2, [r7, #8]
10005752:	68fb      	ldr	r3, [r7, #12]
10005754:	0010      	movs	r0, r2
10005756:	4798      	blx	r3
10005758:	0003      	movs	r3, r0
1000575a:	0018      	movs	r0, r3
1000575c:	46bd      	mov	sp, r7
1000575e:	b004      	add	sp, #16
10005760:	bd80      	pop	{r7, pc}

10005762 <rom_funcs_lookup>:
10005762:	b580      	push	{r7, lr}
10005764:	b084      	sub	sp, #16
10005766:	af00      	add	r7, sp, #0
10005768:	6078      	str	r0, [r7, #4]
1000576a:	6039      	str	r1, [r7, #0]
1000576c:	230f      	movs	r3, #15
1000576e:	18fb      	adds	r3, r7, r3
10005770:	2201      	movs	r2, #1
10005772:	701a      	strb	r2, [r3, #0]
10005774:	2300      	movs	r3, #0
10005776:	60bb      	str	r3, [r7, #8]
10005778:	e01c      	b.n	100057b4 <rom_funcs_lookup+0x52>
1000577a:	68bb      	ldr	r3, [r7, #8]
1000577c:	009b      	lsls	r3, r3, #2
1000577e:	687a      	ldr	r2, [r7, #4]
10005780:	18d3      	adds	r3, r2, r3
10005782:	681b      	ldr	r3, [r3, #0]
10005784:	0018      	movs	r0, r3
10005786:	f7ff ffba 	bl	100056fe <rom_func_lookup>
1000578a:	0001      	movs	r1, r0
1000578c:	68bb      	ldr	r3, [r7, #8]
1000578e:	009b      	lsls	r3, r3, #2
10005790:	687a      	ldr	r2, [r7, #4]
10005792:	18d3      	adds	r3, r2, r3
10005794:	000a      	movs	r2, r1
10005796:	601a      	str	r2, [r3, #0]
10005798:	68bb      	ldr	r3, [r7, #8]
1000579a:	009b      	lsls	r3, r3, #2
1000579c:	687a      	ldr	r2, [r7, #4]
1000579e:	18d3      	adds	r3, r2, r3
100057a0:	681b      	ldr	r3, [r3, #0]
100057a2:	2b00      	cmp	r3, #0
100057a4:	d103      	bne.n	100057ae <rom_funcs_lookup+0x4c>
100057a6:	230f      	movs	r3, #15
100057a8:	18fb      	adds	r3, r7, r3
100057aa:	2200      	movs	r2, #0
100057ac:	701a      	strb	r2, [r3, #0]
100057ae:	68bb      	ldr	r3, [r7, #8]
100057b0:	3301      	adds	r3, #1
100057b2:	60bb      	str	r3, [r7, #8]
100057b4:	68ba      	ldr	r2, [r7, #8]
100057b6:	683b      	ldr	r3, [r7, #0]
100057b8:	429a      	cmp	r2, r3
100057ba:	d3de      	bcc.n	1000577a <rom_funcs_lookup+0x18>
100057bc:	230f      	movs	r3, #15
100057be:	18fb      	adds	r3, r7, r3
100057c0:	781b      	ldrb	r3, [r3, #0]
100057c2:	0018      	movs	r0, r3
100057c4:	46bd      	mov	sp, r7
100057c6:	b004      	add	sp, #16
100057c8:	bd80      	pop	{r7, pc}
	...

100057cc <__wrap___aeabi_idiv>:
100057cc:	4a12      	ldr	r2, [pc, #72]	@ (10005818 <divmod_s32s32_savestate+0x18>)
100057ce:	6f93      	ldr	r3, [r2, #120]	@ 0x78
100057d0:	089b      	lsrs	r3, r3, #2
100057d2:	d215      	bcs.n	10005800 <divmod_s32s32_savestate>

100057d4 <divmod_s32s32_unsafe>:
100057d4:	6690      	str	r0, [r2, #104]	@ 0x68
100057d6:	66d1      	str	r1, [r2, #108]	@ 0x6c
100057d8:	2900      	cmp	r1, #0
100057da:	d005      	beq.n	100057e8 <divmod_s32s32_unsafe+0x14>
100057dc:	e7ff      	b.n	100057de <divmod_s32s32_unsafe+0xa>
100057de:	e7ff      	b.n	100057e0 <divmod_s32s32_unsafe+0xc>
100057e0:	e7ff      	b.n	100057e2 <divmod_s32s32_unsafe+0xe>
100057e2:	6f51      	ldr	r1, [r2, #116]	@ 0x74
100057e4:	6f10      	ldr	r0, [r2, #112]	@ 0x70
100057e6:	4770      	bx	lr
100057e8:	b504      	push	{r2, lr}
100057ea:	2180      	movs	r1, #128	@ 0x80
100057ec:	0609      	lsls	r1, r1, #24
100057ee:	17c2      	asrs	r2, r0, #31
100057f0:	4051      	eors	r1, r2
100057f2:	2800      	cmp	r0, #0
100057f4:	d000      	beq.n	100057f8 <divmod_s32s32_unsafe+0x24>
100057f6:	43c8      	mvns	r0, r1
100057f8:	f003 fdbe 	bl	10009378 <____aeabi_idiv0_veneer>
100057fc:	2100      	movs	r1, #0
100057fe:	bd04      	pop	{r2, pc}

10005800 <divmod_s32s32_savestate>:
10005800:	b5f0      	push	{r4, r5, r6, r7, lr}
10005802:	6e14      	ldr	r4, [r2, #96]	@ 0x60
10005804:	6e55      	ldr	r5, [r2, #100]	@ 0x64
10005806:	6f57      	ldr	r7, [r2, #116]	@ 0x74
10005808:	6f16      	ldr	r6, [r2, #112]	@ 0x70
1000580a:	f7ff ffe3 	bl	100057d4 <divmod_s32s32_unsafe>
1000580e:	6614      	str	r4, [r2, #96]	@ 0x60
10005810:	6655      	str	r5, [r2, #100]	@ 0x64
10005812:	6757      	str	r7, [r2, #116]	@ 0x74
10005814:	6716      	str	r6, [r2, #112]	@ 0x70
10005816:	bdf0      	pop	{r4, r5, r6, r7, pc}
10005818:	d0000000 	.word	0xd0000000

1000581c <__wrap___aeabi_uidiv>:
1000581c:	4a11      	ldr	r2, [pc, #68]	@ (10005864 <divmod_u32u32_savestate+0x18>)
1000581e:	6f93      	ldr	r3, [r2, #120]	@ 0x78
10005820:	089b      	lsrs	r3, r3, #2
10005822:	d213      	bcs.n	1000584c <divmod_u32u32_savestate>

10005824 <divmod_u32u32_unsafe>:
10005824:	6610      	str	r0, [r2, #96]	@ 0x60
10005826:	6651      	str	r1, [r2, #100]	@ 0x64
10005828:	2900      	cmp	r1, #0
1000582a:	d005      	beq.n	10005838 <divmod_u32u32_unsafe+0x14>
1000582c:	e7ff      	b.n	1000582e <divmod_u32u32_unsafe+0xa>
1000582e:	e7ff      	b.n	10005830 <divmod_u32u32_unsafe+0xc>
10005830:	e7ff      	b.n	10005832 <divmod_u32u32_unsafe+0xe>
10005832:	6f51      	ldr	r1, [r2, #116]	@ 0x74
10005834:	6f10      	ldr	r0, [r2, #112]	@ 0x70
10005836:	4770      	bx	lr
10005838:	b504      	push	{r2, lr}
1000583a:	2800      	cmp	r0, #0
1000583c:	d001      	beq.n	10005842 <divmod_u32u32_unsafe+0x1e>
1000583e:	2000      	movs	r0, #0
10005840:	43c0      	mvns	r0, r0
10005842:	f003 fd99 	bl	10009378 <____aeabi_idiv0_veneer>
10005846:	2100      	movs	r1, #0
10005848:	bd04      	pop	{r2, pc}
1000584a:	46c0      	nop			@ (mov r8, r8)

1000584c <divmod_u32u32_savestate>:
1000584c:	b5f0      	push	{r4, r5, r6, r7, lr}
1000584e:	6e14      	ldr	r4, [r2, #96]	@ 0x60
10005850:	6e55      	ldr	r5, [r2, #100]	@ 0x64
10005852:	6f57      	ldr	r7, [r2, #116]	@ 0x74
10005854:	6f16      	ldr	r6, [r2, #112]	@ 0x70
10005856:	f7ff ffe5 	bl	10005824 <divmod_u32u32_unsafe>
1000585a:	6614      	str	r4, [r2, #96]	@ 0x60
1000585c:	6655      	str	r5, [r2, #100]	@ 0x64
1000585e:	6757      	str	r7, [r2, #116]	@ 0x74
10005860:	6716      	str	r6, [r2, #112]	@ 0x70
10005862:	bdf0      	pop	{r4, r5, r6, r7, pc}
10005864:	d0000000 	.word	0xd0000000

10005868 <__wrap___aeabi_ldivmod>:
10005868:	4694      	mov	ip, r2
1000586a:	4a4a      	ldr	r2, [pc, #296]	@ (10005994 <udiv0+0x1a>)
1000586c:	6f92      	ldr	r2, [r2, #120]	@ 0x78
1000586e:	0892      	lsrs	r2, r2, #2
10005870:	4662      	mov	r2, ip
10005872:	d201      	bcs.n	10005878 <divmod_s64s64_savestate>
10005874:	e028      	b.n	100058c8 <divmod_s64s64_unsafe>
10005876:	46c0      	nop			@ (mov r8, r8)

10005878 <divmod_s64s64_savestate>:
10005878:	b5f0      	push	{r4, r5, r6, r7, lr}
1000587a:	4e46      	ldr	r6, [pc, #280]	@ (10005994 <udiv0+0x1a>)
1000587c:	6e34      	ldr	r4, [r6, #96]	@ 0x60
1000587e:	6e75      	ldr	r5, [r6, #100]	@ 0x64
10005880:	6f77      	ldr	r7, [r6, #116]	@ 0x74
10005882:	6f36      	ldr	r6, [r6, #112]	@ 0x70
10005884:	f000 f820 	bl	100058c8 <divmod_s64s64_unsafe>
10005888:	4694      	mov	ip, r2
1000588a:	4a42      	ldr	r2, [pc, #264]	@ (10005994 <udiv0+0x1a>)
1000588c:	6614      	str	r4, [r2, #96]	@ 0x60
1000588e:	6655      	str	r5, [r2, #100]	@ 0x64
10005890:	6757      	str	r7, [r2, #116]	@ 0x74
10005892:	6716      	str	r6, [r2, #112]	@ 0x70
10005894:	4662      	mov	r2, ip
10005896:	bdf0      	pop	{r4, r5, r6, r7, pc}

10005898 <__wrap___aeabi_uldivmod>:
10005898:	4694      	mov	ip, r2
1000589a:	4a3e      	ldr	r2, [pc, #248]	@ (10005994 <udiv0+0x1a>)
1000589c:	6f92      	ldr	r2, [r2, #120]	@ 0x78
1000589e:	0892      	lsrs	r2, r2, #2
100058a0:	4662      	mov	r2, ip
100058a2:	d201      	bcs.n	100058a8 <divmod_u64u64_savestate>
100058a4:	e054      	b.n	10005950 <divmod_u64u64_unsafe>
100058a6:	46c0      	nop			@ (mov r8, r8)

100058a8 <divmod_u64u64_savestate>:
100058a8:	b5f0      	push	{r4, r5, r6, r7, lr}
100058aa:	4e3a      	ldr	r6, [pc, #232]	@ (10005994 <udiv0+0x1a>)
100058ac:	6e34      	ldr	r4, [r6, #96]	@ 0x60
100058ae:	6e75      	ldr	r5, [r6, #100]	@ 0x64
100058b0:	6f77      	ldr	r7, [r6, #116]	@ 0x74
100058b2:	6f36      	ldr	r6, [r6, #112]	@ 0x70
100058b4:	f000 f84c 	bl	10005950 <divmod_u64u64_unsafe>
100058b8:	4694      	mov	ip, r2
100058ba:	4a36      	ldr	r2, [pc, #216]	@ (10005994 <udiv0+0x1a>)
100058bc:	6614      	str	r4, [r2, #96]	@ 0x60
100058be:	6655      	str	r5, [r2, #100]	@ 0x64
100058c0:	6757      	str	r7, [r2, #116]	@ 0x74
100058c2:	6716      	str	r6, [r2, #112]	@ 0x70
100058c4:	4662      	mov	r2, ip
100058c6:	bdf0      	pop	{r4, r5, r6, r7, pc}

100058c8 <divmod_s64s64_unsafe>:
100058c8:	2b00      	cmp	r3, #0
100058ca:	db24      	blt.n	10005916 <l42_1+0x26>
100058cc:	d011      	beq.n	100058f2 <l42_1+0x2>
100058ce:	2900      	cmp	r1, #0
100058d0:	da3e      	bge.n	10005950 <divmod_u64u64_unsafe>
100058d2:	b500      	push	{lr}
100058d4:	43c9      	mvns	r1, r1
100058d6:	4240      	negs	r0, r0
100058d8:	d100      	bne.n	100058dc <l40_1>
100058da:	3101      	adds	r1, #1

100058dc <l40_1>:
100058dc:	f000 f838 	bl	10005950 <divmod_u64u64_unsafe>
100058e0:	43c9      	mvns	r1, r1
100058e2:	4240      	negs	r0, r0
100058e4:	d100      	bne.n	100058e8 <l41_1>
100058e6:	3101      	adds	r1, #1

100058e8 <l41_1>:
100058e8:	43db      	mvns	r3, r3
100058ea:	4252      	negs	r2, r2
100058ec:	d100      	bne.n	100058f0 <l42_1>
100058ee:	3301      	adds	r3, #1

100058f0 <l42_1>:
100058f0:	bd00      	pop	{pc}
100058f2:	2a00      	cmp	r2, #0
100058f4:	d1eb      	bne.n	100058ce <divmod_s64s64_unsafe+0x6>
100058f6:	2800      	cmp	r0, #0
100058f8:	d101      	bne.n	100058fe <l42_1+0xe>
100058fa:	2900      	cmp	r1, #0
100058fc:	d005      	beq.n	1000590a <l42_1+0x1a>
100058fe:	2000      	movs	r0, #0
10005900:	0fc9      	lsrs	r1, r1, #31
10005902:	07c9      	lsls	r1, r1, #31
10005904:	d101      	bne.n	1000590a <l42_1+0x1a>
10005906:	43c0      	mvns	r0, r0
10005908:	0841      	lsrs	r1, r0, #1
1000590a:	b500      	push	{lr}
1000590c:	f003 fd2c 	bl	10009368 <____aeabi_ldiv0_veneer>
10005910:	2200      	movs	r2, #0
10005912:	2300      	movs	r3, #0
10005914:	bd00      	pop	{pc}
10005916:	b500      	push	{lr}
10005918:	2900      	cmp	r1, #0
1000591a:	db0a      	blt.n	10005932 <l44_1+0x2>
1000591c:	43db      	mvns	r3, r3
1000591e:	4252      	negs	r2, r2
10005920:	d100      	bne.n	10005924 <l43_1>
10005922:	3301      	adds	r3, #1

10005924 <l43_1>:
10005924:	f000 f814 	bl	10005950 <divmod_u64u64_unsafe>
10005928:	43c9      	mvns	r1, r1
1000592a:	4240      	negs	r0, r0
1000592c:	d100      	bne.n	10005930 <l44_1>
1000592e:	3101      	adds	r1, #1

10005930 <l44_1>:
10005930:	bd00      	pop	{pc}
10005932:	43c9      	mvns	r1, r1
10005934:	4240      	negs	r0, r0
10005936:	d100      	bne.n	1000593a <l45_1>
10005938:	3101      	adds	r1, #1

1000593a <l45_1>:
1000593a:	43db      	mvns	r3, r3
1000593c:	4252      	negs	r2, r2
1000593e:	d100      	bne.n	10005942 <l46_1>
10005940:	3301      	adds	r3, #1

10005942 <l46_1>:
10005942:	f000 f805 	bl	10005950 <divmod_u64u64_unsafe>
10005946:	43db      	mvns	r3, r3
10005948:	4252      	negs	r2, r2
1000594a:	d100      	bne.n	1000594e <l47_1>
1000594c:	3301      	adds	r3, #1

1000594e <l47_1>:
1000594e:	bd00      	pop	{pc}

10005950 <divmod_u64u64_unsafe>:
10005950:	2900      	cmp	r1, #0
10005952:	d123      	bne.n	1000599c <y64>
10005954:	2b00      	cmp	r3, #0
10005956:	d118      	bne.n	1000598a <udiv0+0x10>
10005958:	2a00      	cmp	r2, #0
1000595a:	d00c      	beq.n	10005976 <divmod_u64u64_unsafe+0x26>
1000595c:	46bc      	mov	ip, r7
1000595e:	4f0d      	ldr	r7, [pc, #52]	@ (10005994 <udiv0+0x1a>)
10005960:	6638      	str	r0, [r7, #96]	@ 0x60
10005962:	667a      	str	r2, [r7, #100]	@ 0x64
10005964:	2100      	movs	r1, #0
10005966:	2300      	movs	r3, #0
10005968:	e7ff      	b.n	1000596a <divmod_u64u64_unsafe+0x1a>
1000596a:	e7ff      	b.n	1000596c <divmod_u64u64_unsafe+0x1c>
1000596c:	e7ff      	b.n	1000596e <divmod_u64u64_unsafe+0x1e>
1000596e:	6f7a      	ldr	r2, [r7, #116]	@ 0x74
10005970:	6f38      	ldr	r0, [r7, #112]	@ 0x70
10005972:	4667      	mov	r7, ip
10005974:	4770      	bx	lr
10005976:	2800      	cmp	r0, #0
10005978:	d001      	beq.n	1000597e <udiv0+0x4>

1000597a <udiv0>:
1000597a:	4807      	ldr	r0, [pc, #28]	@ (10005998 <udiv0+0x1e>)
1000597c:	0001      	movs	r1, r0
1000597e:	b500      	push	{lr}
10005980:	f003 fcf2 	bl	10009368 <____aeabi_ldiv0_veneer>
10005984:	2200      	movs	r2, #0
10005986:	2300      	movs	r3, #0
10005988:	bd00      	pop	{pc}
1000598a:	0002      	movs	r2, r0
1000598c:	000b      	movs	r3, r1
1000598e:	2000      	movs	r0, #0
10005990:	2100      	movs	r1, #0
10005992:	4770      	bx	lr
10005994:	d0000000 	.word	0xd0000000
10005998:	ffffffff 	.word	0xffffffff

1000599c <y64>:
1000599c:	2b00      	cmp	r3, #0
1000599e:	d000      	beq.n	100059a2 <y64+0x6>
100059a0:	e0bf      	b.n	10005b22 <y64_x48>
100059a2:	0c13      	lsrs	r3, r2, #16
100059a4:	d128      	bne.n	100059f8 <y64_x32>
100059a6:	2a00      	cmp	r2, #0
100059a8:	d0e7      	beq.n	1000597a <udiv0>
100059aa:	b480      	push	{r7}
100059ac:	4f11      	ldr	r7, [pc, #68]	@ (100059f4 <y64+0x58>)
100059ae:	6639      	str	r1, [r7, #96]	@ 0x60
100059b0:	667a      	str	r2, [r7, #100]	@ 0x64
100059b2:	e7ff      	b.n	100059b4 <y64+0x18>
100059b4:	e7ff      	b.n	100059b6 <y64+0x1a>
100059b6:	b430      	push	{r4, r5}
100059b8:	0c04      	lsrs	r4, r0, #16
100059ba:	6f7b      	ldr	r3, [r7, #116]	@ 0x74
100059bc:	6f39      	ldr	r1, [r7, #112]	@ 0x70
100059be:	041b      	lsls	r3, r3, #16
100059c0:	4323      	orrs	r3, r4
100059c2:	663b      	str	r3, [r7, #96]	@ 0x60
100059c4:	667a      	str	r2, [r7, #100]	@ 0x64
100059c6:	e7ff      	b.n	100059c8 <y64+0x2c>
100059c8:	e7ff      	b.n	100059ca <y64+0x2e>
100059ca:	e7ff      	b.n	100059cc <y64+0x30>
100059cc:	46c0      	nop			@ (mov r8, r8)
100059ce:	b284      	uxth	r4, r0
100059d0:	6f7b      	ldr	r3, [r7, #116]	@ 0x74
100059d2:	6f3d      	ldr	r5, [r7, #112]	@ 0x70
100059d4:	041b      	lsls	r3, r3, #16
100059d6:	4323      	orrs	r3, r4
100059d8:	663b      	str	r3, [r7, #96]	@ 0x60
100059da:	667a      	str	r2, [r7, #100]	@ 0x64
100059dc:	e7ff      	b.n	100059de <y64+0x42>
100059de:	e7ff      	b.n	100059e0 <y64+0x44>
100059e0:	46c0      	nop			@ (mov r8, r8)
100059e2:	2300      	movs	r3, #0
100059e4:	042c      	lsls	r4, r5, #16
100059e6:	0c2d      	lsrs	r5, r5, #16
100059e8:	6f7a      	ldr	r2, [r7, #116]	@ 0x74
100059ea:	6f38      	ldr	r0, [r7, #112]	@ 0x70
100059ec:	1900      	adds	r0, r0, r4
100059ee:	4169      	adcs	r1, r5
100059f0:	bcb0      	pop	{r4, r5, r7}
100059f2:	4770      	bx	lr
100059f4:	d0000000 	.word	0xd0000000

100059f8 <y64_x32>:
100059f8:	b5f0      	push	{r4, r5, r6, r7, lr}
100059fa:	4694      	mov	ip, r2
100059fc:	2500      	movs	r5, #0
100059fe:	0e14      	lsrs	r4, r2, #24
10005a00:	d101      	bne.n	10005a06 <y64_x32+0xe>
10005a02:	0212      	lsls	r2, r2, #8
10005a04:	3508      	adds	r5, #8
10005a06:	0f14      	lsrs	r4, r2, #28
10005a08:	d101      	bne.n	10005a0e <y64_x32+0x16>
10005a0a:	0112      	lsls	r2, r2, #4
10005a0c:	3504      	adds	r5, #4
10005a0e:	0f94      	lsrs	r4, r2, #30
10005a10:	d101      	bne.n	10005a16 <y64_x32+0x1e>
10005a12:	0092      	lsls	r2, r2, #2
10005a14:	3502      	adds	r5, #2
10005a16:	0fd4      	lsrs	r4, r2, #31
10005a18:	d101      	bne.n	10005a1e <y64_x32+0x26>
10005a1a:	0052      	lsls	r2, r2, #1
10005a1c:	3501      	adds	r5, #1
10005a1e:	0bd4      	lsrs	r4, r2, #15
10005a20:	3401      	adds	r4, #1
10005a22:	4f25      	ldr	r7, [pc, #148]	@ (10005ab8 <y64_x32+0xc0>)
10005a24:	667c      	str	r4, [r7, #100]	@ 0x64
10005a26:	4c25      	ldr	r4, [pc, #148]	@ (10005abc <y64_x32+0xc4>)
10005a28:	663c      	str	r4, [r7, #96]	@ 0x60
10005a2a:	0c0e      	lsrs	r6, r1, #16
10005a2c:	b293      	uxth	r3, r2
10005a2e:	e7ff      	b.n	10005a30 <y64_x32+0x38>
10005a30:	e7ff      	b.n	10005a32 <y64_x32+0x3a>
10005a32:	e7ff      	b.n	10005a34 <y64_x32+0x3c>
10005a34:	6f3c      	ldr	r4, [r7, #112]	@ 0x70
10005a36:	4366      	muls	r6, r4
10005a38:	0c36      	lsrs	r6, r6, #16
10005a3a:	0377      	lsls	r7, r6, #13
10005a3c:	46be      	mov	lr, r7
10005a3e:	4373      	muls	r3, r6
10005a40:	0bdf      	lsrs	r7, r3, #15
10005a42:	045b      	lsls	r3, r3, #17
10005a44:	1ac0      	subs	r0, r0, r3
10005a46:	41b9      	sbcs	r1, r7
10005a48:	0c13      	lsrs	r3, r2, #16
10005a4a:	4373      	muls	r3, r6
10005a4c:	18db      	adds	r3, r3, r3
10005a4e:	1ac9      	subs	r1, r1, r3
10005a50:	08ce      	lsrs	r6, r1, #3
10005a52:	4366      	muls	r6, r4
10005a54:	0c36      	lsrs	r6, r6, #16
10005a56:	44b6      	add	lr, r6
10005a58:	b293      	uxth	r3, r2
10005a5a:	4373      	muls	r3, r6
10005a5c:	0f1f      	lsrs	r7, r3, #28
10005a5e:	011b      	lsls	r3, r3, #4
10005a60:	1ac0      	subs	r0, r0, r3
10005a62:	41b9      	sbcs	r1, r7
10005a64:	0c13      	lsrs	r3, r2, #16
10005a66:	4373      	muls	r3, r6
10005a68:	0b1f      	lsrs	r7, r3, #12
10005a6a:	051b      	lsls	r3, r3, #20
10005a6c:	1ac0      	subs	r0, r0, r3
10005a6e:	41b9      	sbcs	r1, r7
10005a70:	0d86      	lsrs	r6, r0, #22
10005a72:	028f      	lsls	r7, r1, #10
10005a74:	433e      	orrs	r6, r7
10005a76:	4366      	muls	r6, r4
10005a78:	0c36      	lsrs	r6, r6, #16
10005a7a:	2d09      	cmp	r5, #9
10005a7c:	db24      	blt.n	10005ac8 <last0>
10005a7e:	0a52      	lsrs	r2, r2, #9
10005a80:	4372      	muls	r2, r6
10005a82:	1a80      	subs	r0, r0, r2
10005a84:	0377      	lsls	r7, r6, #13
10005a86:	0a46      	lsrs	r6, r0, #9
10005a88:	4366      	muls	r6, r4
10005a8a:	0c36      	lsrs	r6, r6, #16
10005a8c:	2316      	movs	r3, #22
10005a8e:	1b5b      	subs	r3, r3, r5
10005a90:	40de      	lsrs	r6, r3
10005a92:	40df      	lsrs	r7, r3
10005a94:	19bf      	adds	r7, r7, r6
10005a96:	4664      	mov	r4, ip
10005a98:	4366      	muls	r6, r4
10005a9a:	1b82      	subs	r2, r0, r6
10005a9c:	4670      	mov	r0, lr
10005a9e:	3504      	adds	r5, #4
10005aa0:	3306      	adds	r3, #6
10005aa2:	0001      	movs	r1, r0
10005aa4:	40d9      	lsrs	r1, r3
10005aa6:	40a8      	lsls	r0, r5
10005aa8:	19c0      	adds	r0, r0, r7
10005aaa:	d300      	bcc.n	10005aae <y64_x32+0xb6>
10005aac:	3101      	adds	r1, #1
10005aae:	42a2      	cmp	r2, r4
10005ab0:	d206      	bcs.n	10005ac0 <y64_x32+0xc8>
10005ab2:	2300      	movs	r3, #0
10005ab4:	bdf0      	pop	{r4, r5, r6, r7, pc}
10005ab6:	0000      	.short	0x0000
10005ab8:	d0000000 	.word	0xd0000000
10005abc:	ffffffff 	.word	0xffffffff
10005ac0:	1b12      	subs	r2, r2, r4
10005ac2:	3001      	adds	r0, #1
10005ac4:	d3f3      	bcc.n	10005aae <y64_x32+0xb6>
10005ac6:	e7f1      	b.n	10005aac <y64_x32+0xb4>

10005ac8 <last0>:
10005ac8:	2709      	movs	r7, #9
10005aca:	1b7f      	subs	r7, r7, r5
10005acc:	40fe      	lsrs	r6, r7
10005ace:	4664      	mov	r4, ip
10005ad0:	b2a2      	uxth	r2, r4
10005ad2:	4372      	muls	r2, r6
10005ad4:	1a80      	subs	r0, r0, r2
10005ad6:	d200      	bcs.n	10005ada <last0+0x12>
10005ad8:	3901      	subs	r1, #1
10005ada:	0c22      	lsrs	r2, r4, #16
10005adc:	4372      	muls	r2, r6
10005ade:	0c13      	lsrs	r3, r2, #16
10005ae0:	0412      	lsls	r2, r2, #16
10005ae2:	1a82      	subs	r2, r0, r2
10005ae4:	4199      	sbcs	r1, r3
10005ae6:	000b      	movs	r3, r1
10005ae8:	4670      	mov	r0, lr
10005aea:	3504      	adds	r5, #4
10005aec:	3713      	adds	r7, #19
10005aee:	0001      	movs	r1, r0
10005af0:	40f9      	lsrs	r1, r7
10005af2:	40a8      	lsls	r0, r5
10005af4:	1980      	adds	r0, r0, r6
10005af6:	d300      	bcc.n	10005afa <last0+0x32>
10005af8:	3101      	adds	r1, #1
10005afa:	2b00      	cmp	r3, #0
10005afc:	d102      	bne.n	10005b04 <last0+0x3c>
10005afe:	42a2      	cmp	r2, r4
10005b00:	d20a      	bcs.n	10005b18 <last0+0x50>
10005b02:	bdf0      	pop	{r4, r5, r6, r7, pc}
10005b04:	3001      	adds	r0, #1
10005b06:	d300      	bcc.n	10005b0a <last0+0x42>
10005b08:	3101      	adds	r1, #1
10005b0a:	1b12      	subs	r2, r2, r4
10005b0c:	d2fa      	bcs.n	10005b04 <last0+0x3c>
10005b0e:	3b01      	subs	r3, #1
10005b10:	d1f8      	bne.n	10005b04 <last0+0x3c>
10005b12:	42a2      	cmp	r2, r4
10005b14:	d200      	bcs.n	10005b18 <last0+0x50>
10005b16:	bdf0      	pop	{r4, r5, r6, r7, pc}
10005b18:	3001      	adds	r0, #1
10005b1a:	d300      	bcc.n	10005b1e <last0+0x56>
10005b1c:	3101      	adds	r1, #1
10005b1e:	1b12      	subs	r2, r2, r4
10005b20:	e7f7      	b.n	10005b12 <last0+0x4a>

10005b22 <y64_x48>:
10005b22:	b5f0      	push	{r4, r5, r6, r7, lr}
10005b24:	0c1c      	lsrs	r4, r3, #16
10005b26:	d000      	beq.n	10005b2a <y64_x48+0x8>
10005b28:	e080      	b.n	10005c2c <y64_x64>
10005b2a:	b40c      	push	{r2, r3}
10005b2c:	2500      	movs	r5, #0
10005b2e:	0a1c      	lsrs	r4, r3, #8
10005b30:	d104      	bne.n	10005b3c <y64_x48+0x1a>
10005b32:	021b      	lsls	r3, r3, #8
10005b34:	0e16      	lsrs	r6, r2, #24
10005b36:	4333      	orrs	r3, r6
10005b38:	0212      	lsls	r2, r2, #8
10005b3a:	3508      	adds	r5, #8
10005b3c:	0b1c      	lsrs	r4, r3, #12
10005b3e:	d104      	bne.n	10005b4a <y64_x48+0x28>
10005b40:	011b      	lsls	r3, r3, #4
10005b42:	0f16      	lsrs	r6, r2, #28
10005b44:	4333      	orrs	r3, r6
10005b46:	0112      	lsls	r2, r2, #4
10005b48:	3504      	adds	r5, #4
10005b4a:	0b9c      	lsrs	r4, r3, #14
10005b4c:	d104      	bne.n	10005b58 <y64_x48+0x36>
10005b4e:	009b      	lsls	r3, r3, #2
10005b50:	0f96      	lsrs	r6, r2, #30
10005b52:	4333      	orrs	r3, r6
10005b54:	0092      	lsls	r2, r2, #2
10005b56:	3502      	adds	r5, #2
10005b58:	0bdc      	lsrs	r4, r3, #15
10005b5a:	d102      	bne.n	10005b62 <y64_x48+0x40>
10005b5c:	1892      	adds	r2, r2, r2
10005b5e:	415b      	adcs	r3, r3
10005b60:	3501      	adds	r5, #1
10005b62:	001c      	movs	r4, r3
10005b64:	1897      	adds	r7, r2, r2
10005b66:	4164      	adcs	r4, r4
10005b68:	3401      	adds	r4, #1
10005b6a:	4f46      	ldr	r7, [pc, #280]	@ (10005c84 <y64_x64+0x58>)
10005b6c:	667c      	str	r4, [r7, #100]	@ 0x64
10005b6e:	4c46      	ldr	r4, [pc, #280]	@ (10005c88 <y64_x64+0x5c>)
10005b70:	663c      	str	r4, [r7, #96]	@ 0x60
10005b72:	0c0e      	lsrs	r6, r1, #16
10005b74:	e7ff      	b.n	10005b76 <y64_x48+0x54>
10005b76:	e7ff      	b.n	10005b78 <y64_x48+0x56>
10005b78:	e7ff      	b.n	10005b7a <y64_x48+0x58>
10005b7a:	46c0      	nop			@ (mov r8, r8)
10005b7c:	6f3c      	ldr	r4, [r7, #112]	@ 0x70
10005b7e:	4366      	muls	r6, r4
10005b80:	0c36      	lsrs	r6, r6, #16
10005b82:	0377      	lsls	r7, r6, #13
10005b84:	46be      	mov	lr, r7
10005b86:	b297      	uxth	r7, r2
10005b88:	4377      	muls	r7, r6
10005b8a:	1bc0      	subs	r0, r0, r7
10005b8c:	d200      	bcs.n	10005b90 <y64_x48+0x6e>
10005b8e:	3901      	subs	r1, #1
10005b90:	1bc0      	subs	r0, r0, r7
10005b92:	d200      	bcs.n	10005b96 <y64_x48+0x74>
10005b94:	3901      	subs	r1, #1
10005b96:	b29f      	uxth	r7, r3
10005b98:	4377      	muls	r7, r6
10005b9a:	1bc9      	subs	r1, r1, r7
10005b9c:	1bc9      	subs	r1, r1, r7
10005b9e:	0c17      	lsrs	r7, r2, #16
10005ba0:	4377      	muls	r7, r6
10005ba2:	047e      	lsls	r6, r7, #17
10005ba4:	0bff      	lsrs	r7, r7, #15
10005ba6:	1b80      	subs	r0, r0, r6
10005ba8:	41b9      	sbcs	r1, r7
10005baa:	08ce      	lsrs	r6, r1, #3
10005bac:	4366      	muls	r6, r4
10005bae:	0c36      	lsrs	r6, r6, #16
10005bb0:	2d0c      	cmp	r5, #12
10005bb2:	db33      	blt.n	10005c1c <last1>
10005bb4:	44b6      	add	lr, r6
10005bb6:	0b12      	lsrs	r2, r2, #12
10005bb8:	051f      	lsls	r7, r3, #20
10005bba:	433a      	orrs	r2, r7
10005bbc:	0b1b      	lsrs	r3, r3, #12
10005bbe:	b297      	uxth	r7, r2
10005bc0:	4377      	muls	r7, r6
10005bc2:	1bc0      	subs	r0, r0, r7
10005bc4:	d200      	bcs.n	10005bc8 <y64_x48+0xa6>
10005bc6:	3901      	subs	r1, #1
10005bc8:	b29f      	uxth	r7, r3
10005bca:	4377      	muls	r7, r6
10005bcc:	1bc9      	subs	r1, r1, r7
10005bce:	0c17      	lsrs	r7, r2, #16
10005bd0:	4377      	muls	r7, r6
10005bd2:	043e      	lsls	r6, r7, #16
10005bd4:	0c3f      	lsrs	r7, r7, #16
10005bd6:	1b80      	subs	r0, r0, r6
10005bd8:	41b9      	sbcs	r1, r7
10005bda:	0d86      	lsrs	r6, r0, #22
10005bdc:	028f      	lsls	r7, r1, #10
10005bde:	433e      	orrs	r6, r7
10005be0:	4366      	muls	r6, r4
10005be2:	2729      	movs	r7, #41	@ 0x29
10005be4:	1b7f      	subs	r7, r7, r5
10005be6:	40fe      	lsrs	r6, r7
10005be8:	3d0c      	subs	r5, #12
10005bea:	4677      	mov	r7, lr
10005bec:	40af      	lsls	r7, r5
10005bee:	19bf      	adds	r7, r7, r6
10005bf0:	bc30      	pop	{r4, r5}
10005bf2:	b2a2      	uxth	r2, r4
10005bf4:	b2ab      	uxth	r3, r5
10005bf6:	4372      	muls	r2, r6
10005bf8:	4373      	muls	r3, r6
10005bfa:	1a80      	subs	r0, r0, r2
10005bfc:	4199      	sbcs	r1, r3
10005bfe:	0c22      	lsrs	r2, r4, #16
10005c00:	4372      	muls	r2, r6
10005c02:	0c13      	lsrs	r3, r2, #16
10005c04:	0412      	lsls	r2, r2, #16
10005c06:	1a80      	subs	r0, r0, r2
10005c08:	4199      	sbcs	r1, r3
10005c0a:	0002      	movs	r2, r0
10005c0c:	000b      	movs	r3, r1
10005c0e:	3701      	adds	r7, #1
10005c10:	1b00      	subs	r0, r0, r4
10005c12:	41a9      	sbcs	r1, r5
10005c14:	d2f9      	bcs.n	10005c0a <y64_x48+0xe8>
10005c16:	1e78      	subs	r0, r7, #1
10005c18:	2100      	movs	r1, #0
10005c1a:	bdf0      	pop	{r4, r5, r6, r7, pc}

10005c1c <last1>:
10005c1c:	270c      	movs	r7, #12
10005c1e:	1b7f      	subs	r7, r7, r5
10005c20:	40fe      	lsrs	r6, r7
10005c22:	4677      	mov	r7, lr
10005c24:	0b7f      	lsrs	r7, r7, #13
10005c26:	40af      	lsls	r7, r5
10005c28:	19ff      	adds	r7, r7, r7
10005c2a:	e7e0      	b.n	10005bee <y64_x48+0xcc>

10005c2c <y64_x64>:
10005c2c:	2400      	movs	r4, #0
10005c2e:	1c5d      	adds	r5, r3, #1
10005c30:	d007      	beq.n	10005c42 <y64_x64+0x16>
10005c32:	4f14      	ldr	r7, [pc, #80]	@ (10005c84 <y64_x64+0x58>)
10005c34:	667d      	str	r5, [r7, #100]	@ 0x64
10005c36:	6639      	str	r1, [r7, #96]	@ 0x60
10005c38:	e7ff      	b.n	10005c3a <y64_x64+0xe>
10005c3a:	e7ff      	b.n	10005c3c <y64_x64+0x10>
10005c3c:	e7ff      	b.n	10005c3e <y64_x64+0x12>
10005c3e:	e7ff      	b.n	10005c40 <y64_x64+0x14>
10005c40:	6f3c      	ldr	r4, [r7, #112]	@ 0x70
10005c42:	b295      	uxth	r5, r2
10005c44:	b29e      	uxth	r6, r3
10005c46:	4365      	muls	r5, r4
10005c48:	4366      	muls	r6, r4
10005c4a:	1b40      	subs	r0, r0, r5
10005c4c:	41b1      	sbcs	r1, r6
10005c4e:	0c15      	lsrs	r5, r2, #16
10005c50:	0c1e      	lsrs	r6, r3, #16
10005c52:	4365      	muls	r5, r4
10005c54:	4366      	muls	r6, r4
10005c56:	0436      	lsls	r6, r6, #16
10005c58:	0c2f      	lsrs	r7, r5, #16
10005c5a:	433e      	orrs	r6, r7
10005c5c:	042d      	lsls	r5, r5, #16
10005c5e:	1b40      	subs	r0, r0, r5
10005c60:	41b1      	sbcs	r1, r6
10005c62:	4299      	cmp	r1, r3
10005c64:	d204      	bcs.n	10005c70 <y64_x64+0x44>
10005c66:	0002      	movs	r2, r0
10005c68:	000b      	movs	r3, r1
10005c6a:	0020      	movs	r0, r4
10005c6c:	2100      	movs	r1, #0
10005c6e:	bdf0      	pop	{r4, r5, r6, r7, pc}
10005c70:	d101      	bne.n	10005c76 <y64_x64+0x4a>
10005c72:	4290      	cmp	r0, r2
10005c74:	d3f7      	bcc.n	10005c66 <y64_x64+0x3a>
10005c76:	1a80      	subs	r0, r0, r2
10005c78:	4199      	sbcs	r1, r3
10005c7a:	3401      	adds	r4, #1
10005c7c:	4299      	cmp	r1, r3
10005c7e:	d3f2      	bcc.n	10005c66 <y64_x64+0x3a>
10005c80:	e7f6      	b.n	10005c70 <y64_x64+0x44>
10005c82:	0000      	.short	0x0000
10005c84:	d0000000 	.word	0xd0000000
10005c88:	ffffffff 	.word	0xffffffff

10005c8c <__wrap___aeabi_drsub>:
10005c8c:	4048      	eors	r0, r1
10005c8e:	4041      	eors	r1, r0
10005c90:	4048      	eors	r0, r1

10005c92 <__wrap___aeabi_dsub>:
10005c92:	b418      	push	{r3, r4}
10005c94:	4b1b      	ldr	r3, [pc, #108]	@ (10005d04 <__wrap___aeabi_dmul+0x12>)
10005c96:	685b      	ldr	r3, [r3, #4]
10005c98:	46fc      	mov	ip, pc
10005c9a:	9301      	str	r3, [sp, #4]
10005c9c:	bd08      	pop	{r3, pc}
10005c9e:	df04      	.short	0xdf04
10005ca0:	10005fbf 	.word	0x10005fbf

10005ca4 <__wrap___aeabi_dadd>:
10005ca4:	b418      	push	{r3, r4}
10005ca6:	4b17      	ldr	r3, [pc, #92]	@ (10005d04 <__wrap___aeabi_dmul+0x12>)
10005ca8:	681b      	ldr	r3, [r3, #0]
10005caa:	46fc      	mov	ip, pc
10005cac:	9301      	str	r3, [sp, #4]
10005cae:	bd08      	pop	{r3, pc}
10005cb0:	5fc9df00 	.word	0x5fc9df00
10005cb4:	1000      	.short	0x1000

10005cb6 <__wrap___aeabi_ddiv>:
10005cb6:	4694      	mov	ip, r2
10005cb8:	4a13      	ldr	r2, [pc, #76]	@ (10005d08 <__wrap___aeabi_dmul+0x16>)
10005cba:	6f92      	ldr	r2, [r2, #120]	@ 0x78
10005cbc:	0892      	lsrs	r2, r2, #2
10005cbe:	d209      	bcs.n	10005cd4 <ddiv_save_state>
10005cc0:	4662      	mov	r2, ip

10005cc2 <ddiv_shim_call>:
10005cc2:	b418      	push	{r3, r4}
10005cc4:	4b0f      	ldr	r3, [pc, #60]	@ (10005d04 <__wrap___aeabi_dmul+0x12>)
10005cc6:	68db      	ldr	r3, [r3, #12]
10005cc8:	46fc      	mov	ip, pc
10005cca:	9301      	str	r3, [sp, #4]
10005ccc:	bd08      	pop	{r3, pc}
10005cce:	df0c      	.short	0xdf0c
10005cd0:	10006281 	.word	0x10006281

10005cd4 <ddiv_save_state>:
10005cd4:	4a0c      	ldr	r2, [pc, #48]	@ (10005d08 <__wrap___aeabi_dmul+0x16>)
10005cd6:	b5f0      	push	{r4, r5, r6, r7, lr}
10005cd8:	6e14      	ldr	r4, [r2, #96]	@ 0x60
10005cda:	6e55      	ldr	r5, [r2, #100]	@ 0x64
10005cdc:	6f57      	ldr	r7, [r2, #116]	@ 0x74
10005cde:	6f16      	ldr	r6, [r2, #112]	@ 0x70
10005ce0:	4662      	mov	r2, ip
10005ce2:	f7ff ffee 	bl	10005cc2 <ddiv_shim_call>
10005ce6:	4a08      	ldr	r2, [pc, #32]	@ (10005d08 <__wrap___aeabi_dmul+0x16>)
10005ce8:	6614      	str	r4, [r2, #96]	@ 0x60
10005cea:	6655      	str	r5, [r2, #100]	@ 0x64
10005cec:	6757      	str	r7, [r2, #116]	@ 0x74
10005cee:	6716      	str	r6, [r2, #112]	@ 0x70
10005cf0:	bdf0      	pop	{r4, r5, r6, r7, pc}

10005cf2 <__wrap___aeabi_dmul>:
10005cf2:	b418      	push	{r3, r4}
10005cf4:	4b03      	ldr	r3, [pc, #12]	@ (10005d04 <__wrap___aeabi_dmul+0x12>)
10005cf6:	689b      	ldr	r3, [r3, #8]
10005cf8:	46fc      	mov	ip, pc
10005cfa:	9301      	str	r3, [sp, #4]
10005cfc:	bd08      	pop	{r3, pc}
10005cfe:	df08      	.short	0xdf08
10005d00:	10006125 	.word	0x10006125
10005d04:	2000079c 	.word	0x2000079c
10005d08:	d0000000 	.word	0xd0000000

10005d0c <__wrap___aeabi_cdrcmple>:
10005d0c:	b5ff      	push	{r0, r1, r2, r3, r4, r5, r6, r7, lr}
10005d0e:	4050      	eors	r0, r2
10005d10:	4042      	eors	r2, r0
10005d12:	4050      	eors	r0, r2
10005d14:	4059      	eors	r1, r3
10005d16:	404b      	eors	r3, r1
10005d18:	4059      	eors	r1, r3
10005d1a:	e000      	b.n	10005d1e <__aeabi_dfcmple_guts>

10005d1c <__wrap___aeabi_cdcmpeq>:
10005d1c:	b5ff      	push	{r0, r1, r2, r3, r4, r5, r6, r7, lr}

10005d1e <__aeabi_dfcmple_guts>:
10005d1e:	4f15      	ldr	r7, [pc, #84]	@ (10005d74 <__aeabi_dfcmple_guts+0x56>)
10005d20:	004c      	lsls	r4, r1, #1
10005d22:	0d64      	lsrs	r4, r4, #21
10005d24:	d003      	beq.n	10005d2e <__aeabi_dfcmple_guts+0x10>
10005d26:	42bc      	cmp	r4, r7
10005d28:	d104      	bne.n	10005d34 <__aeabi_dfcmple_guts+0x16>
10005d2a:	030c      	lsls	r4, r1, #12
10005d2c:	d814      	bhi.n	10005d58 <__aeabi_dfcmple_guts+0x3a>
10005d2e:	2000      	movs	r0, #0
10005d30:	0d09      	lsrs	r1, r1, #20
10005d32:	0509      	lsls	r1, r1, #20
10005d34:	005c      	lsls	r4, r3, #1
10005d36:	0d64      	lsrs	r4, r4, #21
10005d38:	d003      	beq.n	10005d42 <__aeabi_dfcmple_guts+0x24>
10005d3a:	42bc      	cmp	r4, r7
10005d3c:	d104      	bne.n	10005d48 <__aeabi_dfcmple_guts+0x2a>
10005d3e:	031c      	lsls	r4, r3, #12
10005d40:	d80a      	bhi.n	10005d58 <__aeabi_dfcmple_guts+0x3a>
10005d42:	2200      	movs	r2, #0
10005d44:	0d1b      	lsrs	r3, r3, #20
10005d46:	051b      	lsls	r3, r3, #20
10005d48:	2601      	movs	r6, #1
10005d4a:	404b      	eors	r3, r1
10005d4c:	d409      	bmi.n	10005d62 <__aeabi_dfcmple_guts+0x44>
10005d4e:	404b      	eors	r3, r1
10005d50:	d503      	bpl.n	10005d5a <__aeabi_dfcmple_guts+0x3c>
10005d52:	428b      	cmp	r3, r1
10005d54:	d100      	bne.n	10005d58 <__aeabi_dfcmple_guts+0x3a>
10005d56:	4282      	cmp	r2, r0
10005d58:	bdff      	pop	{r0, r1, r2, r3, r4, r5, r6, r7, pc}
10005d5a:	4299      	cmp	r1, r3
10005d5c:	d1fc      	bne.n	10005d58 <__aeabi_dfcmple_guts+0x3a>
10005d5e:	4290      	cmp	r0, r2
10005d60:	bdff      	pop	{r0, r1, r2, r3, r4, r5, r6, r7, pc}
10005d62:	430b      	orrs	r3, r1
10005d64:	18db      	adds	r3, r3, r3
10005d66:	4303      	orrs	r3, r0
10005d68:	4313      	orrs	r3, r2
10005d6a:	d0f5      	beq.n	10005d58 <__aeabi_dfcmple_guts+0x3a>
10005d6c:	43c9      	mvns	r1, r1
10005d6e:	1849      	adds	r1, r1, r1
10005d70:	bdff      	pop	{r0, r1, r2, r3, r4, r5, r6, r7, pc}
10005d72:	0000      	.short	0x0000
10005d74:	000007ff 	.word	0x000007ff

10005d78 <__wrap___aeabi_dcmplt>:
10005d78:	b500      	push	{lr}
10005d7a:	f7ff ffcf 	bl	10005d1c <__wrap___aeabi_cdcmpeq>
10005d7e:	4180      	sbcs	r0, r0
10005d80:	bd00      	pop	{pc}
10005d82:	46c0      	nop			@ (mov r8, r8)

10005d84 <__wrap___aeabi_dcmpge>:
10005d84:	b500      	push	{lr}
10005d86:	f7ff ffc1 	bl	10005d0c <__wrap___aeabi_cdrcmple>
10005d8a:	d901      	bls.n	10005d90 <__wrap___aeabi_dcmpge+0xc>
10005d8c:	2000      	movs	r0, #0
10005d8e:	bd00      	pop	{pc}
10005d90:	2001      	movs	r0, #1
10005d92:	bd00      	pop	{pc}

10005d94 <__wrap___aeabi_dcmpgt>:
10005d94:	b500      	push	{lr}
10005d96:	f7ff ffb9 	bl	10005d0c <__wrap___aeabi_cdrcmple>
10005d9a:	4180      	sbcs	r0, r0
10005d9c:	bd00      	pop	{pc}

10005d9e <__wrap___aeabi_dcmpun>:
10005d9e:	2001      	movs	r0, #1
10005da0:	0540      	lsls	r0, r0, #21
10005da2:	004a      	lsls	r2, r1, #1
10005da4:	1812      	adds	r2, r2, r0
10005da6:	d804      	bhi.n	10005db2 <__wrap___aeabi_dcmpun+0x14>
10005da8:	005a      	lsls	r2, r3, #1
10005daa:	1812      	adds	r2, r2, r0
10005dac:	d801      	bhi.n	10005db2 <__wrap___aeabi_dcmpun+0x14>
10005dae:	2000      	movs	r0, #0
10005db0:	4770      	bx	lr
10005db2:	2001      	movs	r0, #1
10005db4:	4770      	bx	lr
10005db6:	2000      	movs	r0, #0
10005db8:	4770      	bx	lr
	...

10005dbc <__wrap___aeabi_ui2d>:
10005dbc:	2100      	movs	r1, #0
10005dbe:	2800      	cmp	r0, #0
10005dc0:	d105      	bne.n	10005dce <__wrap___aeabi_i2d+0xa>
10005dc2:	4770      	bx	lr

10005dc4 <__wrap___aeabi_i2d>:
10005dc4:	17c1      	asrs	r1, r0, #31
10005dc6:	4048      	eors	r0, r1
10005dc8:	1a40      	subs	r0, r0, r1
10005dca:	d0fa      	beq.n	10005dc2 <__wrap___aeabi_ui2d+0x6>
10005dcc:	07c9      	lsls	r1, r1, #31
10005dce:	b513      	push	{r0, r1, r4, lr}
10005dd0:	4b06      	ldr	r3, [pc, #24]	@ (10005dec <__wrap___aeabi_i2d+0x28>)
10005dd2:	681b      	ldr	r3, [r3, #0]
10005dd4:	4798      	blx	r3
10005dd6:	bc0c      	pop	{r2, r3}
10005dd8:	1c44      	adds	r4, r0, #1
10005dda:	40a2      	lsls	r2, r4
10005ddc:	0510      	lsls	r0, r2, #20
10005dde:	0b12      	lsrs	r2, r2, #12
10005de0:	4903      	ldr	r1, [pc, #12]	@ (10005df0 <__wrap___aeabi_i2d+0x2c>)
10005de2:	1b09      	subs	r1, r1, r4
10005de4:	0509      	lsls	r1, r1, #20
10005de6:	4319      	orrs	r1, r3
10005de8:	4311      	orrs	r1, r2
10005dea:	bd10      	pop	{r4, pc}
10005dec:	2000089c 	.word	0x2000089c
10005df0:	0000041f 	.word	0x0000041f

10005df4 <__wrap___aeabi_d2iz>:
10005df4:	b510      	push	{r4, lr}
10005df6:	004c      	lsls	r4, r1, #1
10005df8:	0d62      	lsrs	r2, r4, #21
10005dfa:	2380      	movs	r3, #128	@ 0x80
10005dfc:	18d2      	adds	r2, r2, r3
10005dfe:	00db      	lsls	r3, r3, #3
10005e00:	1ad2      	subs	r2, r2, r3
10005e02:	055b      	lsls	r3, r3, #21
10005e04:	2a7e      	cmp	r2, #126	@ 0x7e
10005e06:	dd10      	ble.n	10005e2a <__wrap___aeabi_d2iz+0x36>
10005e08:	3a9e      	subs	r2, #158	@ 0x9e
10005e0a:	da13      	bge.n	10005e34 <__wrap___aeabi_d2iz+0x40>
10005e0c:	17cc      	asrs	r4, r1, #31
10005e0e:	0309      	lsls	r1, r1, #12
10005e10:	0849      	lsrs	r1, r1, #1
10005e12:	4319      	orrs	r1, r3
10005e14:	4252      	negs	r2, r2
10005e16:	40d1      	lsrs	r1, r2
10005e18:	0064      	lsls	r4, r4, #1
10005e1a:	3401      	adds	r4, #1
10005e1c:	3215      	adds	r2, #21
10005e1e:	2a20      	cmp	r2, #32
10005e20:	da05      	bge.n	10005e2e <__wrap___aeabi_d2iz+0x3a>
10005e22:	40d0      	lsrs	r0, r2
10005e24:	4308      	orrs	r0, r1
10005e26:	4360      	muls	r0, r4
10005e28:	bd10      	pop	{r4, pc}
10005e2a:	2000      	movs	r0, #0
10005e2c:	bd10      	pop	{r4, pc}
10005e2e:	4608      	mov	r0, r1
10005e30:	4360      	muls	r0, r4
10005e32:	bd10      	pop	{r4, pc}
10005e34:	0fc8      	lsrs	r0, r1, #31
10005e36:	18c0      	adds	r0, r0, r3
10005e38:	3801      	subs	r0, #1
10005e3a:	bd10      	pop	{r4, pc}

10005e3c <__wrap___aeabi_d2uiz>:
10005e3c:	b418      	push	{r3, r4}
10005e3e:	4b04      	ldr	r3, [pc, #16]	@ (10005e50 <__wrap___aeabi_d2uiz+0x14>)
10005e40:	6a5b      	ldr	r3, [r3, #36]	@ 0x24
10005e42:	46fc      	mov	ip, pc
10005e44:	9301      	str	r3, [sp, #4]
10005e46:	bd08      	pop	{r3, pc}
10005e48:	6431df24 	.word	0x6431df24
10005e4c:	00001000 	.word	0x00001000
10005e50:	2000079c 	.word	0x2000079c

10005e54 <rp2040_rom_version>:
10005e54:	b580      	push	{r7, lr}
10005e56:	af00      	add	r7, sp, #0
10005e58:	2313      	movs	r3, #19
10005e5a:	781b      	ldrb	r3, [r3, #0]
10005e5c:	0018      	movs	r0, r3
10005e5e:	46bd      	mov	sp, r7
10005e60:	bd80      	pop	{r7, pc}

10005e62 <rom_table_code>:
10005e62:	b580      	push	{r7, lr}
10005e64:	b082      	sub	sp, #8
10005e66:	af00      	add	r7, sp, #0
10005e68:	0002      	movs	r2, r0
10005e6a:	1dfb      	adds	r3, r7, #7
10005e6c:	701a      	strb	r2, [r3, #0]
10005e6e:	1dbb      	adds	r3, r7, #6
10005e70:	1c0a      	adds	r2, r1, #0
10005e72:	701a      	strb	r2, [r3, #0]
10005e74:	1dfb      	adds	r3, r7, #7
10005e76:	781a      	ldrb	r2, [r3, #0]
10005e78:	1dbb      	adds	r3, r7, #6
10005e7a:	781b      	ldrb	r3, [r3, #0]
10005e7c:	021b      	lsls	r3, r3, #8
10005e7e:	4313      	orrs	r3, r2
10005e80:	0018      	movs	r0, r3
10005e82:	46bd      	mov	sp, r7
10005e84:	b002      	add	sp, #8
10005e86:	bd80      	pop	{r7, pc}

10005e88 <__aeabi_double_init>:
10005e88:	b580      	push	{r7, lr}
10005e8a:	b084      	sub	sp, #16
10005e8c:	af00      	add	r7, sp, #0
10005e8e:	f7ff ffe1 	bl	10005e54 <rp2040_rom_version>
10005e92:	0003      	movs	r3, r0
10005e94:	60bb      	str	r3, [r7, #8]
10005e96:	68bb      	ldr	r3, [r7, #8]
10005e98:	2b01      	cmp	r3, #1
10005e9a:	d10d      	bne.n	10005eb8 <__aeabi_double_init+0x30>
10005e9c:	2300      	movs	r3, #0
10005e9e:	60fb      	str	r3, [r7, #12]
10005ea0:	e007      	b.n	10005eb2 <__aeabi_double_init+0x2a>
10005ea2:	492c      	ldr	r1, [pc, #176]	@ (10005f54 <__aeabi_double_init+0xcc>)
10005ea4:	4b2c      	ldr	r3, [pc, #176]	@ (10005f58 <__aeabi_double_init+0xd0>)
10005ea6:	68fa      	ldr	r2, [r7, #12]
10005ea8:	0092      	lsls	r2, r2, #2
10005eaa:	50d1      	str	r1, [r2, r3]
10005eac:	68fb      	ldr	r3, [r7, #12]
10005eae:	3301      	adds	r3, #1
10005eb0:	60fb      	str	r3, [r7, #12]
10005eb2:	68fb      	ldr	r3, [r7, #12]
10005eb4:	2b1f      	cmp	r3, #31
10005eb6:	d9f4      	bls.n	10005ea2 <__aeabi_double_init+0x1a>
10005eb8:	68bb      	ldr	r3, [r7, #8]
10005eba:	2b01      	cmp	r3, #1
10005ebc:	dd39      	ble.n	10005f32 <__aeabi_double_init+0xaa>
10005ebe:	2144      	movs	r1, #68	@ 0x44
10005ec0:	2053      	movs	r0, #83	@ 0x53
10005ec2:	f7ff ffce 	bl	10005e62 <rom_table_code>
10005ec6:	0003      	movs	r3, r0
10005ec8:	0018      	movs	r0, r3
10005eca:	f7ff fc32 	bl	10005732 <rom_data_lookup>
10005ece:	0003      	movs	r3, r0
10005ed0:	607b      	str	r3, [r7, #4]
10005ed2:	2146      	movs	r1, #70	@ 0x46
10005ed4:	2053      	movs	r0, #83	@ 0x53
10005ed6:	f7ff ffc4 	bl	10005e62 <rom_table_code>
10005eda:	0003      	movs	r3, r0
10005edc:	0018      	movs	r0, r3
10005ede:	f7ff fc28 	bl	10005732 <rom_data_lookup>
10005ee2:	0003      	movs	r3, r0
10005ee4:	3b02      	subs	r3, #2
10005ee6:	781b      	ldrb	r3, [r3, #0]
10005ee8:	009b      	lsls	r3, r3, #2
10005eea:	2b7f      	cmp	r3, #127	@ 0x7f
10005eec:	dc05      	bgt.n	10005efa <__aeabi_double_init+0x72>
10005eee:	4b1b      	ldr	r3, [pc, #108]	@ (10005f5c <__aeabi_double_init+0xd4>)
10005ef0:	4a1b      	ldr	r2, [pc, #108]	@ (10005f60 <__aeabi_double_init+0xd8>)
10005ef2:	481c      	ldr	r0, [pc, #112]	@ (10005f64 <__aeabi_double_init+0xdc>)
10005ef4:	2132      	movs	r1, #50	@ 0x32
10005ef6:	f7fd ff3f 	bl	10003d78 <__assert_func>
10005efa:	6879      	ldr	r1, [r7, #4]
10005efc:	4b16      	ldr	r3, [pc, #88]	@ (10005f58 <__aeabi_double_init+0xd0>)
10005efe:	2280      	movs	r2, #128	@ 0x80
10005f00:	0018      	movs	r0, r3
10005f02:	f000 fbe7 	bl	100066d4 <__wrap___aeabi_memcpy>
10005f06:	68bb      	ldr	r3, [r7, #8]
10005f08:	2b02      	cmp	r3, #2
10005f0a:	d112      	bne.n	10005f32 <__aeabi_double_init+0xaa>
10005f0c:	4b16      	ldr	r3, [pc, #88]	@ (10005f68 <__aeabi_double_init+0xe0>)
10005f0e:	881a      	ldrh	r2, [r3, #0]
10005f10:	23b5      	movs	r3, #181	@ 0xb5
10005f12:	021b      	lsls	r3, r3, #8
10005f14:	429a      	cmp	r2, r3
10005f16:	d109      	bne.n	10005f2c <__aeabi_double_init+0xa4>
10005f18:	4b14      	ldr	r3, [pc, #80]	@ (10005f6c <__aeabi_double_init+0xe4>)
10005f1a:	881b      	ldrh	r3, [r3, #0]
10005f1c:	4a14      	ldr	r2, [pc, #80]	@ (10005f70 <__aeabi_double_init+0xe8>)
10005f1e:	4293      	cmp	r3, r2
10005f20:	d104      	bne.n	10005f2c <__aeabi_double_init+0xa4>
10005f22:	4b14      	ldr	r3, [pc, #80]	@ (10005f74 <__aeabi_double_init+0xec>)
10005f24:	881b      	ldrh	r3, [r3, #0]
10005f26:	4a14      	ldr	r2, [pc, #80]	@ (10005f78 <__aeabi_double_init+0xf0>)
10005f28:	4293      	cmp	r3, r2
10005f2a:	d002      	beq.n	10005f32 <__aeabi_double_init+0xaa>
10005f2c:	2000      	movs	r0, #0
10005f2e:	f7fd ff49 	bl	10003dc4 <panic>
10005f32:	68bb      	ldr	r3, [r7, #8]
10005f34:	2b02      	cmp	r3, #2
10005f36:	dc02      	bgt.n	10005f3e <__aeabi_double_init+0xb6>
10005f38:	4a06      	ldr	r2, [pc, #24]	@ (10005f54 <__aeabi_double_init+0xcc>)
10005f3a:	4b07      	ldr	r3, [pc, #28]	@ (10005f58 <__aeabi_double_init+0xd0>)
10005f3c:	649a      	str	r2, [r3, #72]	@ 0x48
10005f3e:	4b0f      	ldr	r3, [pc, #60]	@ (10005f7c <__aeabi_double_init+0xf4>)
10005f40:	0018      	movs	r0, r3
10005f42:	f7ff fbdc 	bl	100056fe <rom_func_lookup>
10005f46:	0002      	movs	r2, r0
10005f48:	4b0d      	ldr	r3, [pc, #52]	@ (10005f80 <__aeabi_double_init+0xf8>)
10005f4a:	601a      	str	r2, [r3, #0]
10005f4c:	46c0      	nop			@ (mov r8, r8)
10005f4e:	46bd      	mov	sp, r7
10005f50:	b004      	add	sp, #16
10005f52:	bd80      	pop	{r7, pc}
10005f54:	10005f85 	.word	0x10005f85
10005f58:	2000079c 	.word	0x2000079c
10005f5c:	1000a420 	.word	0x1000a420
10005f60:	1000a4bc 	.word	0x1000a4bc
10005f64:	1000a474 	.word	0x1000a474
10005f68:	00003854 	.word	0x00003854
10005f6c:	000038d8 	.word	0x000038d8
10005f70:	00004649 	.word	0x00004649
10005f74:	0000389c 	.word	0x0000389c
10005f78:	00004659 	.word	0x00004659
10005f7c:	0000334c 	.word	0x0000334c
10005f80:	2000089c 	.word	0x2000089c

10005f84 <double_table_shim_on_use_helper>:
10005f84:	b507      	push	{r0, r1, r2, lr}
10005f86:	4660      	mov	r0, ip
10005f88:	2800      	cmp	r0, #0
10005f8a:	d100      	bne.n	10005f8e <double_table_shim_on_use_helper+0xa>
10005f8c:	be00      	bkpt	0x0000
10005f8e:	8801      	ldrh	r1, [r0, #0]
10005f90:	0a0a      	lsrs	r2, r1, #8
10005f92:	3002      	adds	r0, #2
10005f94:	2adf      	cmp	r2, #223	@ 0xdf
10005f96:	d1fa      	bne.n	10005f8e <double_table_shim_on_use_helper+0xa>
10005f98:	b2c9      	uxtb	r1, r1
10005f9a:	0882      	lsrs	r2, r0, #2
10005f9c:	d304      	bcc.n	10005fa8 <double_table_shim_on_use_helper+0x24>
10005f9e:	8802      	ldrh	r2, [r0, #0]
10005fa0:	8840      	ldrh	r0, [r0, #2]
10005fa2:	0400      	lsls	r0, r0, #16
10005fa4:	4310      	orrs	r0, r2
10005fa6:	e000      	b.n	10005faa <double_table_shim_on_use_helper+0x26>
10005fa8:	6800      	ldr	r0, [r0, #0]
10005faa:	4a02      	ldr	r2, [pc, #8]	@ (10005fb4 <double_table_shim_on_use_helper+0x30>)
10005fac:	5050      	str	r0, [r2, r1]
10005fae:	9003      	str	r0, [sp, #12]
10005fb0:	bd07      	pop	{r0, r1, r2, pc}
10005fb2:	0000      	.short	0x0000
10005fb4:	2000079c 	.word	0x2000079c

10005fb8 <drsub_shim>:
10005fb8:	b40f      	push	{r0, r1, r2, r3}
10005fba:	bc03      	pop	{r0, r1}
10005fbc:	bc0c      	pop	{r2, r3}

10005fbe <dsub_shim>:
10005fbe:	b5f0      	push	{r4, r5, r6, r7, lr}
10005fc0:	2401      	movs	r4, #1
10005fc2:	07e4      	lsls	r4, r4, #31
10005fc4:	4063      	eors	r3, r4
10005fc6:	e000      	b.n	10005fca <da_entry>

10005fc8 <dadd_shim>:
10005fc8:	b5f0      	push	{r4, r5, r6, r7, lr}

10005fca <da_entry>:
10005fca:	0d0c      	lsrs	r4, r1, #20
10005fcc:	0fcf      	lsrs	r7, r1, #31
10005fce:	1e66      	subs	r6, r4, #1
10005fd0:	0536      	lsls	r6, r6, #20
10005fd2:	1b89      	subs	r1, r1, r6
10005fd4:	0564      	lsls	r4, r4, #21
10005fd6:	d303      	bcc.n	10005fe0 <l8_1>
10005fd8:	43c9      	mvns	r1, r1
10005fda:	4240      	negs	r0, r0
10005fdc:	d300      	bcc.n	10005fe0 <l8_1>
10005fde:	3101      	adds	r1, #1

10005fe0 <l8_1>:
10005fe0:	0d64      	lsrs	r4, r4, #21
10005fe2:	d003      	beq.n	10005fec <l8_2>
10005fe4:	1c66      	adds	r6, r4, #1
10005fe6:	0af6      	lsrs	r6, r6, #11
10005fe8:	d007      	beq.n	10005ffa <l8_3>
10005fea:	1be4      	subs	r4, r4, r7

10005fec <l8_2>:
10005fec:	2000      	movs	r0, #0
10005fee:	007f      	lsls	r7, r7, #1
10005ff0:	1c79      	adds	r1, r7, #1
10005ff2:	0789      	lsls	r1, r1, #30
10005ff4:	1289      	asrs	r1, r1, #10
10005ff6:	3c80      	subs	r4, #128	@ 0x80
10005ff8:	0324      	lsls	r4, r4, #12

10005ffa <l8_3>:
10005ffa:	0d1d      	lsrs	r5, r3, #20
10005ffc:	0fdf      	lsrs	r7, r3, #31
10005ffe:	1e6e      	subs	r6, r5, #1
10006000:	0536      	lsls	r6, r6, #20
10006002:	1b9b      	subs	r3, r3, r6
10006004:	056d      	lsls	r5, r5, #21
10006006:	d303      	bcc.n	10006010 <l9_1>
10006008:	43db      	mvns	r3, r3
1000600a:	4252      	negs	r2, r2
1000600c:	d300      	bcc.n	10006010 <l9_1>
1000600e:	3301      	adds	r3, #1

10006010 <l9_1>:
10006010:	0d6d      	lsrs	r5, r5, #21
10006012:	d003      	beq.n	1000601c <l9_2>
10006014:	1c6e      	adds	r6, r5, #1
10006016:	0af6      	lsrs	r6, r6, #11
10006018:	d007      	beq.n	1000602a <l9_3>
1000601a:	1bed      	subs	r5, r5, r7

1000601c <l9_2>:
1000601c:	2200      	movs	r2, #0
1000601e:	007f      	lsls	r7, r7, #1
10006020:	1c7b      	adds	r3, r7, #1
10006022:	079b      	lsls	r3, r3, #30
10006024:	129b      	asrs	r3, r3, #10
10006026:	3d80      	subs	r5, #128	@ 0x80
10006028:	032d      	lsls	r5, r5, #12

1000602a <l9_3>:
1000602a:	1b2f      	subs	r7, r5, r4
1000602c:	1b66      	subs	r6, r4, r5
1000602e:	d458      	bmi.n	100060e2 <da_ygtx>
10006030:	46a4      	mov	ip, r4
10006032:	2e20      	cmp	r6, #32
10006034:	da46      	bge.n	100060c4 <da_xrgty>
10006036:	3720      	adds	r7, #32
10006038:	0014      	movs	r4, r2
1000603a:	40bc      	lsls	r4, r7

1000603c <da_xgty0>:
1000603c:	001d      	movs	r5, r3
1000603e:	40bd      	lsls	r5, r7
10006040:	40f2      	lsrs	r2, r6
10006042:	4133      	asrs	r3, r6
10006044:	432a      	orrs	r2, r5

10006046 <da_add>:
10006046:	1880      	adds	r0, r0, r2
10006048:	4159      	adcs	r1, r3

1000604a <da_pack>:
1000604a:	0fcb      	lsrs	r3, r1, #31
1000604c:	d005      	beq.n	1000605a <da_pack+0x10>
1000604e:	43c9      	mvns	r1, r1
10006050:	43c0      	mvns	r0, r0
10006052:	2200      	movs	r2, #0
10006054:	4264      	negs	r4, r4
10006056:	4150      	adcs	r0, r2
10006058:	4151      	adcs	r1, r2
1000605a:	4662      	mov	r2, ip
1000605c:	0d4d      	lsrs	r5, r1, #21
1000605e:	d128      	bne.n	100060b2 <da_0>
10006060:	0d0d      	lsrs	r5, r1, #20
10006062:	d107      	bne.n	10006074 <da_1>
10006064:	2800      	cmp	r0, #0
10006066:	d01f      	beq.n	100060a8 <da_5>

10006068 <da_2>:
10006068:	1924      	adds	r4, r4, r4
1000606a:	4140      	adcs	r0, r0
1000606c:	4149      	adcs	r1, r1
1000606e:	3a01      	subs	r2, #1
10006070:	0d0d      	lsrs	r5, r1, #20
10006072:	d0f9      	beq.n	10006068 <da_2>

10006074 <da_1>:
10006074:	0064      	lsls	r4, r4, #1
10006076:	d306      	bcc.n	10006086 <da_3>

10006078 <da_4>:
10006078:	3001      	adds	r0, #1
1000607a:	d300      	bcc.n	1000607e <da_4+0x6>
1000607c:	3101      	adds	r1, #1
1000607e:	2c00      	cmp	r4, #0
10006080:	d101      	bne.n	10006086 <da_3>
10006082:	0840      	lsrs	r0, r0, #1
10006084:	0040      	lsls	r0, r0, #1

10006086 <da_3>:
10006086:	3a01      	subs	r2, #1
10006088:	d40b      	bmi.n	100060a2 <da_6>
1000608a:	1c94      	adds	r4, r2, #2
1000608c:	0ae4      	lsrs	r4, r4, #11
1000608e:	d104      	bne.n	1000609a <da_7>
10006090:	0512      	lsls	r2, r2, #20
10006092:	4411      	add	r1, r2
10006094:	07db      	lsls	r3, r3, #31
10006096:	4419      	add	r1, r3
10006098:	bdf0      	pop	{r4, r5, r6, r7, pc}

1000609a <da_7>:
1000609a:	07d9      	lsls	r1, r3, #31
1000609c:	4b20      	ldr	r3, [pc, #128]	@ (10006120 <da_xmgty+0x4>)
1000609e:	4319      	orrs	r1, r3
100060a0:	e000      	b.n	100060a4 <da_6+0x2>

100060a2 <da_6>:
100060a2:	07d9      	lsls	r1, r3, #31
100060a4:	2000      	movs	r0, #0
100060a6:	bdf0      	pop	{r4, r5, r6, r7, pc}

100060a8 <da_5>:
100060a8:	2900      	cmp	r1, #0
100060aa:	d1dd      	bne.n	10006068 <da_2>
100060ac:	2c00      	cmp	r4, #0
100060ae:	d1db      	bne.n	10006068 <da_2>
100060b0:	bdf0      	pop	{r4, r5, r6, r7, pc}

100060b2 <da_0>:
100060b2:	3201      	adds	r2, #1
100060b4:	07c6      	lsls	r6, r0, #31
100060b6:	0840      	lsrs	r0, r0, #1
100060b8:	07cd      	lsls	r5, r1, #31
100060ba:	4328      	orrs	r0, r5
100060bc:	0849      	lsrs	r1, r1, #1
100060be:	2e00      	cmp	r6, #0
100060c0:	d0e1      	beq.n	10006086 <da_3>
100060c2:	e7d9      	b.n	10006078 <da_4>

100060c4 <da_xrgty>:
100060c4:	2e3c      	cmp	r6, #60	@ 0x3c
100060c6:	da29      	bge.n	1000611c <da_xmgty>
100060c8:	3e20      	subs	r6, #32
100060ca:	3740      	adds	r7, #64	@ 0x40
100060cc:	0014      	movs	r4, r2
100060ce:	40bc      	lsls	r4, r7
100060d0:	d000      	beq.n	100060d4 <da_xrgty+0x10>
100060d2:	2401      	movs	r4, #1
100060d4:	40f2      	lsrs	r2, r6
100060d6:	4314      	orrs	r4, r2
100060d8:	001a      	movs	r2, r3
100060da:	40bb      	lsls	r3, r7
100060dc:	431c      	orrs	r4, r3
100060de:	17d3      	asrs	r3, r2, #31
100060e0:	e7ac      	b.n	1000603c <da_xgty0>

100060e2 <da_ygtx>:
100060e2:	46ac      	mov	ip, r5
100060e4:	2f20      	cmp	r7, #32
100060e6:	da08      	bge.n	100060fa <da_yrgtx>
100060e8:	3620      	adds	r6, #32
100060ea:	0004      	movs	r4, r0
100060ec:	40b4      	lsls	r4, r6

100060ee <da_ygtx0>:
100060ee:	000d      	movs	r5, r1
100060f0:	40b5      	lsls	r5, r6
100060f2:	40f8      	lsrs	r0, r7
100060f4:	4139      	asrs	r1, r7
100060f6:	4328      	orrs	r0, r5
100060f8:	e7a5      	b.n	10006046 <da_add>

100060fa <da_yrgtx>:
100060fa:	2f3c      	cmp	r7, #60	@ 0x3c
100060fc:	da0c      	bge.n	10006118 <da_ymgtx>
100060fe:	3f20      	subs	r7, #32
10006100:	3640      	adds	r6, #64	@ 0x40
10006102:	0004      	movs	r4, r0
10006104:	40b4      	lsls	r4, r6
10006106:	d000      	beq.n	1000610a <da_yrgtx+0x10>
10006108:	2401      	movs	r4, #1
1000610a:	40f8      	lsrs	r0, r7
1000610c:	4304      	orrs	r4, r0
1000610e:	0008      	movs	r0, r1
10006110:	40b1      	lsls	r1, r6
10006112:	430c      	orrs	r4, r1
10006114:	17c1      	asrs	r1, r0, #31
10006116:	e7ea      	b.n	100060ee <da_ygtx0>

10006118 <da_ymgtx>:
10006118:	0010      	movs	r0, r2
1000611a:	0019      	movs	r1, r3

1000611c <da_xmgty>:
1000611c:	2400      	movs	r4, #0
1000611e:	e794      	b.n	1000604a <da_pack>
10006120:	7ff00000 	.word	0x7ff00000

10006124 <dmul_shim>:
10006124:	b5f0      	push	{r4, r5, r6, r7, lr}
10006126:	0d0c      	lsrs	r4, r1, #20
10006128:	1e66      	subs	r6, r4, #1
1000612a:	0536      	lsls	r6, r6, #20
1000612c:	1b89      	subs	r1, r1, r6
1000612e:	0ae6      	lsrs	r6, r4, #11
10006130:	0564      	lsls	r4, r4, #21
10006132:	0d64      	lsrs	r4, r4, #21
10006134:	d002      	beq.n	1000613c <l12_1>
10006136:	1c65      	adds	r5, r4, #1
10006138:	0aed      	lsrs	r5, r5, #11
1000613a:	d004      	beq.n	10006146 <l12_2>

1000613c <l12_1>:
1000613c:	2000      	movs	r0, #0
1000613e:	2101      	movs	r1, #1
10006140:	0509      	lsls	r1, r1, #20
10006142:	3c80      	subs	r4, #128	@ 0x80
10006144:	0324      	lsls	r4, r4, #12

10006146 <l12_2>:
10006146:	46a4      	mov	ip, r4
10006148:	0d1c      	lsrs	r4, r3, #20
1000614a:	1e67      	subs	r7, r4, #1
1000614c:	053f      	lsls	r7, r7, #20
1000614e:	1bdb      	subs	r3, r3, r7
10006150:	0ae7      	lsrs	r7, r4, #11
10006152:	0564      	lsls	r4, r4, #21
10006154:	0d64      	lsrs	r4, r4, #21
10006156:	d002      	beq.n	1000615e <l13_1>
10006158:	1c65      	adds	r5, r4, #1
1000615a:	0aed      	lsrs	r5, r5, #11
1000615c:	d004      	beq.n	10006168 <l13_2>

1000615e <l13_1>:
1000615e:	2200      	movs	r2, #0
10006160:	2301      	movs	r3, #1
10006162:	051b      	lsls	r3, r3, #20
10006164:	3c80      	subs	r4, #128	@ 0x80
10006166:	0324      	lsls	r4, r4, #12

10006168 <l13_2>:
10006168:	4077      	eors	r7, r6
1000616a:	4464      	add	r4, ip
1000616c:	b497      	push	{r0, r1, r2, r4, r7}
1000616e:	b284      	uxth	r4, r0
10006170:	b296      	uxth	r6, r2
10006172:	4374      	muls	r4, r6
10006174:	0c07      	lsrs	r7, r0, #16
10006176:	437e      	muls	r6, r7
10006178:	0c15      	lsrs	r5, r2, #16
1000617a:	436f      	muls	r7, r5
1000617c:	b280      	uxth	r0, r0
1000617e:	4368      	muls	r0, r5
10006180:	1836      	adds	r6, r6, r0
10006182:	d302      	bcc.n	1000618a <l14_1>
10006184:	2001      	movs	r0, #1
10006186:	0400      	lsls	r0, r0, #16
10006188:	183f      	adds	r7, r7, r0

1000618a <l14_1>:
1000618a:	0430      	lsls	r0, r6, #16
1000618c:	0c35      	lsrs	r5, r6, #16
1000618e:	1900      	adds	r0, r0, r4
10006190:	417d      	adcs	r5, r7
10006192:	4684      	mov	ip, r0
10006194:	b288      	uxth	r0, r1
10006196:	b29a      	uxth	r2, r3
10006198:	4350      	muls	r0, r2
1000619a:	0c0c      	lsrs	r4, r1, #16
1000619c:	4362      	muls	r2, r4
1000619e:	0c1f      	lsrs	r7, r3, #16
100061a0:	437c      	muls	r4, r7
100061a2:	b28e      	uxth	r6, r1
100061a4:	437e      	muls	r6, r7
100061a6:	1992      	adds	r2, r2, r6
100061a8:	d302      	bcc.n	100061b0 <l15_1>
100061aa:	2601      	movs	r6, #1
100061ac:	0436      	lsls	r6, r6, #16
100061ae:	19a4      	adds	r4, r4, r6

100061b0 <l15_1>:
100061b0:	0416      	lsls	r6, r2, #16
100061b2:	0c17      	lsrs	r7, r2, #16
100061b4:	1836      	adds	r6, r6, r0
100061b6:	4167      	adcs	r7, r4
100061b8:	bc01      	pop	{r0}
100061ba:	b281      	uxth	r1, r0
100061bc:	b29a      	uxth	r2, r3
100061be:	4351      	muls	r1, r2
100061c0:	0c04      	lsrs	r4, r0, #16
100061c2:	4362      	muls	r2, r4
100061c4:	0c1b      	lsrs	r3, r3, #16
100061c6:	435c      	muls	r4, r3
100061c8:	b280      	uxth	r0, r0
100061ca:	4358      	muls	r0, r3
100061cc:	1812      	adds	r2, r2, r0
100061ce:	d302      	bcc.n	100061d6 <l16_1>
100061d0:	2001      	movs	r0, #1
100061d2:	0400      	lsls	r0, r0, #16
100061d4:	1824      	adds	r4, r4, r0

100061d6 <l16_1>:
100061d6:	0410      	lsls	r0, r2, #16
100061d8:	0c13      	lsrs	r3, r2, #16
100061da:	1840      	adds	r0, r0, r1
100061dc:	4163      	adcs	r3, r4
100061de:	182d      	adds	r5, r5, r0
100061e0:	415e      	adcs	r6, r3
100061e2:	2000      	movs	r0, #0
100061e4:	4147      	adcs	r7, r0
100061e6:	bc06      	pop	{r1, r2}
100061e8:	b288      	uxth	r0, r1
100061ea:	b293      	uxth	r3, r2
100061ec:	4358      	muls	r0, r3
100061ee:	0c0c      	lsrs	r4, r1, #16
100061f0:	4363      	muls	r3, r4
100061f2:	0c12      	lsrs	r2, r2, #16
100061f4:	4354      	muls	r4, r2
100061f6:	b289      	uxth	r1, r1
100061f8:	4351      	muls	r1, r2
100061fa:	185b      	adds	r3, r3, r1
100061fc:	d302      	bcc.n	10006204 <l17_1>
100061fe:	2101      	movs	r1, #1
10006200:	0409      	lsls	r1, r1, #16
10006202:	1864      	adds	r4, r4, r1

10006204 <l17_1>:
10006204:	0419      	lsls	r1, r3, #16
10006206:	0c1a      	lsrs	r2, r3, #16
10006208:	1809      	adds	r1, r1, r0
1000620a:	4162      	adcs	r2, r4
1000620c:	186d      	adds	r5, r5, r1
1000620e:	4156      	adcs	r6, r2
10006210:	2000      	movs	r0, #0
10006212:	4147      	adcs	r7, r0
10006214:	bc18      	pop	{r3, r4}
10006216:	02f9      	lsls	r1, r7, #11
10006218:	0d72      	lsrs	r2, r6, #21
1000621a:	4311      	orrs	r1, r2
1000621c:	02f0      	lsls	r0, r6, #11
1000621e:	0d6a      	lsrs	r2, r5, #21
10006220:	4310      	orrs	r0, r2
10006222:	02ed      	lsls	r5, r5, #11
10006224:	0d0a      	lsrs	r2, r1, #20
10006226:	d103      	bne.n	10006230 <l17_1+0x2c>
10006228:	196d      	adds	r5, r5, r5
1000622a:	4140      	adcs	r0, r0
1000622c:	4149      	adcs	r1, r1
1000622e:	3b01      	subs	r3, #1
10006230:	4e12      	ldr	r6, [pc, #72]	@ (1000627c <dm_1+0xa>)
10006232:	1b9b      	subs	r3, r3, r6
10006234:	0076      	lsls	r6, r6, #1
10006236:	42b3      	cmp	r3, r6
10006238:	d20e      	bcs.n	10006258 <dm_0>
1000623a:	006d      	lsls	r5, r5, #1
1000623c:	d307      	bcc.n	1000624e <l17_1+0x4a>
1000623e:	3001      	adds	r0, #1
10006240:	2600      	movs	r6, #0
10006242:	4171      	adcs	r1, r6
10006244:	4666      	mov	r6, ip
10006246:	4335      	orrs	r5, r6
10006248:	d101      	bne.n	1000624e <l17_1+0x4a>
1000624a:	0840      	lsrs	r0, r0, #1
1000624c:	0040      	lsls	r0, r0, #1
1000624e:	051b      	lsls	r3, r3, #20
10006250:	18c9      	adds	r1, r1, r3

10006252 <dm_2>:
10006252:	07e4      	lsls	r4, r4, #31
10006254:	4421      	add	r1, r4
10006256:	bdf0      	pop	{r4, r5, r6, r7, pc}

10006258 <dm_0>:
10006258:	da0b      	bge.n	10006272 <dm_1>
1000625a:	3301      	adds	r3, #1
1000625c:	d106      	bne.n	1000626c <dm_0+0x14>
1000625e:	3001      	adds	r0, #1
10006260:	d104      	bne.n	1000626c <dm_0+0x14>
10006262:	3101      	adds	r1, #1
10006264:	0d4f      	lsrs	r7, r1, #21
10006266:	d001      	beq.n	1000626c <dm_0+0x14>
10006268:	0849      	lsrs	r1, r1, #1
1000626a:	e7f2      	b.n	10006252 <dm_2>
1000626c:	07e1      	lsls	r1, r4, #31
1000626e:	2000      	movs	r0, #0
10006270:	bdf0      	pop	{r4, r5, r6, r7, pc}

10006272 <dm_1>:
10006272:	3601      	adds	r6, #1
10006274:	0531      	lsls	r1, r6, #20
10006276:	2000      	movs	r0, #0
10006278:	e7eb      	b.n	10006252 <dm_2>
1000627a:	0000      	.short	0x0000
1000627c:	000003ff 	.word	0x000003ff

10006280 <ddiv_shim>:
10006280:	b5f0      	push	{r4, r5, r6, r7, lr}

10006282 <ddiv0>:
10006282:	0d1c      	lsrs	r4, r3, #20
10006284:	1e67      	subs	r7, r4, #1
10006286:	053f      	lsls	r7, r7, #20
10006288:	1bdb      	subs	r3, r3, r7
1000628a:	0ae7      	lsrs	r7, r4, #11
1000628c:	0564      	lsls	r4, r4, #21
1000628e:	0d64      	lsrs	r4, r4, #21
10006290:	d002      	beq.n	10006298 <l20_1>
10006292:	1c66      	adds	r6, r4, #1
10006294:	0af6      	lsrs	r6, r6, #11
10006296:	d004      	beq.n	100062a2 <l20_2>

10006298 <l20_1>:
10006298:	2200      	movs	r2, #0
1000629a:	2301      	movs	r3, #1
1000629c:	051b      	lsls	r3, r3, #20
1000629e:	3c80      	subs	r4, #128	@ 0x80
100062a0:	0324      	lsls	r4, r4, #12

100062a2 <l20_2>:
100062a2:	25d0      	movs	r5, #208	@ 0xd0
100062a4:	062d      	lsls	r5, r5, #24
100062a6:	2600      	movs	r6, #0
100062a8:	43f6      	mvns	r6, r6
100062aa:	662e      	str	r6, [r5, #96]	@ 0x60
100062ac:	091e      	lsrs	r6, r3, #4
100062ae:	666e      	str	r6, [r5, #100]	@ 0x64
100062b0:	0fce      	lsrs	r6, r1, #31
100062b2:	19f6      	adds	r6, r6, r7
100062b4:	46b4      	mov	ip, r6
100062b6:	0049      	lsls	r1, r1, #1
100062b8:	0d4f      	lsrs	r7, r1, #21
100062ba:	d002      	beq.n	100062c2 <l20_2+0x20>
100062bc:	1c7e      	adds	r6, r7, #1
100062be:	0af6      	lsrs	r6, r6, #11
100062c0:	d003      	beq.n	100062ca <l20_2+0x28>
100062c2:	2000      	movs	r0, #0
100062c4:	2100      	movs	r1, #0
100062c6:	3f40      	subs	r7, #64	@ 0x40
100062c8:	033f      	lsls	r7, r7, #12
100062ca:	1b3e      	subs	r6, r7, r4
100062cc:	00b6      	lsls	r6, r6, #2
100062ce:	44b4      	add	ip, r6
100062d0:	3f01      	subs	r7, #1
100062d2:	057f      	lsls	r7, r7, #21
100062d4:	1bc9      	subs	r1, r1, r7
100062d6:	0849      	lsrs	r1, r1, #1
100062d8:	6f2e      	ldr	r6, [r5, #112]	@ 0x70
100062da:	3601      	adds	r6, #1
100062dc:	0876      	lsrs	r6, r6, #1
100062de:	029c      	lsls	r4, r3, #10
100062e0:	0d95      	lsrs	r5, r2, #22
100062e2:	4325      	orrs	r5, r4
100062e4:	4375      	muls	r5, r6
100062e6:	13ed      	asrs	r5, r5, #15
100062e8:	4375      	muls	r5, r6
100062ea:	13ad      	asrs	r5, r5, #14
100062ec:	3501      	adds	r5, #1
100062ee:	106d      	asrs	r5, r5, #1
100062f0:	03f6      	lsls	r6, r6, #15
100062f2:	1b76      	subs	r6, r6, r5
100062f4:	b40c      	push	{r2, r3}
100062f6:	02cc      	lsls	r4, r1, #11
100062f8:	0d45      	lsrs	r5, r0, #21
100062fa:	432c      	orrs	r4, r5
100062fc:	b2a2      	uxth	r2, r4
100062fe:	b2b3      	uxth	r3, r6
10006300:	435a      	muls	r2, r3
10006302:	0c27      	lsrs	r7, r4, #16
10006304:	437b      	muls	r3, r7
10006306:	0c35      	lsrs	r5, r6, #16
10006308:	436f      	muls	r7, r5
1000630a:	b2a4      	uxth	r4, r4
1000630c:	436c      	muls	r4, r5
1000630e:	191b      	adds	r3, r3, r4
10006310:	d302      	bcc.n	10006318 <l21_1>
10006312:	2401      	movs	r4, #1
10006314:	0424      	lsls	r4, r4, #16
10006316:	193f      	adds	r7, r7, r4

10006318 <l21_1>:
10006318:	041c      	lsls	r4, r3, #16
1000631a:	0c1d      	lsrs	r5, r3, #16
1000631c:	18a4      	adds	r4, r4, r2
1000631e:	417d      	adcs	r5, r7
10006320:	1924      	adds	r4, r4, r4
10006322:	416d      	adcs	r5, r5
10006324:	9a00      	ldr	r2, [sp, #0]
10006326:	b291      	uxth	r1, r2
10006328:	b2ac      	uxth	r4, r5
1000632a:	4361      	muls	r1, r4
1000632c:	0c17      	lsrs	r7, r2, #16
1000632e:	437c      	muls	r4, r7
10006330:	0c2b      	lsrs	r3, r5, #16
10006332:	435f      	muls	r7, r3
10006334:	b292      	uxth	r2, r2
10006336:	435a      	muls	r2, r3
10006338:	18a4      	adds	r4, r4, r2
1000633a:	d302      	bcc.n	10006342 <l22_1>
1000633c:	2201      	movs	r2, #1
1000633e:	0412      	lsls	r2, r2, #16
10006340:	18bf      	adds	r7, r7, r2

10006342 <l22_1>:
10006342:	0422      	lsls	r2, r4, #16
10006344:	0c23      	lsrs	r3, r4, #16
10006346:	1852      	adds	r2, r2, r1
10006348:	417b      	adcs	r3, r7
1000634a:	9c01      	ldr	r4, [sp, #4]
1000634c:	436c      	muls	r4, r5
1000634e:	191b      	adds	r3, r3, r4
10006350:	0e52      	lsrs	r2, r2, #25
10006352:	01d9      	lsls	r1, r3, #7
10006354:	430a      	orrs	r2, r1
10006356:	0144      	lsls	r4, r0, #5
10006358:	1aa0      	subs	r0, r4, r2
1000635a:	b281      	uxth	r1, r0
1000635c:	b2b2      	uxth	r2, r6
1000635e:	4351      	muls	r1, r2
10006360:	1403      	asrs	r3, r0, #16
10006362:	435a      	muls	r2, r3
10006364:	0c36      	lsrs	r6, r6, #16
10006366:	4373      	muls	r3, r6
10006368:	b287      	uxth	r7, r0
1000636a:	4377      	muls	r7, r6
1000636c:	17d6      	asrs	r6, r2, #31
1000636e:	19d2      	adds	r2, r2, r7
10006370:	2700      	movs	r7, #0
10006372:	417e      	adcs	r6, r7
10006374:	0436      	lsls	r6, r6, #16
10006376:	199b      	adds	r3, r3, r6
10006378:	0417      	lsls	r7, r2, #16
1000637a:	0c16      	lsrs	r6, r2, #16
1000637c:	187f      	adds	r7, r7, r1
1000637e:	415e      	adcs	r6, r3
10006380:	1673      	asrs	r3, r6, #25
10006382:	18ed      	adds	r5, r5, r3
10006384:	01f3      	lsls	r3, r6, #7
10006386:	2600      	movs	r6, #0
10006388:	3380      	adds	r3, #128	@ 0x80
1000638a:	4175      	adcs	r5, r6
1000638c:	0fa9      	lsrs	r1, r5, #30
1000638e:	d106      	bne.n	1000639e <dd_0>
10006390:	0064      	lsls	r4, r4, #1
10006392:	0a69      	lsrs	r1, r5, #9
10006394:	05e8      	lsls	r0, r5, #23
10006396:	0a5b      	lsrs	r3, r3, #9
10006398:	4318      	orrs	r0, r3
1000639a:	d209      	bcs.n	100063b0 <dd_1>
1000639c:	e02f      	b.n	100063fe <dd_2>

1000639e <dd_0>:
1000639e:	2204      	movs	r2, #4
100063a0:	4494      	add	ip, r2
100063a2:	3380      	adds	r3, #128	@ 0x80
100063a4:	4175      	adcs	r5, r6
100063a6:	0aa9      	lsrs	r1, r5, #10
100063a8:	05a8      	lsls	r0, r5, #22
100063aa:	0a9b      	lsrs	r3, r3, #10
100063ac:	4318      	orrs	r0, r3
100063ae:	d326      	bcc.n	100063fe <dd_2>

100063b0 <dd_1>:
100063b0:	4140      	adcs	r0, r0
100063b2:	4149      	adcs	r1, r1
100063b4:	0424      	lsls	r4, r4, #16
100063b6:	9a00      	ldr	r2, [sp, #0]
100063b8:	9b01      	ldr	r3, [sp, #4]
100063ba:	000d      	movs	r5, r1
100063bc:	4355      	muls	r5, r2
100063be:	1b64      	subs	r4, r4, r5
100063c0:	4343      	muls	r3, r0
100063c2:	1ae4      	subs	r4, r4, r3
100063c4:	b295      	uxth	r5, r2
100063c6:	b286      	uxth	r6, r0
100063c8:	4375      	muls	r5, r6
100063ca:	0c17      	lsrs	r7, r2, #16
100063cc:	437e      	muls	r6, r7
100063ce:	0c03      	lsrs	r3, r0, #16
100063d0:	435f      	muls	r7, r3
100063d2:	b292      	uxth	r2, r2
100063d4:	435a      	muls	r2, r3
100063d6:	18b6      	adds	r6, r6, r2
100063d8:	d302      	bcc.n	100063e0 <l24_1>
100063da:	2201      	movs	r2, #1
100063dc:	0412      	lsls	r2, r2, #16
100063de:	18bf      	adds	r7, r7, r2

100063e0 <l24_1>:
100063e0:	0432      	lsls	r2, r6, #16
100063e2:	0c33      	lsrs	r3, r6, #16
100063e4:	1952      	adds	r2, r2, r5
100063e6:	417b      	adcs	r3, r7
100063e8:	4252      	negs	r2, r2
100063ea:	419c      	sbcs	r4, r3
100063ec:	2c00      	cmp	r4, #0
100063ee:	d402      	bmi.n	100063f6 <l24_1+0x16>
100063f0:	2200      	movs	r2, #0
100063f2:	3001      	adds	r0, #1
100063f4:	4151      	adcs	r1, r2
100063f6:	0840      	lsrs	r0, r0, #1
100063f8:	07ca      	lsls	r2, r1, #31
100063fa:	4310      	orrs	r0, r2
100063fc:	0849      	lsrs	r1, r1, #1

100063fe <dd_2>:
100063fe:	b002      	add	sp, #8
10006400:	4662      	mov	r2, ip
10006402:	07d7      	lsls	r7, r2, #31
10006404:	1092      	asrs	r2, r2, #2
10006406:	4b08      	ldr	r3, [pc, #32]	@ (10006428 <dd_4+0x6>)
10006408:	18d2      	adds	r2, r2, r3
1000640a:	4b08      	ldr	r3, [pc, #32]	@ (1000642c <dd_4+0xa>)
1000640c:	429a      	cmp	r2, r3
1000640e:	d203      	bcs.n	10006418 <dd_3>
10006410:	0512      	lsls	r2, r2, #20
10006412:	1889      	adds	r1, r1, r2

10006414 <dd_5>:
10006414:	19c9      	adds	r1, r1, r7
10006416:	bdf0      	pop	{r4, r5, r6, r7, pc}

10006418 <dd_3>:
10006418:	2000      	movs	r0, #0
1000641a:	2a00      	cmp	r2, #0
1000641c:	dc01      	bgt.n	10006422 <dd_4>
1000641e:	0039      	movs	r1, r7
10006420:	bdf0      	pop	{r4, r5, r6, r7, pc}

10006422 <dd_4>:
10006422:	3301      	adds	r3, #1
10006424:	0519      	lsls	r1, r3, #20
10006426:	e7f5      	b.n	10006414 <dd_5>
10006428:	000003fd 	.word	0x000003fd
1000642c:	000007fe 	.word	0x000007fe

10006430 <double2uint_shim>:
10006430:	2200      	movs	r2, #0

10006432 <double2ufix_shim>:
10006432:	b500      	push	{lr}
10006434:	3220      	adds	r2, #32
10006436:	f000 f804 	bl	10006442 <double2ufix64_shim>
1000643a:	0008      	movs	r0, r1
1000643c:	bd00      	pop	{pc}
	...

10006440 <double2uint64_shim>:
10006440:	2200      	movs	r2, #0

10006442 <double2ufix64_shim>:
10006442:	150b      	asrs	r3, r1, #20
10006444:	d40a      	bmi.n	1000645c <ret_dzero>

10006446 <d2fix>:
10006446:	b510      	push	{r4, lr}
10006448:	4694      	mov	ip, r2
1000644a:	f000 f831 	bl	100064b0 <dunpacks>
1000644e:	1414      	asrs	r4, r2, #16
10006450:	3401      	adds	r4, #1
10006452:	da00      	bge.n	10006456 <d2fix+0x10>
10006454:	2100      	movs	r1, #0
10006456:	17cb      	asrs	r3, r1, #31
10006458:	4c14      	ldr	r4, [pc, #80]	@ (100064ac <d2fix_a+0x4a>)
1000645a:	4720      	bx	r4

1000645c <ret_dzero>:
1000645c:	2000      	movs	r0, #0
1000645e:	2100      	movs	r1, #0
10006460:	4770      	bx	lr

10006462 <d2fix_a>:
10006462:	4462      	add	r2, ip
10006464:	3a34      	subs	r2, #52	@ 0x34
10006466:	d40c      	bmi.n	10006482 <d2fix_a+0x20>
10006468:	2a0c      	cmp	r2, #12
1000646a:	da07      	bge.n	1000647c <d2fix_a+0x1a>
1000646c:	0004      	movs	r4, r0
1000646e:	4091      	lsls	r1, r2
10006470:	4090      	lsls	r0, r2
10006472:	4252      	negs	r2, r2
10006474:	3220      	adds	r2, #32
10006476:	40d4      	lsrs	r4, r2
10006478:	4321      	orrs	r1, r4
1000647a:	bd10      	pop	{r4, pc}
1000647c:	43d8      	mvns	r0, r3
1000647e:	43d9      	mvns	r1, r3
10006480:	bd10      	pop	{r4, pc}
10006482:	3220      	adds	r2, #32
10006484:	d407      	bmi.n	10006496 <d2fix_a+0x34>
10006486:	460c      	mov	r4, r1
10006488:	4094      	lsls	r4, r2
1000648a:	4252      	negs	r2, r2
1000648c:	3220      	adds	r2, #32
1000648e:	4111      	asrs	r1, r2
10006490:	40d0      	lsrs	r0, r2
10006492:	4320      	orrs	r0, r4
10006494:	bd10      	pop	{r4, pc}
10006496:	0008      	movs	r0, r1
10006498:	17c9      	asrs	r1, r1, #31
1000649a:	3220      	adds	r2, #32
1000649c:	d403      	bmi.n	100064a6 <d2fix_a+0x44>
1000649e:	4252      	negs	r2, r2
100064a0:	3220      	adds	r2, #32
100064a2:	4110      	asrs	r0, r2
100064a4:	bd10      	pop	{r4, pc}
100064a6:	0018      	movs	r0, r3
100064a8:	0019      	movs	r1, r3
100064aa:	bd10      	pop	{r4, pc}
100064ac:	10006463 	.word	0x10006463

100064b0 <dunpacks>:
100064b0:	0d0a      	lsrs	r2, r1, #20
100064b2:	0fcc      	lsrs	r4, r1, #31
100064b4:	1e53      	subs	r3, r2, #1
100064b6:	051b      	lsls	r3, r3, #20
100064b8:	1ac9      	subs	r1, r1, r3
100064ba:	0552      	lsls	r2, r2, #21
100064bc:	d303      	bcc.n	100064c6 <l60_1>
100064be:	43c9      	mvns	r1, r1
100064c0:	4240      	negs	r0, r0
100064c2:	d300      	bcc.n	100064c6 <l60_1>
100064c4:	3101      	adds	r1, #1

100064c6 <l60_1>:
100064c6:	0d52      	lsrs	r2, r2, #21
100064c8:	d003      	beq.n	100064d2 <l60_2>
100064ca:	1c53      	adds	r3, r2, #1
100064cc:	0adb      	lsrs	r3, r3, #11
100064ce:	d007      	beq.n	100064e0 <l60_3>
100064d0:	1b12      	subs	r2, r2, r4

100064d2 <l60_2>:
100064d2:	2000      	movs	r0, #0
100064d4:	0064      	lsls	r4, r4, #1
100064d6:	1c61      	adds	r1, r4, #1
100064d8:	0789      	lsls	r1, r1, #30
100064da:	1289      	asrs	r1, r1, #10
100064dc:	3a80      	subs	r2, #128	@ 0x80
100064de:	0312      	lsls	r2, r2, #12

100064e0 <l60_3>:
100064e0:	4b01      	ldr	r3, [pc, #4]	@ (100064e8 <l60_3+0x8>)
100064e2:	1ad2      	subs	r2, r2, r3
100064e4:	4770      	bx	lr
100064e6:	0000      	.short	0x0000
100064e8:	000003ff 	.word	0x000003ff

100064ec <__wrap___aeabi_lmul>:
100064ec:	4351      	muls	r1, r2
100064ee:	4343      	muls	r3, r0
100064f0:	18c9      	adds	r1, r1, r3
100064f2:	468c      	mov	ip, r1
100064f4:	0c11      	lsrs	r1, r2, #16
100064f6:	b283      	uxth	r3, r0
100064f8:	434b      	muls	r3, r1
100064fa:	b410      	push	{r4}
100064fc:	0c04      	lsrs	r4, r0, #16
100064fe:	4361      	muls	r1, r4
10006500:	b292      	uxth	r2, r2
10006502:	b280      	uxth	r0, r0
10006504:	4350      	muls	r0, r2
10006506:	4362      	muls	r2, r4
10006508:	041c      	lsls	r4, r3, #16
1000650a:	0c1b      	lsrs	r3, r3, #16
1000650c:	1900      	adds	r0, r0, r4
1000650e:	bc10      	pop	{r4}
10006510:	4159      	adcs	r1, r3
10006512:	0413      	lsls	r3, r2, #16
10006514:	0c12      	lsrs	r2, r2, #16
10006516:	18c0      	adds	r0, r0, r3
10006518:	4151      	adcs	r1, r2
1000651a:	4461      	add	r1, ip
1000651c:	4770      	bx	lr

1000651e <rp2040_rom_version>:
1000651e:	b580      	push	{r7, lr}
10006520:	af00      	add	r7, sp, #0
10006522:	2313      	movs	r3, #19
10006524:	781b      	ldrb	r3, [r3, #0]
10006526:	0018      	movs	r0, r3
10006528:	46bd      	mov	sp, r7
1000652a:	bd80      	pop	{r7, pc}

1000652c <rom_table_code>:
1000652c:	b580      	push	{r7, lr}
1000652e:	b082      	sub	sp, #8
10006530:	af00      	add	r7, sp, #0
10006532:	0002      	movs	r2, r0
10006534:	1dfb      	adds	r3, r7, #7
10006536:	701a      	strb	r2, [r3, #0]
10006538:	1dbb      	adds	r3, r7, #6
1000653a:	1c0a      	adds	r2, r1, #0
1000653c:	701a      	strb	r2, [r3, #0]
1000653e:	1dfb      	adds	r3, r7, #7
10006540:	781a      	ldrb	r2, [r3, #0]
10006542:	1dbb      	adds	r3, r7, #6
10006544:	781b      	ldrb	r3, [r3, #0]
10006546:	021b      	lsls	r3, r3, #8
10006548:	4313      	orrs	r3, r2
1000654a:	0018      	movs	r0, r3
1000654c:	46bd      	mov	sp, r7
1000654e:	b002      	add	sp, #8
10006550:	bd80      	pop	{r7, pc}
	...

10006554 <__aeabi_float_init>:
10006554:	b580      	push	{r7, lr}
10006556:	b084      	sub	sp, #16
10006558:	af00      	add	r7, sp, #0
1000655a:	f7ff ffe0 	bl	1000651e <rp2040_rom_version>
1000655e:	0003      	movs	r3, r0
10006560:	60bb      	str	r3, [r7, #8]
10006562:	2146      	movs	r1, #70	@ 0x46
10006564:	2053      	movs	r0, #83	@ 0x53
10006566:	f7ff ffe1 	bl	1000652c <rom_table_code>
1000656a:	0003      	movs	r3, r0
1000656c:	0018      	movs	r0, r3
1000656e:	f7ff f8e0 	bl	10005732 <rom_data_lookup>
10006572:	0003      	movs	r3, r0
10006574:	607b      	str	r3, [r7, #4]
10006576:	68bb      	ldr	r3, [r7, #8]
10006578:	2b01      	cmp	r3, #1
1000657a:	d13e      	bne.n	100065fa <__aeabi_float_init+0xa6>
1000657c:	6879      	ldr	r1, [r7, #4]
1000657e:	4b2f      	ldr	r3, [pc, #188]	@ (1000663c <__aeabi_float_init+0xe8>)
10006580:	2254      	movs	r2, #84	@ 0x54
10006582:	0018      	movs	r0, r3
10006584:	f000 f8a6 	bl	100066d4 <__wrap___aeabi_memcpy>
10006588:	4b2d      	ldr	r3, [pc, #180]	@ (10006640 <__aeabi_float_init+0xec>)
1000658a:	881b      	ldrh	r3, [r3, #0]
1000658c:	4a2d      	ldr	r2, [pc, #180]	@ (10006644 <__aeabi_float_init+0xf0>)
1000658e:	4293      	cmp	r3, r2
10006590:	d11a      	bne.n	100065c8 <__aeabi_float_init+0x74>
10006592:	23a7      	movs	r3, #167	@ 0xa7
10006594:	019b      	lsls	r3, r3, #6
10006596:	881b      	ldrh	r3, [r3, #0]
10006598:	4a2b      	ldr	r2, [pc, #172]	@ (10006648 <__aeabi_float_init+0xf4>)
1000659a:	4293      	cmp	r3, r2
1000659c:	d114      	bne.n	100065c8 <__aeabi_float_init+0x74>
1000659e:	4b2b      	ldr	r3, [pc, #172]	@ (1000664c <__aeabi_float_init+0xf8>)
100065a0:	881b      	ldrh	r3, [r3, #0]
100065a2:	4a2b      	ldr	r2, [pc, #172]	@ (10006650 <__aeabi_float_init+0xfc>)
100065a4:	4293      	cmp	r3, r2
100065a6:	d10f      	bne.n	100065c8 <__aeabi_float_init+0x74>
100065a8:	4b2a      	ldr	r3, [pc, #168]	@ (10006654 <__aeabi_float_init+0x100>)
100065aa:	881a      	ldrh	r2, [r3, #0]
100065ac:	2394      	movs	r3, #148	@ 0x94
100065ae:	019b      	lsls	r3, r3, #6
100065b0:	429a      	cmp	r2, r3
100065b2:	d109      	bne.n	100065c8 <__aeabi_float_init+0x74>
100065b4:	4b28      	ldr	r3, [pc, #160]	@ (10006658 <__aeabi_float_init+0x104>)
100065b6:	881b      	ldrh	r3, [r3, #0]
100065b8:	4a28      	ldr	r2, [pc, #160]	@ (1000665c <__aeabi_float_init+0x108>)
100065ba:	4293      	cmp	r3, r2
100065bc:	d104      	bne.n	100065c8 <__aeabi_float_init+0x74>
100065be:	4b28      	ldr	r3, [pc, #160]	@ (10006660 <__aeabi_float_init+0x10c>)
100065c0:	681b      	ldr	r3, [r3, #0]
100065c2:	4a28      	ldr	r2, [pc, #160]	@ (10006664 <__aeabi_float_init+0x110>)
100065c4:	4293      	cmp	r3, r2
100065c6:	d003      	beq.n	100065d0 <__aeabi_float_init+0x7c>
100065c8:	4b27      	ldr	r3, [pc, #156]	@ (10006668 <__aeabi_float_init+0x114>)
100065ca:	0018      	movs	r0, r3
100065cc:	f7fd fbfa 	bl	10003dc4 <panic>
100065d0:	2315      	movs	r3, #21
100065d2:	60fb      	str	r3, [r7, #12]
100065d4:	e007      	b.n	100065e6 <__aeabi_float_init+0x92>
100065d6:	4925      	ldr	r1, [pc, #148]	@ (1000666c <__aeabi_float_init+0x118>)
100065d8:	4b18      	ldr	r3, [pc, #96]	@ (1000663c <__aeabi_float_init+0xe8>)
100065da:	68fa      	ldr	r2, [r7, #12]
100065dc:	0092      	lsls	r2, r2, #2
100065de:	50d1      	str	r1, [r2, r3]
100065e0:	68fb      	ldr	r3, [r7, #12]
100065e2:	3301      	adds	r3, #1
100065e4:	60fb      	str	r3, [r7, #12]
100065e6:	68fb      	ldr	r3, [r7, #12]
100065e8:	2b1f      	cmp	r3, #31
100065ea:	d9f4      	bls.n	100065d6 <__aeabi_float_init+0x82>
100065ec:	4a1f      	ldr	r2, [pc, #124]	@ (1000666c <__aeabi_float_init+0x118>)
100065ee:	4b13      	ldr	r3, [pc, #76]	@ (1000663c <__aeabi_float_init+0xe8>)
100065f0:	621a      	str	r2, [r3, #32]
100065f2:	4b12      	ldr	r3, [pc, #72]	@ (1000663c <__aeabi_float_init+0xe8>)
100065f4:	6a1a      	ldr	r2, [r3, #32]
100065f6:	4b11      	ldr	r3, [pc, #68]	@ (1000663c <__aeabi_float_init+0xe8>)
100065f8:	61da      	str	r2, [r3, #28]
100065fa:	68bb      	ldr	r3, [r7, #8]
100065fc:	2b01      	cmp	r3, #1
100065fe:	dd11      	ble.n	10006624 <__aeabi_float_init+0xd0>
10006600:	687b      	ldr	r3, [r7, #4]
10006602:	3b02      	subs	r3, #2
10006604:	781b      	ldrb	r3, [r3, #0]
10006606:	009b      	lsls	r3, r3, #2
10006608:	2b7f      	cmp	r3, #127	@ 0x7f
1000660a:	dc05      	bgt.n	10006618 <__aeabi_float_init+0xc4>
1000660c:	4b18      	ldr	r3, [pc, #96]	@ (10006670 <__aeabi_float_init+0x11c>)
1000660e:	4a19      	ldr	r2, [pc, #100]	@ (10006674 <__aeabi_float_init+0x120>)
10006610:	4819      	ldr	r0, [pc, #100]	@ (10006678 <__aeabi_float_init+0x124>)
10006612:	2142      	movs	r1, #66	@ 0x42
10006614:	f7fd fbb0 	bl	10003d78 <__assert_func>
10006618:	6879      	ldr	r1, [r7, #4]
1000661a:	4b08      	ldr	r3, [pc, #32]	@ (1000663c <__aeabi_float_init+0xe8>)
1000661c:	2280      	movs	r2, #128	@ 0x80
1000661e:	0018      	movs	r0, r3
10006620:	f000 f858 	bl	100066d4 <__wrap___aeabi_memcpy>
10006624:	4b15      	ldr	r3, [pc, #84]	@ (1000667c <__aeabi_float_init+0x128>)
10006626:	0018      	movs	r0, r3
10006628:	f7ff f869 	bl	100056fe <rom_func_lookup>
1000662c:	0002      	movs	r2, r0
1000662e:	4b14      	ldr	r3, [pc, #80]	@ (10006680 <__aeabi_float_init+0x12c>)
10006630:	601a      	str	r2, [r3, #0]
10006632:	46c0      	nop			@ (mov r8, r8)
10006634:	46bd      	mov	sp, r7
10006636:	b004      	add	sp, #16
10006638:	bd80      	pop	{r7, pc}
1000663a:	46c0      	nop			@ (mov r8, r8)
1000663c:	200008a0 	.word	0x200008a0
10006640:	000029ee 	.word	0x000029ee
10006644:	00000fc4 	.word	0x00000fc4
10006648:	00000dc2 	.word	0x00000dc2
1000664c:	00002b96 	.word	0x00002b96
10006650:	0000b5c0 	.word	0x0000b5c0
10006654:	00002b18 	.word	0x00002b18
10006658:	00002acc 	.word	0x00002acc
1000665c:	0000b510 	.word	0x0000b510
10006660:	00002cfc 	.word	0x00002cfc
10006664:	6487ed51 	.word	0x6487ed51
10006668:	1000a4d0 	.word	0x1000a4d0
1000666c:	10006685 	.word	0x10006685
10006670:	1000a4d4 	.word	0x1000a4d4
10006674:	1000a550 	.word	0x1000a550
10006678:	1000a508 	.word	0x1000a508
1000667c:	0000334c 	.word	0x0000334c
10006680:	2000089c 	.word	0x2000089c

10006684 <float_table_shim_on_use_helper>:
10006684:	b507      	push	{r0, r1, r2, lr}
10006686:	4660      	mov	r0, ip
10006688:	2800      	cmp	r0, #0
1000668a:	d100      	bne.n	1000668e <float_table_shim_on_use_helper+0xa>
1000668c:	be00      	bkpt	0x0000
1000668e:	8801      	ldrh	r1, [r0, #0]
10006690:	0a0a      	lsrs	r2, r1, #8
10006692:	3002      	adds	r0, #2
10006694:	2adf      	cmp	r2, #223	@ 0xdf
10006696:	d1fa      	bne.n	1000668e <float_table_shim_on_use_helper+0xa>
10006698:	b2c9      	uxtb	r1, r1
1000669a:	0882      	lsrs	r2, r0, #2
1000669c:	d304      	bcc.n	100066a8 <float_table_shim_on_use_helper+0x24>
1000669e:	8802      	ldrh	r2, [r0, #0]
100066a0:	8840      	ldrh	r0, [r0, #2]
100066a2:	0400      	lsls	r0, r0, #16
100066a4:	4310      	orrs	r0, r2
100066a6:	e000      	b.n	100066aa <float_table_shim_on_use_helper+0x26>
100066a8:	6800      	ldr	r0, [r0, #0]
100066aa:	4a02      	ldr	r2, [pc, #8]	@ (100066b4 <float_table_shim_on_use_helper+0x30>)
100066ac:	5050      	str	r0, [r2, r1]
100066ae:	9003      	str	r0, [sp, #12]
100066b0:	bd07      	pop	{r0, r1, r2, pc}
100066b2:	0000      	.short	0x0000
100066b4:	200008a0 	.word	0x200008a0

100066b8 <__aeabi_mem_init>:
100066b8:	4801      	ldr	r0, [pc, #4]	@ (100066c0 <__aeabi_mem_init+0x8>)
100066ba:	2104      	movs	r1, #4
100066bc:	4b01      	ldr	r3, [pc, #4]	@ (100066c4 <__aeabi_mem_init+0xc>)
100066be:	4718      	bx	r3
100066c0:	20000590 	.word	0x20000590
100066c4:	10005763 	.word	0x10005763

100066c8 <__wrap_memset>:
100066c8:	4b01      	ldr	r3, [pc, #4]	@ (100066d0 <__wrap_memset+0x8>)
100066ca:	681b      	ldr	r3, [r3, #0]
100066cc:	4718      	bx	r3
100066ce:	0000      	.short	0x0000
100066d0:	20000590 	.word	0x20000590

100066d4 <__wrap___aeabi_memcpy>:
100066d4:	4b01      	ldr	r3, [pc, #4]	@ (100066dc <__wrap___aeabi_memcpy+0x8>)
100066d6:	685b      	ldr	r3, [r3, #4]
100066d8:	4718      	bx	r3
100066da:	0000      	.short	0x0000
100066dc:	20000590 	.word	0x20000590

100066e0 <to_us_since_boot>:
100066e0:	b580      	push	{r7, lr}
100066e2:	b082      	sub	sp, #8
100066e4:	af00      	add	r7, sp, #0
100066e6:	6038      	str	r0, [r7, #0]
100066e8:	6079      	str	r1, [r7, #4]
100066ea:	683a      	ldr	r2, [r7, #0]
100066ec:	687b      	ldr	r3, [r7, #4]
100066ee:	0010      	movs	r0, r2
100066f0:	0019      	movs	r1, r3
100066f2:	46bd      	mov	sp, r7
100066f4:	b002      	add	sp, #8
100066f6:	bd80      	pop	{r7, pc}

100066f8 <update_us_since_boot>:
100066f8:	b580      	push	{r7, lr}
100066fa:	b084      	sub	sp, #16
100066fc:	af00      	add	r7, sp, #0
100066fe:	60f8      	str	r0, [r7, #12]
10006700:	603a      	str	r2, [r7, #0]
10006702:	607b      	str	r3, [r7, #4]
10006704:	683a      	ldr	r2, [r7, #0]
10006706:	687b      	ldr	r3, [r7, #4]
10006708:	2b00      	cmp	r3, #0
1000670a:	da05      	bge.n	10006718 <update_us_since_boot+0x20>
1000670c:	4b07      	ldr	r3, [pc, #28]	@ (1000672c <update_us_since_boot+0x34>)
1000670e:	4a08      	ldr	r2, [pc, #32]	@ (10006730 <update_us_since_boot+0x38>)
10006710:	4808      	ldr	r0, [pc, #32]	@ (10006734 <update_us_since_boot+0x3c>)
10006712:	213f      	movs	r1, #63	@ 0x3f
10006714:	f7fd fb30 	bl	10003d78 <__assert_func>
10006718:	68f9      	ldr	r1, [r7, #12]
1000671a:	683a      	ldr	r2, [r7, #0]
1000671c:	687b      	ldr	r3, [r7, #4]
1000671e:	600a      	str	r2, [r1, #0]
10006720:	604b      	str	r3, [r1, #4]
10006722:	46c0      	nop			@ (mov r8, r8)
10006724:	46bd      	mov	sp, r7
10006726:	b004      	add	sp, #16
10006728:	bd80      	pop	{r7, pc}
1000672a:	46c0      	nop			@ (mov r8, r8)
1000672c:	1000a5f4 	.word	0x1000a5f4
10006730:	1000a6a8 	.word	0x1000a6a8
10006734:	1000a610 	.word	0x1000a610

10006738 <get_absolute_time>:
10006738:	b580      	push	{r7, lr}
1000673a:	b084      	sub	sp, #16
1000673c:	af00      	add	r7, sp, #0
1000673e:	6078      	str	r0, [r7, #4]
10006740:	f7fb fed8 	bl	100024f4 <time_us_64>
10006744:	0002      	movs	r2, r0
10006746:	000b      	movs	r3, r1
10006748:	2108      	movs	r1, #8
1000674a:	1879      	adds	r1, r7, r1
1000674c:	0008      	movs	r0, r1
1000674e:	f7ff ffd3 	bl	100066f8 <update_us_since_boot>
10006752:	6879      	ldr	r1, [r7, #4]
10006754:	68ba      	ldr	r2, [r7, #8]
10006756:	68fb      	ldr	r3, [r7, #12]
10006758:	600a      	str	r2, [r1, #0]
1000675a:	604b      	str	r3, [r1, #4]
1000675c:	6878      	ldr	r0, [r7, #4]
1000675e:	46bd      	mov	sp, r7
10006760:	b004      	add	sp, #16
10006762:	bd80      	pop	{r7, pc}

10006764 <delayed_by_ms>:
10006764:	b5b0      	push	{r4, r5, r7, lr}
10006766:	b08a      	sub	sp, #40	@ 0x28
10006768:	af00      	add	r7, sp, #0
1000676a:	60f8      	str	r0, [r7, #12]
1000676c:	603a      	str	r2, [r7, #0]
1000676e:	607b      	str	r3, [r7, #4]
10006770:	683a      	ldr	r2, [r7, #0]
10006772:	687b      	ldr	r3, [r7, #4]
10006774:	0010      	movs	r0, r2
10006776:	0019      	movs	r1, r3
10006778:	f7ff ffb2 	bl	100066e0 <to_us_since_boot>
1000677c:	0002      	movs	r2, r0
1000677e:	000b      	movs	r3, r1
10006780:	61ba      	str	r2, [r7, #24]
10006782:	61fb      	str	r3, [r7, #28]
10006784:	6bbb      	ldr	r3, [r7, #56]	@ 0x38
10006786:	001c      	movs	r4, r3
10006788:	2300      	movs	r3, #0
1000678a:	001d      	movs	r5, r3
1000678c:	22fa      	movs	r2, #250	@ 0xfa
1000678e:	0092      	lsls	r2, r2, #2
10006790:	2300      	movs	r3, #0
10006792:	0020      	movs	r0, r4
10006794:	0029      	movs	r1, r5
10006796:	f7ff fea9 	bl	100064ec <__wrap___aeabi_lmul>
1000679a:	0002      	movs	r2, r0
1000679c:	000b      	movs	r3, r1
1000679e:	0010      	movs	r0, r2
100067a0:	0019      	movs	r1, r3
100067a2:	69ba      	ldr	r2, [r7, #24]
100067a4:	69fb      	ldr	r3, [r7, #28]
100067a6:	1812      	adds	r2, r2, r0
100067a8:	414b      	adcs	r3, r1
100067aa:	623a      	str	r2, [r7, #32]
100067ac:	627b      	str	r3, [r7, #36]	@ 0x24
100067ae:	6a3a      	ldr	r2, [r7, #32]
100067b0:	6a7b      	ldr	r3, [r7, #36]	@ 0x24
100067b2:	2b00      	cmp	r3, #0
100067b4:	da04      	bge.n	100067c0 <delayed_by_ms+0x5c>
100067b6:	2201      	movs	r2, #1
100067b8:	4252      	negs	r2, r2
100067ba:	4b09      	ldr	r3, [pc, #36]	@ (100067e0 <delayed_by_ms+0x7c>)
100067bc:	623a      	str	r2, [r7, #32]
100067be:	627b      	str	r3, [r7, #36]	@ 0x24
100067c0:	6a3a      	ldr	r2, [r7, #32]
100067c2:	6a7b      	ldr	r3, [r7, #36]	@ 0x24
100067c4:	2110      	movs	r1, #16
100067c6:	1879      	adds	r1, r7, r1
100067c8:	0008      	movs	r0, r1
100067ca:	f7ff ff95 	bl	100066f8 <update_us_since_boot>
100067ce:	68f9      	ldr	r1, [r7, #12]
100067d0:	693a      	ldr	r2, [r7, #16]
100067d2:	697b      	ldr	r3, [r7, #20]
100067d4:	600a      	str	r2, [r1, #0]
100067d6:	604b      	str	r3, [r1, #4]
100067d8:	68f8      	ldr	r0, [r7, #12]
100067da:	46bd      	mov	sp, r7
100067dc:	b00a      	add	sp, #40	@ 0x28
100067de:	bdb0      	pop	{r4, r5, r7, pc}
100067e0:	7fffffff 	.word	0x7fffffff

100067e4 <make_timeout_time_ms>:
100067e4:	b580      	push	{r7, lr}
100067e6:	b086      	sub	sp, #24
100067e8:	af02      	add	r7, sp, #8
100067ea:	6078      	str	r0, [r7, #4]
100067ec:	6039      	str	r1, [r7, #0]
100067ee:	2308      	movs	r3, #8
100067f0:	18fb      	adds	r3, r7, r3
100067f2:	0018      	movs	r0, r3
100067f4:	f7ff ffa0 	bl	10006738 <get_absolute_time>
100067f8:	6878      	ldr	r0, [r7, #4]
100067fa:	68ba      	ldr	r2, [r7, #8]
100067fc:	68fb      	ldr	r3, [r7, #12]
100067fe:	6839      	ldr	r1, [r7, #0]
10006800:	9100      	str	r1, [sp, #0]
10006802:	f7ff ffaf 	bl	10006764 <delayed_by_ms>
10006806:	6878      	ldr	r0, [r7, #4]
10006808:	46bd      	mov	sp, r7
1000680a:	b004      	add	sp, #16
1000680c:	bd80      	pop	{r7, pc}
	...

10006810 <stdout_serialize_begin>:
10006810:	b580      	push	{r7, lr}
10006812:	b082      	sub	sp, #8
10006814:	af00      	add	r7, sp, #0
10006816:	003b      	movs	r3, r7
10006818:	22fa      	movs	r2, #250	@ 0xfa
1000681a:	0092      	lsls	r2, r2, #2
1000681c:	0011      	movs	r1, r2
1000681e:	0018      	movs	r0, r3
10006820:	f7ff ffe0 	bl	100067e4 <make_timeout_time_ms>
10006824:	683a      	ldr	r2, [r7, #0]
10006826:	687b      	ldr	r3, [r7, #4]
10006828:	4904      	ldr	r1, [pc, #16]	@ (1000683c <stdout_serialize_begin+0x2c>)
1000682a:	0008      	movs	r0, r1
1000682c:	f002 fdb4 	bl	10009398 <__mutex_try_enter_block_until_veneer>
10006830:	0003      	movs	r3, r0
10006832:	0018      	movs	r0, r3
10006834:	46bd      	mov	sp, r7
10006836:	b002      	add	sp, #8
10006838:	bd80      	pop	{r7, pc}
1000683a:	46c0      	nop			@ (mov r8, r8)
1000683c:	200005b8 	.word	0x200005b8

10006840 <stdout_serialize_end>:
10006840:	b580      	push	{r7, lr}
10006842:	af00      	add	r7, sp, #0
10006844:	4b03      	ldr	r3, [pc, #12]	@ (10006854 <stdout_serialize_end+0x14>)
10006846:	0018      	movs	r0, r3
10006848:	f002 fd86 	bl	10009358 <__mutex_exit_veneer>
1000684c:	46c0      	nop			@ (mov r8, r8)
1000684e:	46bd      	mov	sp, r7
10006850:	bd80      	pop	{r7, pc}
10006852:	46c0      	nop			@ (mov r8, r8)
10006854:	200005b8 	.word	0x200005b8

10006858 <stdio_out_chars_no_crlf>:
10006858:	b580      	push	{r7, lr}
1000685a:	b084      	sub	sp, #16
1000685c:	af00      	add	r7, sp, #0
1000685e:	60f8      	str	r0, [r7, #12]
10006860:	60b9      	str	r1, [r7, #8]
10006862:	607a      	str	r2, [r7, #4]
10006864:	68fb      	ldr	r3, [r7, #12]
10006866:	681b      	ldr	r3, [r3, #0]
10006868:	6879      	ldr	r1, [r7, #4]
1000686a:	68ba      	ldr	r2, [r7, #8]
1000686c:	0010      	movs	r0, r2
1000686e:	4798      	blx	r3
10006870:	46c0      	nop			@ (mov r8, r8)
10006872:	46bd      	mov	sp, r7
10006874:	b004      	add	sp, #16
10006876:	bd80      	pop	{r7, pc}

10006878 <stdio_out_chars_crlf>:
10006878:	b580      	push	{r7, lr}
1000687a:	b088      	sub	sp, #32
1000687c:	af00      	add	r7, sp, #0
1000687e:	60f8      	str	r0, [r7, #12]
10006880:	60b9      	str	r1, [r7, #8]
10006882:	607a      	str	r2, [r7, #4]
10006884:	68fb      	ldr	r3, [r7, #12]
10006886:	7d5b      	ldrb	r3, [r3, #21]
10006888:	2201      	movs	r2, #1
1000688a:	4053      	eors	r3, r2
1000688c:	b2db      	uxtb	r3, r3
1000688e:	2b00      	cmp	r3, #0
10006890:	d006      	beq.n	100068a0 <stdio_out_chars_crlf+0x28>
10006892:	68fb      	ldr	r3, [r7, #12]
10006894:	681b      	ldr	r3, [r3, #0]
10006896:	6879      	ldr	r1, [r7, #4]
10006898:	68ba      	ldr	r2, [r7, #8]
1000689a:	0010      	movs	r0, r2
1000689c:	4798      	blx	r3
1000689e:	e060      	b.n	10006962 <stdio_out_chars_crlf+0xea>
100068a0:	2300      	movs	r3, #0
100068a2:	61fb      	str	r3, [r7, #28]
100068a4:	2300      	movs	r3, #0
100068a6:	61bb      	str	r3, [r7, #24]
100068a8:	e03b      	b.n	10006922 <stdio_out_chars_crlf+0xaa>
100068aa:	69bb      	ldr	r3, [r7, #24]
100068ac:	2b00      	cmp	r3, #0
100068ae:	dd09      	ble.n	100068c4 <stdio_out_chars_crlf+0x4c>
100068b0:	69bb      	ldr	r3, [r7, #24]
100068b2:	3b01      	subs	r3, #1
100068b4:	68ba      	ldr	r2, [r7, #8]
100068b6:	18d3      	adds	r3, r2, r3
100068b8:	781b      	ldrb	r3, [r3, #0]
100068ba:	3b0d      	subs	r3, #13
100068bc:	425a      	negs	r2, r3
100068be:	4153      	adcs	r3, r2
100068c0:	b2db      	uxtb	r3, r3
100068c2:	e004      	b.n	100068ce <stdio_out_chars_crlf+0x56>
100068c4:	68fb      	ldr	r3, [r7, #12]
100068c6:	7d1b      	ldrb	r3, [r3, #20]
100068c8:	1e5a      	subs	r2, r3, #1
100068ca:	4193      	sbcs	r3, r2
100068cc:	b2db      	uxtb	r3, r3
100068ce:	2117      	movs	r1, #23
100068d0:	187a      	adds	r2, r7, r1
100068d2:	7013      	strb	r3, [r2, #0]
100068d4:	69bb      	ldr	r3, [r7, #24]
100068d6:	68ba      	ldr	r2, [r7, #8]
100068d8:	18d3      	adds	r3, r2, r3
100068da:	781b      	ldrb	r3, [r3, #0]
100068dc:	2b0a      	cmp	r3, #10
100068de:	d11d      	bne.n	1000691c <stdio_out_chars_crlf+0xa4>
100068e0:	187b      	adds	r3, r7, r1
100068e2:	781b      	ldrb	r3, [r3, #0]
100068e4:	2201      	movs	r2, #1
100068e6:	4053      	eors	r3, r2
100068e8:	b2db      	uxtb	r3, r3
100068ea:	2b00      	cmp	r3, #0
100068ec:	d016      	beq.n	1000691c <stdio_out_chars_crlf+0xa4>
100068ee:	69ba      	ldr	r2, [r7, #24]
100068f0:	69fb      	ldr	r3, [r7, #28]
100068f2:	429a      	cmp	r2, r3
100068f4:	dd09      	ble.n	1000690a <stdio_out_chars_crlf+0x92>
100068f6:	68fb      	ldr	r3, [r7, #12]
100068f8:	681b      	ldr	r3, [r3, #0]
100068fa:	69fa      	ldr	r2, [r7, #28]
100068fc:	68b9      	ldr	r1, [r7, #8]
100068fe:	1888      	adds	r0, r1, r2
10006900:	69b9      	ldr	r1, [r7, #24]
10006902:	69fa      	ldr	r2, [r7, #28]
10006904:	1a8a      	subs	r2, r1, r2
10006906:	0011      	movs	r1, r2
10006908:	4798      	blx	r3
1000690a:	68fb      	ldr	r3, [r7, #12]
1000690c:	681b      	ldr	r3, [r3, #0]
1000690e:	4a16      	ldr	r2, [pc, #88]	@ (10006968 <stdio_out_chars_crlf+0xf0>)
10006910:	2102      	movs	r1, #2
10006912:	0010      	movs	r0, r2
10006914:	4798      	blx	r3
10006916:	69bb      	ldr	r3, [r7, #24]
10006918:	3301      	adds	r3, #1
1000691a:	61fb      	str	r3, [r7, #28]
1000691c:	69bb      	ldr	r3, [r7, #24]
1000691e:	3301      	adds	r3, #1
10006920:	61bb      	str	r3, [r7, #24]
10006922:	69ba      	ldr	r2, [r7, #24]
10006924:	687b      	ldr	r3, [r7, #4]
10006926:	429a      	cmp	r2, r3
10006928:	dbbf      	blt.n	100068aa <stdio_out_chars_crlf+0x32>
1000692a:	69fa      	ldr	r2, [r7, #28]
1000692c:	687b      	ldr	r3, [r7, #4]
1000692e:	429a      	cmp	r2, r3
10006930:	da09      	bge.n	10006946 <stdio_out_chars_crlf+0xce>
10006932:	68fb      	ldr	r3, [r7, #12]
10006934:	681b      	ldr	r3, [r3, #0]
10006936:	69fa      	ldr	r2, [r7, #28]
10006938:	68b9      	ldr	r1, [r7, #8]
1000693a:	1888      	adds	r0, r1, r2
1000693c:	6879      	ldr	r1, [r7, #4]
1000693e:	69fa      	ldr	r2, [r7, #28]
10006940:	1a8a      	subs	r2, r1, r2
10006942:	0011      	movs	r1, r2
10006944:	4798      	blx	r3
10006946:	687b      	ldr	r3, [r7, #4]
10006948:	2b00      	cmp	r3, #0
1000694a:	dd0a      	ble.n	10006962 <stdio_out_chars_crlf+0xea>
1000694c:	687b      	ldr	r3, [r7, #4]
1000694e:	3b01      	subs	r3, #1
10006950:	68ba      	ldr	r2, [r7, #8]
10006952:	18d3      	adds	r3, r2, r3
10006954:	781b      	ldrb	r3, [r3, #0]
10006956:	3b0d      	subs	r3, #13
10006958:	425a      	negs	r2, r3
1000695a:	4153      	adcs	r3, r2
1000695c:	b2da      	uxtb	r2, r3
1000695e:	68fb      	ldr	r3, [r7, #12]
10006960:	751a      	strb	r2, [r3, #20]
10006962:	46bd      	mov	sp, r7
10006964:	b008      	add	sp, #32
10006966:	bd80      	pop	{r7, pc}
10006968:	1000a6c0 	.word	0x1000a6c0

1000696c <stdio_put_string>:
1000696c:	b590      	push	{r4, r7, lr}
1000696e:	b089      	sub	sp, #36	@ 0x24
10006970:	af00      	add	r7, sp, #0
10006972:	60f8      	str	r0, [r7, #12]
10006974:	60b9      	str	r1, [r7, #8]
10006976:	0019      	movs	r1, r3
10006978:	1dfb      	adds	r3, r7, #7
1000697a:	701a      	strb	r2, [r3, #0]
1000697c:	1dbb      	adds	r3, r7, #6
1000697e:	1c0a      	adds	r2, r1, #0
10006980:	701a      	strb	r2, [r3, #0]
10006982:	231b      	movs	r3, #27
10006984:	18fc      	adds	r4, r7, r3
10006986:	f7ff ff43 	bl	10006810 <stdout_serialize_begin>
1000698a:	0003      	movs	r3, r0
1000698c:	7023      	strb	r3, [r4, #0]
1000698e:	68bb      	ldr	r3, [r7, #8]
10006990:	3301      	adds	r3, #1
10006992:	d105      	bne.n	100069a0 <stdio_put_string+0x34>
10006994:	68fb      	ldr	r3, [r7, #12]
10006996:	0018      	movs	r0, r3
10006998:	f002 fca6 	bl	100092e8 <strlen>
1000699c:	0003      	movs	r3, r0
1000699e:	60bb      	str	r3, [r7, #8]
100069a0:	1dbb      	adds	r3, r7, #6
100069a2:	781b      	ldrb	r3, [r3, #0]
100069a4:	2b00      	cmp	r3, #0
100069a6:	d001      	beq.n	100069ac <stdio_put_string+0x40>
100069a8:	4b1f      	ldr	r3, [pc, #124]	@ (10006a28 <stdio_put_string+0xbc>)
100069aa:	e000      	b.n	100069ae <stdio_put_string+0x42>
100069ac:	4b1f      	ldr	r3, [pc, #124]	@ (10006a2c <stdio_put_string+0xc0>)
100069ae:	617b      	str	r3, [r7, #20]
100069b0:	4b1f      	ldr	r3, [pc, #124]	@ (10006a30 <stdio_put_string+0xc4>)
100069b2:	681b      	ldr	r3, [r3, #0]
100069b4:	61fb      	str	r3, [r7, #28]
100069b6:	e025      	b.n	10006a04 <stdio_put_string+0x98>
100069b8:	69fb      	ldr	r3, [r7, #28]
100069ba:	681b      	ldr	r3, [r3, #0]
100069bc:	2b00      	cmp	r3, #0
100069be:	d01b      	beq.n	100069f8 <stdio_put_string+0x8c>
100069c0:	4b1c      	ldr	r3, [pc, #112]	@ (10006a34 <stdio_put_string+0xc8>)
100069c2:	681b      	ldr	r3, [r3, #0]
100069c4:	2b00      	cmp	r3, #0
100069c6:	d004      	beq.n	100069d2 <stdio_put_string+0x66>
100069c8:	4b1a      	ldr	r3, [pc, #104]	@ (10006a34 <stdio_put_string+0xc8>)
100069ca:	681b      	ldr	r3, [r3, #0]
100069cc:	69fa      	ldr	r2, [r7, #28]
100069ce:	429a      	cmp	r2, r3
100069d0:	d114      	bne.n	100069fc <stdio_put_string+0x90>
100069d2:	68ba      	ldr	r2, [r7, #8]
100069d4:	68f9      	ldr	r1, [r7, #12]
100069d6:	69f8      	ldr	r0, [r7, #28]
100069d8:	697b      	ldr	r3, [r7, #20]
100069da:	4798      	blx	r3
100069dc:	1dfb      	adds	r3, r7, #7
100069de:	781b      	ldrb	r3, [r3, #0]
100069e0:	2b00      	cmp	r3, #0
100069e2:	d00c      	beq.n	100069fe <stdio_put_string+0x92>
100069e4:	2113      	movs	r1, #19
100069e6:	187b      	adds	r3, r7, r1
100069e8:	220a      	movs	r2, #10
100069ea:	701a      	strb	r2, [r3, #0]
100069ec:	1879      	adds	r1, r7, r1
100069ee:	69f8      	ldr	r0, [r7, #28]
100069f0:	697b      	ldr	r3, [r7, #20]
100069f2:	2201      	movs	r2, #1
100069f4:	4798      	blx	r3
100069f6:	e002      	b.n	100069fe <stdio_put_string+0x92>
100069f8:	46c0      	nop			@ (mov r8, r8)
100069fa:	e000      	b.n	100069fe <stdio_put_string+0x92>
100069fc:	46c0      	nop			@ (mov r8, r8)
100069fe:	69fb      	ldr	r3, [r7, #28]
10006a00:	691b      	ldr	r3, [r3, #16]
10006a02:	61fb      	str	r3, [r7, #28]
10006a04:	69fb      	ldr	r3, [r7, #28]
10006a06:	2b00      	cmp	r3, #0
10006a08:	d1d6      	bne.n	100069b8 <stdio_put_string+0x4c>
10006a0a:	231b      	movs	r3, #27
10006a0c:	18fb      	adds	r3, r7, r3
10006a0e:	781b      	ldrb	r3, [r3, #0]
10006a10:	2b00      	cmp	r3, #0
10006a12:	d001      	beq.n	10006a18 <stdio_put_string+0xac>
10006a14:	f7ff ff14 	bl	10006840 <stdout_serialize_end>
10006a18:	68bb      	ldr	r3, [r7, #8]
10006a1a:	1e5a      	subs	r2, r3, #1
10006a1c:	4193      	sbcs	r3, r2
10006a1e:	b2db      	uxtb	r3, r3
10006a20:	0018      	movs	r0, r3
10006a22:	46bd      	mov	sp, r7
10006a24:	b009      	add	sp, #36	@ 0x24
10006a26:	bd90      	pop	{r4, r7, pc}
10006a28:	10006859 	.word	0x10006859
10006a2c:	10006879 	.word	0x10006879
10006a30:	2000076c 	.word	0x2000076c
10006a34:	20000770 	.word	0x20000770

10006a38 <__wrap_puts>:
10006a38:	b580      	push	{r7, lr}
10006a3a:	b084      	sub	sp, #16
10006a3c:	af00      	add	r7, sp, #0
10006a3e:	6078      	str	r0, [r7, #4]
10006a40:	687b      	ldr	r3, [r7, #4]
10006a42:	0018      	movs	r0, r3
10006a44:	f002 fc50 	bl	100092e8 <strlen>
10006a48:	0003      	movs	r3, r0
10006a4a:	60fb      	str	r3, [r7, #12]
10006a4c:	68f9      	ldr	r1, [r7, #12]
10006a4e:	6878      	ldr	r0, [r7, #4]
10006a50:	2300      	movs	r3, #0
10006a52:	2201      	movs	r2, #1
10006a54:	f7ff ff8a 	bl	1000696c <stdio_put_string>
10006a58:	f000 f83a 	bl	10006ad0 <stdio_flush>
10006a5c:	68fb      	ldr	r3, [r7, #12]
10006a5e:	0018      	movs	r0, r3
10006a60:	46bd      	mov	sp, r7
10006a62:	b004      	add	sp, #16
10006a64:	bd80      	pop	{r7, pc}
	...

10006a68 <stdio_set_driver_enabled>:
10006a68:	b580      	push	{r7, lr}
10006a6a:	b084      	sub	sp, #16
10006a6c:	af00      	add	r7, sp, #0
10006a6e:	6078      	str	r0, [r7, #4]
10006a70:	000a      	movs	r2, r1
10006a72:	1cfb      	adds	r3, r7, #3
10006a74:	701a      	strb	r2, [r3, #0]
10006a76:	4b15      	ldr	r3, [pc, #84]	@ (10006acc <stdio_set_driver_enabled+0x64>)
10006a78:	60fb      	str	r3, [r7, #12]
10006a7a:	e017      	b.n	10006aac <stdio_set_driver_enabled+0x44>
10006a7c:	68fb      	ldr	r3, [r7, #12]
10006a7e:	681b      	ldr	r3, [r3, #0]
10006a80:	687a      	ldr	r2, [r7, #4]
10006a82:	429a      	cmp	r2, r3
10006a84:	d10e      	bne.n	10006aa4 <stdio_set_driver_enabled+0x3c>
10006a86:	1cfb      	adds	r3, r7, #3
10006a88:	781b      	ldrb	r3, [r3, #0]
10006a8a:	2201      	movs	r2, #1
10006a8c:	4053      	eors	r3, r2
10006a8e:	b2db      	uxtb	r3, r3
10006a90:	2b00      	cmp	r3, #0
10006a92:	d017      	beq.n	10006ac4 <stdio_set_driver_enabled+0x5c>
10006a94:	687b      	ldr	r3, [r7, #4]
10006a96:	691a      	ldr	r2, [r3, #16]
10006a98:	68fb      	ldr	r3, [r7, #12]
10006a9a:	601a      	str	r2, [r3, #0]
10006a9c:	687b      	ldr	r3, [r7, #4]
10006a9e:	2200      	movs	r2, #0
10006aa0:	611a      	str	r2, [r3, #16]
10006aa2:	e00f      	b.n	10006ac4 <stdio_set_driver_enabled+0x5c>
10006aa4:	68fb      	ldr	r3, [r7, #12]
10006aa6:	681b      	ldr	r3, [r3, #0]
10006aa8:	3310      	adds	r3, #16
10006aaa:	60fb      	str	r3, [r7, #12]
10006aac:	68fb      	ldr	r3, [r7, #12]
10006aae:	681b      	ldr	r3, [r3, #0]
10006ab0:	2b00      	cmp	r3, #0
10006ab2:	d1e3      	bne.n	10006a7c <stdio_set_driver_enabled+0x14>
10006ab4:	1cfb      	adds	r3, r7, #3
10006ab6:	781b      	ldrb	r3, [r3, #0]
10006ab8:	2b00      	cmp	r3, #0
10006aba:	d004      	beq.n	10006ac6 <stdio_set_driver_enabled+0x5e>
10006abc:	68fb      	ldr	r3, [r7, #12]
10006abe:	687a      	ldr	r2, [r7, #4]
10006ac0:	601a      	str	r2, [r3, #0]
10006ac2:	e000      	b.n	10006ac6 <stdio_set_driver_enabled+0x5e>
10006ac4:	46c0      	nop			@ (mov r8, r8)
10006ac6:	46bd      	mov	sp, r7
10006ac8:	b004      	add	sp, #16
10006aca:	bd80      	pop	{r7, pc}
10006acc:	2000076c 	.word	0x2000076c

10006ad0 <stdio_flush>:
10006ad0:	b580      	push	{r7, lr}
10006ad2:	b082      	sub	sp, #8
10006ad4:	af00      	add	r7, sp, #0
10006ad6:	4b0b      	ldr	r3, [pc, #44]	@ (10006b04 <stdio_flush+0x34>)
10006ad8:	681b      	ldr	r3, [r3, #0]
10006ada:	607b      	str	r3, [r7, #4]
10006adc:	e009      	b.n	10006af2 <stdio_flush+0x22>
10006ade:	687b      	ldr	r3, [r7, #4]
10006ae0:	685b      	ldr	r3, [r3, #4]
10006ae2:	2b00      	cmp	r3, #0
10006ae4:	d002      	beq.n	10006aec <stdio_flush+0x1c>
10006ae6:	687b      	ldr	r3, [r7, #4]
10006ae8:	685b      	ldr	r3, [r3, #4]
10006aea:	4798      	blx	r3
10006aec:	687b      	ldr	r3, [r7, #4]
10006aee:	691b      	ldr	r3, [r3, #16]
10006af0:	607b      	str	r3, [r7, #4]
10006af2:	687b      	ldr	r3, [r7, #4]
10006af4:	2b00      	cmp	r3, #0
10006af6:	d1f2      	bne.n	10006ade <stdio_flush+0xe>
10006af8:	46c0      	nop			@ (mov r8, r8)
10006afa:	46c0      	nop			@ (mov r8, r8)
10006afc:	46bd      	mov	sp, r7
10006afe:	b002      	add	sp, #8
10006b00:	bd80      	pop	{r7, pc}
10006b02:	46c0      	nop			@ (mov r8, r8)
10006b04:	2000076c 	.word	0x2000076c

10006b08 <stdio_stack_buffer_flush>:
10006b08:	b580      	push	{r7, lr}
10006b0a:	b084      	sub	sp, #16
10006b0c:	af00      	add	r7, sp, #0
10006b0e:	6078      	str	r0, [r7, #4]
10006b10:	687b      	ldr	r3, [r7, #4]
10006b12:	681b      	ldr	r3, [r3, #0]
10006b14:	2b00      	cmp	r3, #0
10006b16:	d025      	beq.n	10006b64 <stdio_stack_buffer_flush+0x5c>
10006b18:	4b14      	ldr	r3, [pc, #80]	@ (10006b6c <stdio_stack_buffer_flush+0x64>)
10006b1a:	681b      	ldr	r3, [r3, #0]
10006b1c:	60fb      	str	r3, [r7, #12]
10006b1e:	e01b      	b.n	10006b58 <stdio_stack_buffer_flush+0x50>
10006b20:	68fb      	ldr	r3, [r7, #12]
10006b22:	681b      	ldr	r3, [r3, #0]
10006b24:	2b00      	cmp	r3, #0
10006b26:	d011      	beq.n	10006b4c <stdio_stack_buffer_flush+0x44>
10006b28:	4b11      	ldr	r3, [pc, #68]	@ (10006b70 <stdio_stack_buffer_flush+0x68>)
10006b2a:	681b      	ldr	r3, [r3, #0]
10006b2c:	2b00      	cmp	r3, #0
10006b2e:	d004      	beq.n	10006b3a <stdio_stack_buffer_flush+0x32>
10006b30:	4b0f      	ldr	r3, [pc, #60]	@ (10006b70 <stdio_stack_buffer_flush+0x68>)
10006b32:	681b      	ldr	r3, [r3, #0]
10006b34:	68fa      	ldr	r2, [r7, #12]
10006b36:	429a      	cmp	r2, r3
10006b38:	d10a      	bne.n	10006b50 <stdio_stack_buffer_flush+0x48>
10006b3a:	687b      	ldr	r3, [r7, #4]
10006b3c:	1d19      	adds	r1, r3, #4
10006b3e:	687b      	ldr	r3, [r7, #4]
10006b40:	681a      	ldr	r2, [r3, #0]
10006b42:	68fb      	ldr	r3, [r7, #12]
10006b44:	0018      	movs	r0, r3
10006b46:	f7ff fe97 	bl	10006878 <stdio_out_chars_crlf>
10006b4a:	e002      	b.n	10006b52 <stdio_stack_buffer_flush+0x4a>
10006b4c:	46c0      	nop			@ (mov r8, r8)
10006b4e:	e000      	b.n	10006b52 <stdio_stack_buffer_flush+0x4a>
10006b50:	46c0      	nop			@ (mov r8, r8)
10006b52:	68fb      	ldr	r3, [r7, #12]
10006b54:	691b      	ldr	r3, [r3, #16]
10006b56:	60fb      	str	r3, [r7, #12]
10006b58:	68fb      	ldr	r3, [r7, #12]
10006b5a:	2b00      	cmp	r3, #0
10006b5c:	d1e0      	bne.n	10006b20 <stdio_stack_buffer_flush+0x18>
10006b5e:	687b      	ldr	r3, [r7, #4]
10006b60:	2200      	movs	r2, #0
10006b62:	601a      	str	r2, [r3, #0]
10006b64:	46c0      	nop			@ (mov r8, r8)
10006b66:	46bd      	mov	sp, r7
10006b68:	b004      	add	sp, #16
10006b6a:	bd80      	pop	{r7, pc}
10006b6c:	2000076c 	.word	0x2000076c
10006b70:	20000770 	.word	0x20000770

10006b74 <stdio_buffered_printer>:
10006b74:	b580      	push	{r7, lr}
10006b76:	b084      	sub	sp, #16
10006b78:	af00      	add	r7, sp, #0
10006b7a:	0002      	movs	r2, r0
10006b7c:	6039      	str	r1, [r7, #0]
10006b7e:	1dfb      	adds	r3, r7, #7
10006b80:	701a      	strb	r2, [r3, #0]
10006b82:	683b      	ldr	r3, [r7, #0]
10006b84:	60fb      	str	r3, [r7, #12]
10006b86:	68fb      	ldr	r3, [r7, #12]
10006b88:	681b      	ldr	r3, [r3, #0]
10006b8a:	2b80      	cmp	r3, #128	@ 0x80
10006b8c:	d103      	bne.n	10006b96 <stdio_buffered_printer+0x22>
10006b8e:	68fb      	ldr	r3, [r7, #12]
10006b90:	0018      	movs	r0, r3
10006b92:	f7ff ffb9 	bl	10006b08 <stdio_stack_buffer_flush>
10006b96:	68fb      	ldr	r3, [r7, #12]
10006b98:	681b      	ldr	r3, [r3, #0]
10006b9a:	1c59      	adds	r1, r3, #1
10006b9c:	68fa      	ldr	r2, [r7, #12]
10006b9e:	6011      	str	r1, [r2, #0]
10006ba0:	68fa      	ldr	r2, [r7, #12]
10006ba2:	18d3      	adds	r3, r2, r3
10006ba4:	1dfa      	adds	r2, r7, #7
10006ba6:	7812      	ldrb	r2, [r2, #0]
10006ba8:	711a      	strb	r2, [r3, #4]
10006baa:	46c0      	nop			@ (mov r8, r8)
10006bac:	46bd      	mov	sp, r7
10006bae:	b004      	add	sp, #16
10006bb0:	bd80      	pop	{r7, pc}
	...

10006bb4 <__wrap_vprintf>:
10006bb4:	b5b0      	push	{r4, r5, r7, lr}
10006bb6:	b0a6      	sub	sp, #152	@ 0x98
10006bb8:	af00      	add	r7, sp, #0
10006bba:	6078      	str	r0, [r7, #4]
10006bbc:	6039      	str	r1, [r7, #0]
10006bbe:	2597      	movs	r5, #151	@ 0x97
10006bc0:	197c      	adds	r4, r7, r5
10006bc2:	f7ff fe25 	bl	10006810 <stdout_serialize_begin>
10006bc6:	0003      	movs	r3, r0
10006bc8:	7023      	strb	r3, [r4, #0]
10006bca:	240c      	movs	r4, #12
10006bcc:	193b      	adds	r3, r7, r4
10006bce:	2200      	movs	r2, #0
10006bd0:	601a      	str	r2, [r3, #0]
10006bd2:	683b      	ldr	r3, [r7, #0]
10006bd4:	687a      	ldr	r2, [r7, #4]
10006bd6:	1939      	adds	r1, r7, r4
10006bd8:	480c      	ldr	r0, [pc, #48]	@ (10006c0c <__wrap_vprintf+0x58>)
10006bda:	f7fe fd5b 	bl	10005694 <vfctprintf>
10006bde:	0003      	movs	r3, r0
10006be0:	2290      	movs	r2, #144	@ 0x90
10006be2:	18ba      	adds	r2, r7, r2
10006be4:	6013      	str	r3, [r2, #0]
10006be6:	193b      	adds	r3, r7, r4
10006be8:	0018      	movs	r0, r3
10006bea:	f7ff ff8d 	bl	10006b08 <stdio_stack_buffer_flush>
10006bee:	f7ff ff6f 	bl	10006ad0 <stdio_flush>
10006bf2:	197b      	adds	r3, r7, r5
10006bf4:	781b      	ldrb	r3, [r3, #0]
10006bf6:	2b00      	cmp	r3, #0
10006bf8:	d001      	beq.n	10006bfe <__wrap_vprintf+0x4a>
10006bfa:	f7ff fe21 	bl	10006840 <stdout_serialize_end>
10006bfe:	2390      	movs	r3, #144	@ 0x90
10006c00:	18fb      	adds	r3, r7, r3
10006c02:	681b      	ldr	r3, [r3, #0]
10006c04:	0018      	movs	r0, r3
10006c06:	46bd      	mov	sp, r7
10006c08:	b026      	add	sp, #152	@ 0x98
10006c0a:	bdb0      	pop	{r4, r5, r7, pc}
10006c0c:	10006b75 	.word	0x10006b75

10006c10 <__wrap_printf>:
10006c10:	b40f      	push	{r0, r1, r2, r3}
10006c12:	b580      	push	{r7, lr}
10006c14:	b082      	sub	sp, #8
10006c16:	af00      	add	r7, sp, #0
10006c18:	2314      	movs	r3, #20
10006c1a:	18fb      	adds	r3, r7, r3
10006c1c:	603b      	str	r3, [r7, #0]
10006c1e:	683a      	ldr	r2, [r7, #0]
10006c20:	693b      	ldr	r3, [r7, #16]
10006c22:	0011      	movs	r1, r2
10006c24:	0018      	movs	r0, r3
10006c26:	f7ff ffc5 	bl	10006bb4 <__wrap_vprintf>
10006c2a:	0003      	movs	r3, r0
10006c2c:	607b      	str	r3, [r7, #4]
10006c2e:	687b      	ldr	r3, [r7, #4]
10006c30:	0018      	movs	r0, r3
10006c32:	46bd      	mov	sp, r7
10006c34:	b002      	add	sp, #8
10006c36:	bc80      	pop	{r7}
10006c38:	bc08      	pop	{r3}
10006c3a:	b004      	add	sp, #16
10006c3c:	4718      	bx	r3

10006c3e <stdio_init_all>:
10006c3e:	b580      	push	{r7, lr}
10006c40:	b082      	sub	sp, #8
10006c42:	af00      	add	r7, sp, #0
10006c44:	1dfb      	adds	r3, r7, #7
10006c46:	2200      	movs	r2, #0
10006c48:	701a      	strb	r2, [r3, #0]
10006c4a:	f000 f95f 	bl	10006f0c <stdio_uart_init>
10006c4e:	1dfb      	adds	r3, r7, #7
10006c50:	2201      	movs	r2, #1
10006c52:	701a      	strb	r2, [r3, #0]
10006c54:	1dfb      	adds	r3, r7, #7
10006c56:	781b      	ldrb	r3, [r3, #0]
10006c58:	0018      	movs	r0, r3
10006c5a:	46bd      	mov	sp, r7
10006c5c:	b002      	add	sp, #8
10006c5e:	bd80      	pop	{r7, pc}

10006c60 <uart_get_index>:
10006c60:	b580      	push	{r7, lr}
10006c62:	b082      	sub	sp, #8
10006c64:	af00      	add	r7, sp, #0
10006c66:	6078      	str	r0, [r7, #4]
10006c68:	687b      	ldr	r3, [r7, #4]
10006c6a:	4a05      	ldr	r2, [pc, #20]	@ (10006c80 <uart_get_index+0x20>)
10006c6c:	4694      	mov	ip, r2
10006c6e:	4463      	add	r3, ip
10006c70:	425a      	negs	r2, r3
10006c72:	4153      	adcs	r3, r2
10006c74:	b2db      	uxtb	r3, r3
10006c76:	0018      	movs	r0, r3
10006c78:	46bd      	mov	sp, r7
10006c7a:	b002      	add	sp, #8
10006c7c:	bd80      	pop	{r7, pc}
10006c7e:	46c0      	nop			@ (mov r8, r8)
10006c80:	bffc8000 	.word	0xbffc8000

10006c84 <uart_get_hw>:
10006c84:	b580      	push	{r7, lr}
10006c86:	b082      	sub	sp, #8
10006c88:	af00      	add	r7, sp, #0
10006c8a:	6078      	str	r0, [r7, #4]
10006c8c:	687b      	ldr	r3, [r7, #4]
10006c8e:	0018      	movs	r0, r3
10006c90:	f7ff ffe6 	bl	10006c60 <uart_get_index>
10006c94:	687b      	ldr	r3, [r7, #4]
10006c96:	0018      	movs	r0, r3
10006c98:	46bd      	mov	sp, r7
10006c9a:	b002      	add	sp, #8
10006c9c:	bd80      	pop	{r7, pc}

10006c9e <uart_set_irq_enables>:
10006c9e:	b5b0      	push	{r4, r5, r7, lr}
10006ca0:	b08c      	sub	sp, #48	@ 0x30
10006ca2:	af00      	add	r7, sp, #0
10006ca4:	6078      	str	r0, [r7, #4]
10006ca6:	0008      	movs	r0, r1
10006ca8:	0011      	movs	r1, r2
10006caa:	1cfb      	adds	r3, r7, #3
10006cac:	1c02      	adds	r2, r0, #0
10006cae:	701a      	strb	r2, [r3, #0]
10006cb0:	1cbb      	adds	r3, r7, #2
10006cb2:	1c0a      	adds	r2, r1, #0
10006cb4:	701a      	strb	r2, [r3, #0]
10006cb6:	1cbb      	adds	r3, r7, #2
10006cb8:	781b      	ldrb	r3, [r3, #0]
10006cba:	2b00      	cmp	r3, #0
10006cbc:	d001      	beq.n	10006cc2 <uart_set_irq_enables+0x24>
10006cbe:	2220      	movs	r2, #32
10006cc0:	e000      	b.n	10006cc4 <uart_set_irq_enables+0x26>
10006cc2:	2200      	movs	r2, #0
10006cc4:	1cfb      	adds	r3, r7, #3
10006cc6:	781b      	ldrb	r3, [r3, #0]
10006cc8:	2b00      	cmp	r3, #0
10006cca:	d001      	beq.n	10006cd0 <uart_set_irq_enables+0x32>
10006ccc:	2310      	movs	r3, #16
10006cce:	e000      	b.n	10006cd2 <uart_set_irq_enables+0x34>
10006cd0:	2300      	movs	r3, #0
10006cd2:	431a      	orrs	r2, r3
10006cd4:	0015      	movs	r5, r2
10006cd6:	1cfb      	adds	r3, r7, #3
10006cd8:	781b      	ldrb	r3, [r3, #0]
10006cda:	2b00      	cmp	r3, #0
10006cdc:	d001      	beq.n	10006ce2 <uart_set_irq_enables+0x44>
10006cde:	2440      	movs	r4, #64	@ 0x40
10006ce0:	e000      	b.n	10006ce4 <uart_set_irq_enables+0x46>
10006ce2:	2400      	movs	r4, #0
10006ce4:	687b      	ldr	r3, [r7, #4]
10006ce6:	0018      	movs	r0, r3
10006ce8:	f7ff ffcc 	bl	10006c84 <uart_get_hw>
10006cec:	0003      	movs	r3, r0
10006cee:	0022      	movs	r2, r4
10006cf0:	432a      	orrs	r2, r5
10006cf2:	639a      	str	r2, [r3, #56]	@ 0x38
10006cf4:	1cfb      	adds	r3, r7, #3
10006cf6:	781b      	ldrb	r3, [r3, #0]
10006cf8:	2b00      	cmp	r3, #0
10006cfa:	d01b      	beq.n	10006d34 <uart_set_irq_enables+0x96>
10006cfc:	687b      	ldr	r3, [r7, #4]
10006cfe:	0018      	movs	r0, r3
10006d00:	f7ff ffc0 	bl	10006c84 <uart_get_hw>
10006d04:	0003      	movs	r3, r0
10006d06:	3334      	adds	r3, #52	@ 0x34
10006d08:	62fb      	str	r3, [r7, #44]	@ 0x2c
10006d0a:	2300      	movs	r3, #0
10006d0c:	62bb      	str	r3, [r7, #40]	@ 0x28
10006d0e:	2338      	movs	r3, #56	@ 0x38
10006d10:	627b      	str	r3, [r7, #36]	@ 0x24
10006d12:	6afb      	ldr	r3, [r7, #44]	@ 0x2c
10006d14:	681a      	ldr	r2, [r3, #0]
10006d16:	6abb      	ldr	r3, [r7, #40]	@ 0x28
10006d18:	4053      	eors	r3, r2
10006d1a:	6a7a      	ldr	r2, [r7, #36]	@ 0x24
10006d1c:	4013      	ands	r3, r2
10006d1e:	6afa      	ldr	r2, [r7, #44]	@ 0x2c
10006d20:	623a      	str	r2, [r7, #32]
10006d22:	61fb      	str	r3, [r7, #28]
10006d24:	6a3b      	ldr	r3, [r7, #32]
10006d26:	2280      	movs	r2, #128	@ 0x80
10006d28:	0152      	lsls	r2, r2, #5
10006d2a:	4313      	orrs	r3, r2
10006d2c:	69fa      	ldr	r2, [r7, #28]
10006d2e:	601a      	str	r2, [r3, #0]
10006d30:	46c0      	nop			@ (mov r8, r8)
10006d32:	46c0      	nop			@ (mov r8, r8)
10006d34:	1cbb      	adds	r3, r7, #2
10006d36:	781b      	ldrb	r3, [r3, #0]
10006d38:	2b00      	cmp	r3, #0
10006d3a:	d01b      	beq.n	10006d74 <uart_set_irq_enables+0xd6>
10006d3c:	687b      	ldr	r3, [r7, #4]
10006d3e:	0018      	movs	r0, r3
10006d40:	f7ff ffa0 	bl	10006c84 <uart_get_hw>
10006d44:	0003      	movs	r3, r0
10006d46:	3334      	adds	r3, #52	@ 0x34
10006d48:	61bb      	str	r3, [r7, #24]
10006d4a:	2300      	movs	r3, #0
10006d4c:	617b      	str	r3, [r7, #20]
10006d4e:	2307      	movs	r3, #7
10006d50:	613b      	str	r3, [r7, #16]
10006d52:	69bb      	ldr	r3, [r7, #24]
10006d54:	681a      	ldr	r2, [r3, #0]
10006d56:	697b      	ldr	r3, [r7, #20]
10006d58:	4053      	eors	r3, r2
10006d5a:	693a      	ldr	r2, [r7, #16]
10006d5c:	4013      	ands	r3, r2
10006d5e:	69ba      	ldr	r2, [r7, #24]
10006d60:	60fa      	str	r2, [r7, #12]
10006d62:	60bb      	str	r3, [r7, #8]
10006d64:	68fb      	ldr	r3, [r7, #12]
10006d66:	2280      	movs	r2, #128	@ 0x80
10006d68:	0152      	lsls	r2, r2, #5
10006d6a:	4313      	orrs	r3, r2
10006d6c:	68ba      	ldr	r2, [r7, #8]
10006d6e:	601a      	str	r2, [r3, #0]
10006d70:	46c0      	nop			@ (mov r8, r8)
10006d72:	46c0      	nop			@ (mov r8, r8)
10006d74:	46c0      	nop			@ (mov r8, r8)
10006d76:	46bd      	mov	sp, r7
10006d78:	b00c      	add	sp, #48	@ 0x30
10006d7a:	bdb0      	pop	{r4, r5, r7, pc}

10006d7c <uart_is_writable>:
10006d7c:	b580      	push	{r7, lr}
10006d7e:	b082      	sub	sp, #8
10006d80:	af00      	add	r7, sp, #0
10006d82:	6078      	str	r0, [r7, #4]
10006d84:	687b      	ldr	r3, [r7, #4]
10006d86:	0018      	movs	r0, r3
10006d88:	f7ff ff7c 	bl	10006c84 <uart_get_hw>
10006d8c:	0003      	movs	r3, r0
10006d8e:	699b      	ldr	r3, [r3, #24]
10006d90:	2220      	movs	r2, #32
10006d92:	4013      	ands	r3, r2
10006d94:	425a      	negs	r2, r3
10006d96:	4153      	adcs	r3, r2
10006d98:	b2db      	uxtb	r3, r3
10006d9a:	0018      	movs	r0, r3
10006d9c:	46bd      	mov	sp, r7
10006d9e:	b002      	add	sp, #8
10006da0:	bd80      	pop	{r7, pc}

10006da2 <uart_is_readable>:
10006da2:	b580      	push	{r7, lr}
10006da4:	b082      	sub	sp, #8
10006da6:	af00      	add	r7, sp, #0
10006da8:	6078      	str	r0, [r7, #4]
10006daa:	687b      	ldr	r3, [r7, #4]
10006dac:	0018      	movs	r0, r3
10006dae:	f7ff ff69 	bl	10006c84 <uart_get_hw>
10006db2:	0003      	movs	r3, r0
10006db4:	699b      	ldr	r3, [r3, #24]
10006db6:	2210      	movs	r2, #16
10006db8:	4013      	ands	r3, r2
10006dba:	425a      	negs	r2, r3
10006dbc:	4153      	adcs	r3, r2
10006dbe:	b2db      	uxtb	r3, r3
10006dc0:	0018      	movs	r0, r3
10006dc2:	46bd      	mov	sp, r7
10006dc4:	b002      	add	sp, #8
10006dc6:	bd80      	pop	{r7, pc}

10006dc8 <uart_write_blocking>:
10006dc8:	b590      	push	{r4, r7, lr}
10006dca:	b087      	sub	sp, #28
10006dcc:	af00      	add	r7, sp, #0
10006dce:	60f8      	str	r0, [r7, #12]
10006dd0:	60b9      	str	r1, [r7, #8]
10006dd2:	607a      	str	r2, [r7, #4]
10006dd4:	2300      	movs	r3, #0
10006dd6:	617b      	str	r3, [r7, #20]
10006dd8:	e019      	b.n	10006e0e <uart_write_blocking+0x46>
10006dda:	46c0      	nop			@ (mov r8, r8)
10006ddc:	68fb      	ldr	r3, [r7, #12]
10006dde:	0018      	movs	r0, r3
10006de0:	f7ff ffcc 	bl	10006d7c <uart_is_writable>
10006de4:	0003      	movs	r3, r0
10006de6:	001a      	movs	r2, r3
10006de8:	2301      	movs	r3, #1
10006dea:	4053      	eors	r3, r2
10006dec:	b2db      	uxtb	r3, r3
10006dee:	2b00      	cmp	r3, #0
10006df0:	d1f3      	bne.n	10006dda <uart_write_blocking+0x12>
10006df2:	68bb      	ldr	r3, [r7, #8]
10006df4:	1c5a      	adds	r2, r3, #1
10006df6:	60ba      	str	r2, [r7, #8]
10006df8:	781c      	ldrb	r4, [r3, #0]
10006dfa:	68fb      	ldr	r3, [r7, #12]
10006dfc:	0018      	movs	r0, r3
10006dfe:	f7ff ff41 	bl	10006c84 <uart_get_hw>
10006e02:	0003      	movs	r3, r0
10006e04:	0022      	movs	r2, r4
10006e06:	601a      	str	r2, [r3, #0]
10006e08:	697b      	ldr	r3, [r7, #20]
10006e0a:	3301      	adds	r3, #1
10006e0c:	617b      	str	r3, [r7, #20]
10006e0e:	697a      	ldr	r2, [r7, #20]
10006e10:	687b      	ldr	r3, [r7, #4]
10006e12:	429a      	cmp	r2, r3
10006e14:	d3e2      	bcc.n	10006ddc <uart_write_blocking+0x14>
10006e16:	46c0      	nop			@ (mov r8, r8)
10006e18:	46c0      	nop			@ (mov r8, r8)
10006e1a:	46bd      	mov	sp, r7
10006e1c:	b007      	add	sp, #28
10006e1e:	bd90      	pop	{r4, r7, pc}

10006e20 <uart_read_blocking>:
10006e20:	b580      	push	{r7, lr}
10006e22:	b086      	sub	sp, #24
10006e24:	af00      	add	r7, sp, #0
10006e26:	60f8      	str	r0, [r7, #12]
10006e28:	60b9      	str	r1, [r7, #8]
10006e2a:	607a      	str	r2, [r7, #4]
10006e2c:	2300      	movs	r3, #0
10006e2e:	617b      	str	r3, [r7, #20]
10006e30:	e019      	b.n	10006e66 <uart_read_blocking+0x46>
10006e32:	46c0      	nop			@ (mov r8, r8)
10006e34:	68fb      	ldr	r3, [r7, #12]
10006e36:	0018      	movs	r0, r3
10006e38:	f7ff ffb3 	bl	10006da2 <uart_is_readable>
10006e3c:	0003      	movs	r3, r0
10006e3e:	001a      	movs	r2, r3
10006e40:	2301      	movs	r3, #1
10006e42:	4053      	eors	r3, r2
10006e44:	b2db      	uxtb	r3, r3
10006e46:	2b00      	cmp	r3, #0
10006e48:	d1f3      	bne.n	10006e32 <uart_read_blocking+0x12>
10006e4a:	68fb      	ldr	r3, [r7, #12]
10006e4c:	0018      	movs	r0, r3
10006e4e:	f7ff ff19 	bl	10006c84 <uart_get_hw>
10006e52:	0003      	movs	r3, r0
10006e54:	6819      	ldr	r1, [r3, #0]
10006e56:	68bb      	ldr	r3, [r7, #8]
10006e58:	1c5a      	adds	r2, r3, #1
10006e5a:	60ba      	str	r2, [r7, #8]
10006e5c:	b2ca      	uxtb	r2, r1
10006e5e:	701a      	strb	r2, [r3, #0]
10006e60:	697b      	ldr	r3, [r7, #20]
10006e62:	3301      	adds	r3, #1
10006e64:	617b      	str	r3, [r7, #20]
10006e66:	697a      	ldr	r2, [r7, #20]
10006e68:	687b      	ldr	r3, [r7, #4]
10006e6a:	429a      	cmp	r2, r3
10006e6c:	d3e2      	bcc.n	10006e34 <uart_read_blocking+0x14>
10006e6e:	46c0      	nop			@ (mov r8, r8)
10006e70:	46c0      	nop			@ (mov r8, r8)
10006e72:	46bd      	mov	sp, r7
10006e74:	b006      	add	sp, #24
10006e76:	bd80      	pop	{r7, pc}

10006e78 <uart_putc_raw>:
10006e78:	b580      	push	{r7, lr}
10006e7a:	b082      	sub	sp, #8
10006e7c:	af00      	add	r7, sp, #0
10006e7e:	6078      	str	r0, [r7, #4]
10006e80:	000a      	movs	r2, r1
10006e82:	1cfb      	adds	r3, r7, #3
10006e84:	701a      	strb	r2, [r3, #0]
10006e86:	1cf9      	adds	r1, r7, #3
10006e88:	687b      	ldr	r3, [r7, #4]
10006e8a:	2201      	movs	r2, #1
10006e8c:	0018      	movs	r0, r3
10006e8e:	f7ff ff9b 	bl	10006dc8 <uart_write_blocking>
10006e92:	46c0      	nop			@ (mov r8, r8)
10006e94:	46bd      	mov	sp, r7
10006e96:	b002      	add	sp, #8
10006e98:	bd80      	pop	{r7, pc}
	...

10006e9c <uart_putc>:
10006e9c:	b580      	push	{r7, lr}
10006e9e:	b082      	sub	sp, #8
10006ea0:	af00      	add	r7, sp, #0
10006ea2:	6078      	str	r0, [r7, #4]
10006ea4:	000a      	movs	r2, r1
10006ea6:	1cfb      	adds	r3, r7, #3
10006ea8:	701a      	strb	r2, [r3, #0]
10006eaa:	687b      	ldr	r3, [r7, #4]
10006eac:	0018      	movs	r0, r3
10006eae:	f7ff fed7 	bl	10006c60 <uart_get_index>
10006eb2:	0002      	movs	r2, r0
10006eb4:	4b0b      	ldr	r3, [pc, #44]	@ (10006ee4 <uart_putc+0x48>)
10006eb6:	0052      	lsls	r2, r2, #1
10006eb8:	5ed3      	ldrsh	r3, [r2, r3]
10006eba:	001a      	movs	r2, r3
10006ebc:	1cfb      	adds	r3, r7, #3
10006ebe:	781b      	ldrb	r3, [r3, #0]
10006ec0:	429a      	cmp	r2, r3
10006ec2:	d104      	bne.n	10006ece <uart_putc+0x32>
10006ec4:	687b      	ldr	r3, [r7, #4]
10006ec6:	210d      	movs	r1, #13
10006ec8:	0018      	movs	r0, r3
10006eca:	f7ff ffd5 	bl	10006e78 <uart_putc_raw>
10006ece:	1cfb      	adds	r3, r7, #3
10006ed0:	781a      	ldrb	r2, [r3, #0]
10006ed2:	687b      	ldr	r3, [r7, #4]
10006ed4:	0011      	movs	r1, r2
10006ed6:	0018      	movs	r0, r3
10006ed8:	f7ff ffce 	bl	10006e78 <uart_putc_raw>
10006edc:	46c0      	nop			@ (mov r8, r8)
10006ede:	46bd      	mov	sp, r7
10006ee0:	b002      	add	sp, #8
10006ee2:	bd80      	pop	{r7, pc}
10006ee4:	200009b4 	.word	0x200009b4

10006ee8 <uart_getc>:
10006ee8:	b590      	push	{r4, r7, lr}
10006eea:	b085      	sub	sp, #20
10006eec:	af00      	add	r7, sp, #0
10006eee:	6078      	str	r0, [r7, #4]
10006ef0:	240f      	movs	r4, #15
10006ef2:	1939      	adds	r1, r7, r4
10006ef4:	687b      	ldr	r3, [r7, #4]
10006ef6:	2201      	movs	r2, #1
10006ef8:	0018      	movs	r0, r3
10006efa:	f7ff ff91 	bl	10006e20 <uart_read_blocking>
10006efe:	193b      	adds	r3, r7, r4
10006f00:	781b      	ldrb	r3, [r3, #0]
10006f02:	0018      	movs	r0, r3
10006f04:	46bd      	mov	sp, r7
10006f06:	b005      	add	sp, #20
10006f08:	bd90      	pop	{r4, r7, pc}
	...

10006f0c <stdio_uart_init>:
10006f0c:	b580      	push	{r7, lr}
10006f0e:	b082      	sub	sp, #8
10006f10:	af00      	add	r7, sp, #0
10006f12:	2301      	movs	r3, #1
10006f14:	425b      	negs	r3, r3
10006f16:	607b      	str	r3, [r7, #4]
10006f18:	2301      	movs	r3, #1
10006f1a:	425b      	negs	r3, r3
10006f1c:	603b      	str	r3, [r7, #0]
10006f1e:	2300      	movs	r3, #0
10006f20:	607b      	str	r3, [r7, #4]
10006f22:	2301      	movs	r3, #1
10006f24:	603b      	str	r3, [r7, #0]
10006f26:	4b07      	ldr	r3, [pc, #28]	@ (10006f44 <stdio_uart_init+0x38>)
10006f28:	781b      	ldrb	r3, [r3, #0]
10006f2a:	4b07      	ldr	r3, [pc, #28]	@ (10006f48 <stdio_uart_init+0x3c>)
10006f2c:	781b      	ldrb	r3, [r3, #0]
10006f2e:	683b      	ldr	r3, [r7, #0]
10006f30:	687a      	ldr	r2, [r7, #4]
10006f32:	21e1      	movs	r1, #225	@ 0xe1
10006f34:	0249      	lsls	r1, r1, #9
10006f36:	4805      	ldr	r0, [pc, #20]	@ (10006f4c <stdio_uart_init+0x40>)
10006f38:	f000 f80a 	bl	10006f50 <stdio_uart_init_full>
10006f3c:	46c0      	nop			@ (mov r8, r8)
10006f3e:	46bd      	mov	sp, r7
10006f40:	b002      	add	sp, #8
10006f42:	bd80      	pop	{r7, pc}
10006f44:	1000aa88 	.word	0x1000aa88
10006f48:	1000aa8c 	.word	0x1000aa8c
10006f4c:	40034000 	.word	0x40034000

10006f50 <stdio_uart_init_full>:
10006f50:	b580      	push	{r7, lr}
10006f52:	b084      	sub	sp, #16
10006f54:	af00      	add	r7, sp, #0
10006f56:	60f8      	str	r0, [r7, #12]
10006f58:	60b9      	str	r1, [r7, #8]
10006f5a:	607a      	str	r2, [r7, #4]
10006f5c:	603b      	str	r3, [r7, #0]
10006f5e:	4b11      	ldr	r3, [pc, #68]	@ (10006fa4 <stdio_uart_init_full+0x54>)
10006f60:	68fa      	ldr	r2, [r7, #12]
10006f62:	601a      	str	r2, [r3, #0]
10006f64:	687b      	ldr	r3, [r7, #4]
10006f66:	2b00      	cmp	r3, #0
10006f68:	db04      	blt.n	10006f74 <stdio_uart_init_full+0x24>
10006f6a:	687b      	ldr	r3, [r7, #4]
10006f6c:	2102      	movs	r1, #2
10006f6e:	0018      	movs	r0, r3
10006f70:	f7f9 fbfc 	bl	1000076c <gpio_set_function>
10006f74:	683b      	ldr	r3, [r7, #0]
10006f76:	2b00      	cmp	r3, #0
10006f78:	db04      	blt.n	10006f84 <stdio_uart_init_full+0x34>
10006f7a:	683b      	ldr	r3, [r7, #0]
10006f7c:	2102      	movs	r1, #2
10006f7e:	0018      	movs	r0, r3
10006f80:	f7f9 fbf4 	bl	1000076c <gpio_set_function>
10006f84:	4b07      	ldr	r3, [pc, #28]	@ (10006fa4 <stdio_uart_init_full+0x54>)
10006f86:	681b      	ldr	r3, [r3, #0]
10006f88:	68ba      	ldr	r2, [r7, #8]
10006f8a:	0011      	movs	r1, r2
10006f8c:	0018      	movs	r0, r3
10006f8e:	f7fc f959 	bl	10003244 <uart_init>
10006f92:	4b05      	ldr	r3, [pc, #20]	@ (10006fa8 <stdio_uart_init_full+0x58>)
10006f94:	2101      	movs	r1, #1
10006f96:	0018      	movs	r0, r3
10006f98:	f7ff fd66 	bl	10006a68 <stdio_set_driver_enabled>
10006f9c:	46c0      	nop			@ (mov r8, r8)
10006f9e:	46bd      	mov	sp, r7
10006fa0:	b004      	add	sp, #16
10006fa2:	bd80      	pop	{r7, pc}
10006fa4:	200009b8 	.word	0x200009b8
10006fa8:	200005a0 	.word	0x200005a0

10006fac <stdio_uart_out_chars>:
10006fac:	b580      	push	{r7, lr}
10006fae:	b084      	sub	sp, #16
10006fb0:	af00      	add	r7, sp, #0
10006fb2:	6078      	str	r0, [r7, #4]
10006fb4:	6039      	str	r1, [r7, #0]
10006fb6:	2300      	movs	r3, #0
10006fb8:	60fb      	str	r3, [r7, #12]
10006fba:	e00b      	b.n	10006fd4 <stdio_uart_out_chars+0x28>
10006fbc:	4b0a      	ldr	r3, [pc, #40]	@ (10006fe8 <stdio_uart_out_chars+0x3c>)
10006fbe:	6818      	ldr	r0, [r3, #0]
10006fc0:	68fb      	ldr	r3, [r7, #12]
10006fc2:	687a      	ldr	r2, [r7, #4]
10006fc4:	18d3      	adds	r3, r2, r3
10006fc6:	781b      	ldrb	r3, [r3, #0]
10006fc8:	0019      	movs	r1, r3
10006fca:	f7ff ff67 	bl	10006e9c <uart_putc>
10006fce:	68fb      	ldr	r3, [r7, #12]
10006fd0:	3301      	adds	r3, #1
10006fd2:	60fb      	str	r3, [r7, #12]
10006fd4:	68fa      	ldr	r2, [r7, #12]
10006fd6:	683b      	ldr	r3, [r7, #0]
10006fd8:	429a      	cmp	r2, r3
10006fda:	dbef      	blt.n	10006fbc <stdio_uart_out_chars+0x10>
10006fdc:	46c0      	nop			@ (mov r8, r8)
10006fde:	46c0      	nop			@ (mov r8, r8)
10006fe0:	46bd      	mov	sp, r7
10006fe2:	b004      	add	sp, #16
10006fe4:	bd80      	pop	{r7, pc}
10006fe6:	46c0      	nop			@ (mov r8, r8)
10006fe8:	200009b8 	.word	0x200009b8

10006fec <stdio_uart_in_chars>:
10006fec:	b590      	push	{r4, r7, lr}
10006fee:	b085      	sub	sp, #20
10006ff0:	af00      	add	r7, sp, #0
10006ff2:	6078      	str	r0, [r7, #4]
10006ff4:	6039      	str	r1, [r7, #0]
10006ff6:	2300      	movs	r3, #0
10006ff8:	60fb      	str	r3, [r7, #12]
10006ffa:	e00c      	b.n	10007016 <stdio_uart_in_chars+0x2a>
10006ffc:	4b16      	ldr	r3, [pc, #88]	@ (10007058 <stdio_uart_in_chars+0x6c>)
10006ffe:	6819      	ldr	r1, [r3, #0]
10007000:	68fb      	ldr	r3, [r7, #12]
10007002:	1c5a      	adds	r2, r3, #1
10007004:	60fa      	str	r2, [r7, #12]
10007006:	001a      	movs	r2, r3
10007008:	687b      	ldr	r3, [r7, #4]
1000700a:	189c      	adds	r4, r3, r2
1000700c:	0008      	movs	r0, r1
1000700e:	f7ff ff6b 	bl	10006ee8 <uart_getc>
10007012:	0003      	movs	r3, r0
10007014:	7023      	strb	r3, [r4, #0]
10007016:	68fa      	ldr	r2, [r7, #12]
10007018:	683b      	ldr	r3, [r7, #0]
1000701a:	429a      	cmp	r2, r3
1000701c:	da06      	bge.n	1000702c <stdio_uart_in_chars+0x40>
1000701e:	4b0e      	ldr	r3, [pc, #56]	@ (10007058 <stdio_uart_in_chars+0x6c>)
10007020:	681b      	ldr	r3, [r3, #0]
10007022:	0018      	movs	r0, r3
10007024:	f7ff febd 	bl	10006da2 <uart_is_readable>
10007028:	1e03      	subs	r3, r0, #0
1000702a:	d1e7      	bne.n	10006ffc <stdio_uart_in_chars+0x10>
1000702c:	4b0b      	ldr	r3, [pc, #44]	@ (1000705c <stdio_uart_in_chars+0x70>)
1000702e:	681b      	ldr	r3, [r3, #0]
10007030:	2b00      	cmp	r3, #0
10007032:	d006      	beq.n	10007042 <stdio_uart_in_chars+0x56>
10007034:	4b08      	ldr	r3, [pc, #32]	@ (10007058 <stdio_uart_in_chars+0x6c>)
10007036:	681b      	ldr	r3, [r3, #0]
10007038:	2200      	movs	r2, #0
1000703a:	2101      	movs	r1, #1
1000703c:	0018      	movs	r0, r3
1000703e:	f7ff fe2e 	bl	10006c9e <uart_set_irq_enables>
10007042:	68fb      	ldr	r3, [r7, #12]
10007044:	2b00      	cmp	r3, #0
10007046:	d001      	beq.n	1000704c <stdio_uart_in_chars+0x60>
10007048:	68fb      	ldr	r3, [r7, #12]
1000704a:	e001      	b.n	10007050 <stdio_uart_in_chars+0x64>
1000704c:	2303      	movs	r3, #3
1000704e:	425b      	negs	r3, r3
10007050:	0018      	movs	r0, r3
10007052:	46bd      	mov	sp, r7
10007054:	b005      	add	sp, #20
10007056:	bd90      	pop	{r4, r7, pc}
10007058:	200009b8 	.word	0x200009b8
1000705c:	200006f8 	.word	0x200006f8

10007060 <on_uart_rx>:
10007060:	b580      	push	{r7, lr}
10007062:	af00      	add	r7, sp, #0
10007064:	4b09      	ldr	r3, [pc, #36]	@ (1000708c <on_uart_rx+0x2c>)
10007066:	681b      	ldr	r3, [r3, #0]
10007068:	2b00      	cmp	r3, #0
1000706a:	d00c      	beq.n	10007086 <on_uart_rx+0x26>
1000706c:	4b08      	ldr	r3, [pc, #32]	@ (10007090 <on_uart_rx+0x30>)
1000706e:	681b      	ldr	r3, [r3, #0]
10007070:	2200      	movs	r2, #0
10007072:	2100      	movs	r1, #0
10007074:	0018      	movs	r0, r3
10007076:	f7ff fe12 	bl	10006c9e <uart_set_irq_enables>
1000707a:	4b04      	ldr	r3, [pc, #16]	@ (1000708c <on_uart_rx+0x2c>)
1000707c:	681a      	ldr	r2, [r3, #0]
1000707e:	4b05      	ldr	r3, [pc, #20]	@ (10007094 <on_uart_rx+0x34>)
10007080:	681b      	ldr	r3, [r3, #0]
10007082:	0018      	movs	r0, r3
10007084:	4790      	blx	r2
10007086:	46c0      	nop			@ (mov r8, r8)
10007088:	46bd      	mov	sp, r7
1000708a:	bd80      	pop	{r7, pc}
1000708c:	200006f8 	.word	0x200006f8
10007090:	200009b8 	.word	0x200009b8
10007094:	200006fc 	.word	0x200006fc

10007098 <stdio_uart_set_chars_available_callback>:
10007098:	b580      	push	{r7, lr}
1000709a:	b084      	sub	sp, #16
1000709c:	af00      	add	r7, sp, #0
1000709e:	6078      	str	r0, [r7, #4]
100070a0:	6039      	str	r1, [r7, #0]
100070a2:	4b22      	ldr	r3, [pc, #136]	@ (1000712c <stdio_uart_set_chars_available_callback+0x94>)
100070a4:	681b      	ldr	r3, [r3, #0]
100070a6:	0018      	movs	r0, r3
100070a8:	f7ff fdda 	bl	10006c60 <uart_get_index>
100070ac:	0003      	movs	r3, r0
100070ae:	3314      	adds	r3, #20
100070b0:	60fb      	str	r3, [r7, #12]
100070b2:	687b      	ldr	r3, [r7, #4]
100070b4:	2b00      	cmp	r3, #0
100070b6:	d016      	beq.n	100070e6 <stdio_uart_set_chars_available_callback+0x4e>
100070b8:	4b1d      	ldr	r3, [pc, #116]	@ (10007130 <stdio_uart_set_chars_available_callback+0x98>)
100070ba:	681b      	ldr	r3, [r3, #0]
100070bc:	2b00      	cmp	r3, #0
100070be:	d112      	bne.n	100070e6 <stdio_uart_set_chars_available_callback+0x4e>
100070c0:	4a1c      	ldr	r2, [pc, #112]	@ (10007134 <stdio_uart_set_chars_available_callback+0x9c>)
100070c2:	68fb      	ldr	r3, [r7, #12]
100070c4:	0011      	movs	r1, r2
100070c6:	0018      	movs	r0, r3
100070c8:	f7f9 fd54 	bl	10000b74 <irq_set_exclusive_handler>
100070cc:	68fb      	ldr	r3, [r7, #12]
100070ce:	2101      	movs	r1, #1
100070d0:	0018      	movs	r0, r3
100070d2:	f7f9 fcd9 	bl	10000a88 <irq_set_enabled>
100070d6:	4b15      	ldr	r3, [pc, #84]	@ (1000712c <stdio_uart_set_chars_available_callback+0x94>)
100070d8:	681b      	ldr	r3, [r3, #0]
100070da:	2200      	movs	r2, #0
100070dc:	2101      	movs	r1, #1
100070de:	0018      	movs	r0, r3
100070e0:	f7ff fddd 	bl	10006c9e <uart_set_irq_enables>
100070e4:	e018      	b.n	10007118 <stdio_uart_set_chars_available_callback+0x80>
100070e6:	687b      	ldr	r3, [r7, #4]
100070e8:	2b00      	cmp	r3, #0
100070ea:	d115      	bne.n	10007118 <stdio_uart_set_chars_available_callback+0x80>
100070ec:	4b10      	ldr	r3, [pc, #64]	@ (10007130 <stdio_uart_set_chars_available_callback+0x98>)
100070ee:	681b      	ldr	r3, [r3, #0]
100070f0:	2b00      	cmp	r3, #0
100070f2:	d011      	beq.n	10007118 <stdio_uart_set_chars_available_callback+0x80>
100070f4:	4b0d      	ldr	r3, [pc, #52]	@ (1000712c <stdio_uart_set_chars_available_callback+0x94>)
100070f6:	681b      	ldr	r3, [r3, #0]
100070f8:	2200      	movs	r2, #0
100070fa:	2100      	movs	r1, #0
100070fc:	0018      	movs	r0, r3
100070fe:	f7ff fdce 	bl	10006c9e <uart_set_irq_enables>
10007102:	68fb      	ldr	r3, [r7, #12]
10007104:	2100      	movs	r1, #0
10007106:	0018      	movs	r0, r3
10007108:	f7f9 fcbe 	bl	10000a88 <irq_set_enabled>
1000710c:	4a09      	ldr	r2, [pc, #36]	@ (10007134 <stdio_uart_set_chars_available_callback+0x9c>)
1000710e:	68fb      	ldr	r3, [r7, #12]
10007110:	0011      	movs	r1, r2
10007112:	0018      	movs	r0, r3
10007114:	f7f9 fe4c 	bl	10000db0 <irq_remove_handler>
10007118:	4b05      	ldr	r3, [pc, #20]	@ (10007130 <stdio_uart_set_chars_available_callback+0x98>)
1000711a:	687a      	ldr	r2, [r7, #4]
1000711c:	601a      	str	r2, [r3, #0]
1000711e:	4b06      	ldr	r3, [pc, #24]	@ (10007138 <stdio_uart_set_chars_available_callback+0xa0>)
10007120:	683a      	ldr	r2, [r7, #0]
10007122:	601a      	str	r2, [r3, #0]
10007124:	46c0      	nop			@ (mov r8, r8)
10007126:	46bd      	mov	sp, r7
10007128:	b004      	add	sp, #16
1000712a:	bd80      	pop	{r7, pc}
1000712c:	200009b8 	.word	0x200009b8
10007130:	200006f8 	.word	0x200006f8
10007134:	10007061 	.word	0x10007061
10007138:	200006fc 	.word	0x200006fc

1000713c <reset_block>:
1000713c:	b580      	push	{r7, lr}
1000713e:	b084      	sub	sp, #16
10007140:	af00      	add	r7, sp, #0
10007142:	6078      	str	r0, [r7, #4]
10007144:	4b07      	ldr	r3, [pc, #28]	@ (10007164 <reset_block+0x28>)
10007146:	60fb      	str	r3, [r7, #12]
10007148:	687b      	ldr	r3, [r7, #4]
1000714a:	60bb      	str	r3, [r7, #8]
1000714c:	68fb      	ldr	r3, [r7, #12]
1000714e:	2280      	movs	r2, #128	@ 0x80
10007150:	0192      	lsls	r2, r2, #6
10007152:	4313      	orrs	r3, r2
10007154:	68ba      	ldr	r2, [r7, #8]
10007156:	601a      	str	r2, [r3, #0]
10007158:	46c0      	nop			@ (mov r8, r8)
1000715a:	46c0      	nop			@ (mov r8, r8)
1000715c:	46bd      	mov	sp, r7
1000715e:	b004      	add	sp, #16
10007160:	bd80      	pop	{r7, pc}
10007162:	46c0      	nop			@ (mov r8, r8)
10007164:	4000c000 	.word	0x4000c000

10007168 <unreset_block_wait>:
10007168:	b580      	push	{r7, lr}
1000716a:	b084      	sub	sp, #16
1000716c:	af00      	add	r7, sp, #0
1000716e:	6078      	str	r0, [r7, #4]
10007170:	4b0b      	ldr	r3, [pc, #44]	@ (100071a0 <unreset_block_wait+0x38>)
10007172:	60fb      	str	r3, [r7, #12]
10007174:	687b      	ldr	r3, [r7, #4]
10007176:	60bb      	str	r3, [r7, #8]
10007178:	68fb      	ldr	r3, [r7, #12]
1000717a:	22c0      	movs	r2, #192	@ 0xc0
1000717c:	0192      	lsls	r2, r2, #6
1000717e:	4313      	orrs	r3, r2
10007180:	68ba      	ldr	r2, [r7, #8]
10007182:	601a      	str	r2, [r3, #0]
10007184:	46c0      	nop			@ (mov r8, r8)
10007186:	e000      	b.n	1000718a <unreset_block_wait+0x22>
10007188:	46c0      	nop			@ (mov r8, r8)
1000718a:	4b05      	ldr	r3, [pc, #20]	@ (100071a0 <unreset_block_wait+0x38>)
1000718c:	689b      	ldr	r3, [r3, #8]
1000718e:	43db      	mvns	r3, r3
10007190:	687a      	ldr	r2, [r7, #4]
10007192:	4013      	ands	r3, r2
10007194:	d1f8      	bne.n	10007188 <unreset_block_wait+0x20>
10007196:	46c0      	nop			@ (mov r8, r8)
10007198:	46c0      	nop			@ (mov r8, r8)
1000719a:	46bd      	mov	sp, r7
1000719c:	b004      	add	sp, #16
1000719e:	bd80      	pop	{r7, pc}
100071a0:	4000c000 	.word	0x4000c000

100071a4 <spi_get_index>:
100071a4:	b580      	push	{r7, lr}
100071a6:	b082      	sub	sp, #8
100071a8:	af00      	add	r7, sp, #0
100071aa:	6078      	str	r0, [r7, #4]
100071ac:	687b      	ldr	r3, [r7, #4]
100071ae:	4a05      	ldr	r2, [pc, #20]	@ (100071c4 <spi_get_index+0x20>)
100071b0:	4694      	mov	ip, r2
100071b2:	4463      	add	r3, ip
100071b4:	425a      	negs	r2, r3
100071b6:	4153      	adcs	r3, r2
100071b8:	b2db      	uxtb	r3, r3
100071ba:	0018      	movs	r0, r3
100071bc:	46bd      	mov	sp, r7
100071be:	b002      	add	sp, #8
100071c0:	bd80      	pop	{r7, pc}
100071c2:	46c0      	nop			@ (mov r8, r8)
100071c4:	bffc0000 	.word	0xbffc0000

100071c8 <spi_get_hw>:
100071c8:	b580      	push	{r7, lr}
100071ca:	b082      	sub	sp, #8
100071cc:	af00      	add	r7, sp, #0
100071ce:	6078      	str	r0, [r7, #4]
100071d0:	687b      	ldr	r3, [r7, #4]
100071d2:	0018      	movs	r0, r3
100071d4:	f7ff ffe6 	bl	100071a4 <spi_get_index>
100071d8:	687b      	ldr	r3, [r7, #4]
100071da:	0018      	movs	r0, r3
100071dc:	46bd      	mov	sp, r7
100071de:	b002      	add	sp, #8
100071e0:	bd80      	pop	{r7, pc}

100071e2 <spi_get_const_hw>:
100071e2:	b580      	push	{r7, lr}
100071e4:	b082      	sub	sp, #8
100071e6:	af00      	add	r7, sp, #0
100071e8:	6078      	str	r0, [r7, #4]
100071ea:	687b      	ldr	r3, [r7, #4]
100071ec:	0018      	movs	r0, r3
100071ee:	f7ff ffd9 	bl	100071a4 <spi_get_index>
100071f2:	687b      	ldr	r3, [r7, #4]
100071f4:	0018      	movs	r0, r3
100071f6:	46bd      	mov	sp, r7
100071f8:	b002      	add	sp, #8
100071fa:	bd80      	pop	{r7, pc}

100071fc <spi_set_format>:
100071fc:	b580      	push	{r7, lr}
100071fe:	b08e      	sub	sp, #56	@ 0x38
10007200:	af00      	add	r7, sp, #0
10007202:	60f8      	str	r0, [r7, #12]
10007204:	60b9      	str	r1, [r7, #8]
10007206:	0019      	movs	r1, r3
10007208:	1dfb      	adds	r3, r7, #7
1000720a:	701a      	strb	r2, [r3, #0]
1000720c:	1dbb      	adds	r3, r7, #6
1000720e:	1c0a      	adds	r2, r1, #0
10007210:	701a      	strb	r2, [r3, #0]
10007212:	68fb      	ldr	r3, [r7, #12]
10007214:	0018      	movs	r0, r3
10007216:	f7ff ffd7 	bl	100071c8 <spi_get_hw>
1000721a:	0003      	movs	r3, r0
1000721c:	685b      	ldr	r3, [r3, #4]
1000721e:	2202      	movs	r2, #2
10007220:	4013      	ands	r3, r2
10007222:	637b      	str	r3, [r7, #52]	@ 0x34
10007224:	68fb      	ldr	r3, [r7, #12]
10007226:	0018      	movs	r0, r3
10007228:	f7ff ffce 	bl	100071c8 <spi_get_hw>
1000722c:	0003      	movs	r3, r0
1000722e:	3304      	adds	r3, #4
10007230:	617b      	str	r3, [r7, #20]
10007232:	2302      	movs	r3, #2
10007234:	613b      	str	r3, [r7, #16]
10007236:	697b      	ldr	r3, [r7, #20]
10007238:	22c0      	movs	r2, #192	@ 0xc0
1000723a:	0192      	lsls	r2, r2, #6
1000723c:	4313      	orrs	r3, r2
1000723e:	693a      	ldr	r2, [r7, #16]
10007240:	601a      	str	r2, [r3, #0]
10007242:	46c0      	nop			@ (mov r8, r8)
10007244:	68fb      	ldr	r3, [r7, #12]
10007246:	0018      	movs	r0, r3
10007248:	f7ff ffbe 	bl	100071c8 <spi_get_hw>
1000724c:	0003      	movs	r3, r0
1000724e:	0019      	movs	r1, r3
10007250:	68bb      	ldr	r3, [r7, #8]
10007252:	1e5a      	subs	r2, r3, #1
10007254:	1dfb      	adds	r3, r7, #7
10007256:	781b      	ldrb	r3, [r3, #0]
10007258:	019b      	lsls	r3, r3, #6
1000725a:	431a      	orrs	r2, r3
1000725c:	1dbb      	adds	r3, r7, #6
1000725e:	781b      	ldrb	r3, [r3, #0]
10007260:	01db      	lsls	r3, r3, #7
10007262:	4313      	orrs	r3, r2
10007264:	62b9      	str	r1, [r7, #40]	@ 0x28
10007266:	627b      	str	r3, [r7, #36]	@ 0x24
10007268:	23cf      	movs	r3, #207	@ 0xcf
1000726a:	623b      	str	r3, [r7, #32]
1000726c:	6abb      	ldr	r3, [r7, #40]	@ 0x28
1000726e:	681a      	ldr	r2, [r3, #0]
10007270:	6a7b      	ldr	r3, [r7, #36]	@ 0x24
10007272:	4053      	eors	r3, r2
10007274:	6a3a      	ldr	r2, [r7, #32]
10007276:	4013      	ands	r3, r2
10007278:	6aba      	ldr	r2, [r7, #40]	@ 0x28
1000727a:	61fa      	str	r2, [r7, #28]
1000727c:	61bb      	str	r3, [r7, #24]
1000727e:	69fb      	ldr	r3, [r7, #28]
10007280:	2280      	movs	r2, #128	@ 0x80
10007282:	0152      	lsls	r2, r2, #5
10007284:	4313      	orrs	r3, r2
10007286:	69ba      	ldr	r2, [r7, #24]
10007288:	601a      	str	r2, [r3, #0]
1000728a:	46c0      	nop			@ (mov r8, r8)
1000728c:	46c0      	nop			@ (mov r8, r8)
1000728e:	68fb      	ldr	r3, [r7, #12]
10007290:	0018      	movs	r0, r3
10007292:	f7ff ff99 	bl	100071c8 <spi_get_hw>
10007296:	0003      	movs	r3, r0
10007298:	3304      	adds	r3, #4
1000729a:	633b      	str	r3, [r7, #48]	@ 0x30
1000729c:	6b7b      	ldr	r3, [r7, #52]	@ 0x34
1000729e:	62fb      	str	r3, [r7, #44]	@ 0x2c
100072a0:	6b3b      	ldr	r3, [r7, #48]	@ 0x30
100072a2:	2280      	movs	r2, #128	@ 0x80
100072a4:	0192      	lsls	r2, r2, #6
100072a6:	4313      	orrs	r3, r2
100072a8:	6afa      	ldr	r2, [r7, #44]	@ 0x2c
100072aa:	601a      	str	r2, [r3, #0]
100072ac:	46c0      	nop			@ (mov r8, r8)
100072ae:	46c0      	nop			@ (mov r8, r8)
100072b0:	46bd      	mov	sp, r7
100072b2:	b00e      	add	sp, #56	@ 0x38
100072b4:	bd80      	pop	{r7, pc}

100072b6 <spi_is_writable>:
100072b6:	b580      	push	{r7, lr}
100072b8:	b082      	sub	sp, #8
100072ba:	af00      	add	r7, sp, #0
100072bc:	6078      	str	r0, [r7, #4]
100072be:	687b      	ldr	r3, [r7, #4]
100072c0:	0018      	movs	r0, r3
100072c2:	f7ff ff8e 	bl	100071e2 <spi_get_const_hw>
100072c6:	0003      	movs	r3, r0
100072c8:	68db      	ldr	r3, [r3, #12]
100072ca:	2202      	movs	r2, #2
100072cc:	4013      	ands	r3, r2
100072ce:	1e5a      	subs	r2, r3, #1
100072d0:	4193      	sbcs	r3, r2
100072d2:	b2db      	uxtb	r3, r3
100072d4:	0018      	movs	r0, r3
100072d6:	46bd      	mov	sp, r7
100072d8:	b002      	add	sp, #8
100072da:	bd80      	pop	{r7, pc}

100072dc <spi_is_readable>:
100072dc:	b580      	push	{r7, lr}
100072de:	b082      	sub	sp, #8
100072e0:	af00      	add	r7, sp, #0
100072e2:	6078      	str	r0, [r7, #4]
100072e4:	687b      	ldr	r3, [r7, #4]
100072e6:	0018      	movs	r0, r3
100072e8:	f7ff ff7b 	bl	100071e2 <spi_get_const_hw>
100072ec:	0003      	movs	r3, r0
100072ee:	68db      	ldr	r3, [r3, #12]
100072f0:	2204      	movs	r2, #4
100072f2:	4013      	ands	r3, r2
100072f4:	1e5a      	subs	r2, r3, #1
100072f6:	4193      	sbcs	r3, r2
100072f8:	b2db      	uxtb	r3, r3
100072fa:	0018      	movs	r0, r3
100072fc:	46bd      	mov	sp, r7
100072fe:	b002      	add	sp, #8
10007300:	bd80      	pop	{r7, pc}
	...

10007304 <spi_reset>:
10007304:	b580      	push	{r7, lr}
10007306:	b082      	sub	sp, #8
10007308:	af00      	add	r7, sp, #0
1000730a:	6078      	str	r0, [r7, #4]
1000730c:	687b      	ldr	r3, [r7, #4]
1000730e:	4a07      	ldr	r2, [pc, #28]	@ (1000732c <spi_reset+0x28>)
10007310:	4293      	cmp	r3, r2
10007312:	d102      	bne.n	1000731a <spi_reset+0x16>
10007314:	2380      	movs	r3, #128	@ 0x80
10007316:	025b      	lsls	r3, r3, #9
10007318:	e001      	b.n	1000731e <spi_reset+0x1a>
1000731a:	2380      	movs	r3, #128	@ 0x80
1000731c:	029b      	lsls	r3, r3, #10
1000731e:	0018      	movs	r0, r3
10007320:	f7ff ff0c 	bl	1000713c <reset_block>
10007324:	46c0      	nop			@ (mov r8, r8)
10007326:	46bd      	mov	sp, r7
10007328:	b002      	add	sp, #8
1000732a:	bd80      	pop	{r7, pc}
1000732c:	4003c000 	.word	0x4003c000

10007330 <spi_unreset>:
10007330:	b580      	push	{r7, lr}
10007332:	b082      	sub	sp, #8
10007334:	af00      	add	r7, sp, #0
10007336:	6078      	str	r0, [r7, #4]
10007338:	687b      	ldr	r3, [r7, #4]
1000733a:	4a07      	ldr	r2, [pc, #28]	@ (10007358 <spi_unreset+0x28>)
1000733c:	4293      	cmp	r3, r2
1000733e:	d102      	bne.n	10007346 <spi_unreset+0x16>
10007340:	2380      	movs	r3, #128	@ 0x80
10007342:	025b      	lsls	r3, r3, #9
10007344:	e001      	b.n	1000734a <spi_unreset+0x1a>
10007346:	2380      	movs	r3, #128	@ 0x80
10007348:	029b      	lsls	r3, r3, #10
1000734a:	0018      	movs	r0, r3
1000734c:	f7ff ff0c 	bl	10007168 <unreset_block_wait>
10007350:	46c0      	nop			@ (mov r8, r8)
10007352:	46bd      	mov	sp, r7
10007354:	b002      	add	sp, #8
10007356:	bd80      	pop	{r7, pc}
10007358:	4003c000 	.word	0x4003c000

1000735c <spi_init>:
1000735c:	b580      	push	{r7, lr}
1000735e:	b08a      	sub	sp, #40	@ 0x28
10007360:	af02      	add	r7, sp, #8
10007362:	6078      	str	r0, [r7, #4]
10007364:	6039      	str	r1, [r7, #0]
10007366:	687b      	ldr	r3, [r7, #4]
10007368:	0018      	movs	r0, r3
1000736a:	f7ff ffcb 	bl	10007304 <spi_reset>
1000736e:	687b      	ldr	r3, [r7, #4]
10007370:	0018      	movs	r0, r3
10007372:	f7ff ffdd 	bl	10007330 <spi_unreset>
10007376:	683a      	ldr	r2, [r7, #0]
10007378:	687b      	ldr	r3, [r7, #4]
1000737a:	0011      	movs	r1, r2
1000737c:	0018      	movs	r0, r3
1000737e:	f000 f82f 	bl	100073e0 <spi_set_baudrate>
10007382:	0003      	movs	r3, r0
10007384:	61fb      	str	r3, [r7, #28]
10007386:	6878      	ldr	r0, [r7, #4]
10007388:	2301      	movs	r3, #1
1000738a:	9300      	str	r3, [sp, #0]
1000738c:	2300      	movs	r3, #0
1000738e:	2200      	movs	r2, #0
10007390:	2108      	movs	r1, #8
10007392:	f7ff ff33 	bl	100071fc <spi_set_format>
10007396:	687b      	ldr	r3, [r7, #4]
10007398:	0018      	movs	r0, r3
1000739a:	f7ff ff15 	bl	100071c8 <spi_get_hw>
1000739e:	0003      	movs	r3, r0
100073a0:	3324      	adds	r3, #36	@ 0x24
100073a2:	613b      	str	r3, [r7, #16]
100073a4:	2303      	movs	r3, #3
100073a6:	60fb      	str	r3, [r7, #12]
100073a8:	693b      	ldr	r3, [r7, #16]
100073aa:	2280      	movs	r2, #128	@ 0x80
100073ac:	0192      	lsls	r2, r2, #6
100073ae:	4313      	orrs	r3, r2
100073b0:	68fa      	ldr	r2, [r7, #12]
100073b2:	601a      	str	r2, [r3, #0]
100073b4:	46c0      	nop			@ (mov r8, r8)
100073b6:	687b      	ldr	r3, [r7, #4]
100073b8:	0018      	movs	r0, r3
100073ba:	f7ff ff05 	bl	100071c8 <spi_get_hw>
100073be:	0003      	movs	r3, r0
100073c0:	3304      	adds	r3, #4
100073c2:	61bb      	str	r3, [r7, #24]
100073c4:	2302      	movs	r3, #2
100073c6:	617b      	str	r3, [r7, #20]
100073c8:	69bb      	ldr	r3, [r7, #24]
100073ca:	2280      	movs	r2, #128	@ 0x80
100073cc:	0192      	lsls	r2, r2, #6
100073ce:	4313      	orrs	r3, r2
100073d0:	697a      	ldr	r2, [r7, #20]
100073d2:	601a      	str	r2, [r3, #0]
100073d4:	46c0      	nop			@ (mov r8, r8)
100073d6:	69fb      	ldr	r3, [r7, #28]
100073d8:	0018      	movs	r0, r3
100073da:	46bd      	mov	sp, r7
100073dc:	b008      	add	sp, #32
100073de:	bd80      	pop	{r7, pc}

100073e0 <spi_set_baudrate>:
100073e0:	b5b0      	push	{r4, r5, r7, lr}
100073e2:	b094      	sub	sp, #80	@ 0x50
100073e4:	af00      	add	r7, sp, #0
100073e6:	6178      	str	r0, [r7, #20]
100073e8:	6139      	str	r1, [r7, #16]
100073ea:	2006      	movs	r0, #6
100073ec:	f7fc faa4 	bl	10003938 <clock_get_hz>
100073f0:	0003      	movs	r3, r0
100073f2:	647b      	str	r3, [r7, #68]	@ 0x44
100073f4:	697b      	ldr	r3, [r7, #20]
100073f6:	0018      	movs	r0, r3
100073f8:	f7ff fee6 	bl	100071c8 <spi_get_hw>
100073fc:	0003      	movs	r3, r0
100073fe:	685b      	ldr	r3, [r3, #4]
10007400:	2202      	movs	r2, #2
10007402:	4013      	ands	r3, r2
10007404:	643b      	str	r3, [r7, #64]	@ 0x40
10007406:	697b      	ldr	r3, [r7, #20]
10007408:	0018      	movs	r0, r3
1000740a:	f7ff fedd 	bl	100071c8 <spi_get_hw>
1000740e:	0003      	movs	r3, r0
10007410:	3304      	adds	r3, #4
10007412:	63fb      	str	r3, [r7, #60]	@ 0x3c
10007414:	2302      	movs	r3, #2
10007416:	63bb      	str	r3, [r7, #56]	@ 0x38
10007418:	6bfb      	ldr	r3, [r7, #60]	@ 0x3c
1000741a:	22c0      	movs	r2, #192	@ 0xc0
1000741c:	0192      	lsls	r2, r2, #6
1000741e:	4313      	orrs	r3, r2
10007420:	6bba      	ldr	r2, [r7, #56]	@ 0x38
10007422:	601a      	str	r2, [r3, #0]
10007424:	46c0      	nop			@ (mov r8, r8)
10007426:	2302      	movs	r3, #2
10007428:	64fb      	str	r3, [r7, #76]	@ 0x4c
1000742a:	e01d      	b.n	10007468 <spi_set_baudrate+0x88>
1000742c:	6c7b      	ldr	r3, [r7, #68]	@ 0x44
1000742e:	001c      	movs	r4, r3
10007430:	2300      	movs	r3, #0
10007432:	001d      	movs	r5, r3
10007434:	6cfb      	ldr	r3, [r7, #76]	@ 0x4c
10007436:	3302      	adds	r3, #2
10007438:	021b      	lsls	r3, r3, #8
1000743a:	60bb      	str	r3, [r7, #8]
1000743c:	2300      	movs	r3, #0
1000743e:	60fb      	str	r3, [r7, #12]
10007440:	693b      	ldr	r3, [r7, #16]
10007442:	603b      	str	r3, [r7, #0]
10007444:	2300      	movs	r3, #0
10007446:	607b      	str	r3, [r7, #4]
10007448:	683a      	ldr	r2, [r7, #0]
1000744a:	687b      	ldr	r3, [r7, #4]
1000744c:	68b8      	ldr	r0, [r7, #8]
1000744e:	68f9      	ldr	r1, [r7, #12]
10007450:	f7ff f84c 	bl	100064ec <__wrap___aeabi_lmul>
10007454:	0002      	movs	r2, r0
10007456:	000b      	movs	r3, r1
10007458:	42ab      	cmp	r3, r5
1000745a:	d809      	bhi.n	10007470 <spi_set_baudrate+0x90>
1000745c:	d101      	bne.n	10007462 <spi_set_baudrate+0x82>
1000745e:	42a2      	cmp	r2, r4
10007460:	d806      	bhi.n	10007470 <spi_set_baudrate+0x90>
10007462:	6cfb      	ldr	r3, [r7, #76]	@ 0x4c
10007464:	3302      	adds	r3, #2
10007466:	64fb      	str	r3, [r7, #76]	@ 0x4c
10007468:	6cfb      	ldr	r3, [r7, #76]	@ 0x4c
1000746a:	2bfe      	cmp	r3, #254	@ 0xfe
1000746c:	d9de      	bls.n	1000742c <spi_set_baudrate+0x4c>
1000746e:	e000      	b.n	10007472 <spi_set_baudrate+0x92>
10007470:	46c0      	nop			@ (mov r8, r8)
10007472:	2380      	movs	r3, #128	@ 0x80
10007474:	005b      	lsls	r3, r3, #1
10007476:	64bb      	str	r3, [r7, #72]	@ 0x48
10007478:	e00f      	b.n	1000749a <spi_set_baudrate+0xba>
1000747a:	6cbb      	ldr	r3, [r7, #72]	@ 0x48
1000747c:	3b01      	subs	r3, #1
1000747e:	6cfa      	ldr	r2, [r7, #76]	@ 0x4c
10007480:	4353      	muls	r3, r2
10007482:	0019      	movs	r1, r3
10007484:	6c78      	ldr	r0, [r7, #68]	@ 0x44
10007486:	f7fe f9c9 	bl	1000581c <__wrap___aeabi_uidiv>
1000748a:	0003      	movs	r3, r0
1000748c:	001a      	movs	r2, r3
1000748e:	693b      	ldr	r3, [r7, #16]
10007490:	4293      	cmp	r3, r2
10007492:	d306      	bcc.n	100074a2 <spi_set_baudrate+0xc2>
10007494:	6cbb      	ldr	r3, [r7, #72]	@ 0x48
10007496:	3b01      	subs	r3, #1
10007498:	64bb      	str	r3, [r7, #72]	@ 0x48
1000749a:	6cbb      	ldr	r3, [r7, #72]	@ 0x48
1000749c:	2b01      	cmp	r3, #1
1000749e:	d8ec      	bhi.n	1000747a <spi_set_baudrate+0x9a>
100074a0:	e000      	b.n	100074a4 <spi_set_baudrate+0xc4>
100074a2:	46c0      	nop			@ (mov r8, r8)
100074a4:	697b      	ldr	r3, [r7, #20]
100074a6:	0018      	movs	r0, r3
100074a8:	f7ff fe8e 	bl	100071c8 <spi_get_hw>
100074ac:	0003      	movs	r3, r0
100074ae:	6cfa      	ldr	r2, [r7, #76]	@ 0x4c
100074b0:	611a      	str	r2, [r3, #16]
100074b2:	697b      	ldr	r3, [r7, #20]
100074b4:	0018      	movs	r0, r3
100074b6:	f7ff fe87 	bl	100071c8 <spi_get_hw>
100074ba:	0003      	movs	r3, r0
100074bc:	001a      	movs	r2, r3
100074be:	6cbb      	ldr	r3, [r7, #72]	@ 0x48
100074c0:	3b01      	subs	r3, #1
100074c2:	021b      	lsls	r3, r3, #8
100074c4:	62fa      	str	r2, [r7, #44]	@ 0x2c
100074c6:	62bb      	str	r3, [r7, #40]	@ 0x28
100074c8:	23ff      	movs	r3, #255	@ 0xff
100074ca:	021b      	lsls	r3, r3, #8
100074cc:	627b      	str	r3, [r7, #36]	@ 0x24
100074ce:	6afb      	ldr	r3, [r7, #44]	@ 0x2c
100074d0:	681a      	ldr	r2, [r3, #0]
100074d2:	6abb      	ldr	r3, [r7, #40]	@ 0x28
100074d4:	4053      	eors	r3, r2
100074d6:	6a7a      	ldr	r2, [r7, #36]	@ 0x24
100074d8:	4013      	ands	r3, r2
100074da:	6afa      	ldr	r2, [r7, #44]	@ 0x2c
100074dc:	623a      	str	r2, [r7, #32]
100074de:	61fb      	str	r3, [r7, #28]
100074e0:	6a3b      	ldr	r3, [r7, #32]
100074e2:	2280      	movs	r2, #128	@ 0x80
100074e4:	0152      	lsls	r2, r2, #5
100074e6:	4313      	orrs	r3, r2
100074e8:	69fa      	ldr	r2, [r7, #28]
100074ea:	601a      	str	r2, [r3, #0]
100074ec:	46c0      	nop			@ (mov r8, r8)
100074ee:	46c0      	nop			@ (mov r8, r8)
100074f0:	697b      	ldr	r3, [r7, #20]
100074f2:	0018      	movs	r0, r3
100074f4:	f7ff fe68 	bl	100071c8 <spi_get_hw>
100074f8:	0003      	movs	r3, r0
100074fa:	3304      	adds	r3, #4
100074fc:	637b      	str	r3, [r7, #52]	@ 0x34
100074fe:	6c3b      	ldr	r3, [r7, #64]	@ 0x40
10007500:	633b      	str	r3, [r7, #48]	@ 0x30
10007502:	6b7b      	ldr	r3, [r7, #52]	@ 0x34
10007504:	2280      	movs	r2, #128	@ 0x80
10007506:	0192      	lsls	r2, r2, #6
10007508:	4313      	orrs	r3, r2
1000750a:	6b3a      	ldr	r2, [r7, #48]	@ 0x30
1000750c:	601a      	str	r2, [r3, #0]
1000750e:	46c0      	nop			@ (mov r8, r8)
10007510:	6cfb      	ldr	r3, [r7, #76]	@ 0x4c
10007512:	6cba      	ldr	r2, [r7, #72]	@ 0x48
10007514:	4353      	muls	r3, r2
10007516:	0019      	movs	r1, r3
10007518:	6c78      	ldr	r0, [r7, #68]	@ 0x44
1000751a:	f7fe f97f 	bl	1000581c <__wrap___aeabi_uidiv>
1000751e:	0003      	movs	r3, r0
10007520:	0018      	movs	r0, r3
10007522:	46bd      	mov	sp, r7
10007524:	b014      	add	sp, #80	@ 0x50
10007526:	bdb0      	pop	{r4, r5, r7, pc}

10007528 <w25qxx_Demo>:
10007528:	b590      	push	{r4, r7, lr}
1000752a:	b08d      	sub	sp, #52	@ 0x34
1000752c:	af02      	add	r7, sp, #8
1000752e:	6078      	str	r0, [r7, #4]
10007530:	4b90      	ldr	r3, [pc, #576]	@ (10007774 <w25qxx_Demo+0x24c>)
10007532:	781b      	ldrb	r3, [r3, #0]
10007534:	2201      	movs	r2, #1
10007536:	4013      	ands	r3, r2
10007538:	b2db      	uxtb	r3, r3
1000753a:	2b00      	cmp	r3, #0
1000753c:	d001      	beq.n	10007542 <w25qxx_Demo+0x1a>
1000753e:	2300      	movs	r3, #0
10007540:	e113      	b.n	1000776a <w25qxx_Demo+0x242>
10007542:	4b8c      	ldr	r3, [pc, #560]	@ (10007774 <w25qxx_Demo+0x24c>)
10007544:	781b      	ldrb	r3, [r3, #0]
10007546:	2202      	movs	r2, #2
10007548:	4013      	ands	r3, r2
1000754a:	b2db      	uxtb	r3, r3
1000754c:	2b00      	cmp	r3, #0
1000754e:	d001      	beq.n	10007554 <w25qxx_Demo+0x2c>
10007550:	2301      	movs	r3, #1
10007552:	e10a      	b.n	1000776a <w25qxx_Demo+0x242>
10007554:	4a88      	ldr	r2, [pc, #544]	@ (10007778 <w25qxx_Demo+0x250>)
10007556:	687b      	ldr	r3, [r7, #4]
10007558:	0010      	movs	r0, r2
1000755a:	4798      	blx	r3
1000755c:	4b87      	ldr	r3, [pc, #540]	@ (1000777c <w25qxx_Demo+0x254>)
1000755e:	4a88      	ldr	r2, [pc, #544]	@ (10007780 <w25qxx_Demo+0x258>)
10007560:	4988      	ldr	r1, [pc, #544]	@ (10007784 <w25qxx_Demo+0x25c>)
10007562:	4889      	ldr	r0, [pc, #548]	@ (10007788 <w25qxx_Demo+0x260>)
10007564:	f000 f9f2 	bl	1000794c <w25qxx_Link>
10007568:	4a88      	ldr	r2, [pc, #544]	@ (1000778c <w25qxx_Demo+0x264>)
1000756a:	687b      	ldr	r3, [r7, #4]
1000756c:	0010      	movs	r0, r2
1000756e:	4798      	blx	r3
10007570:	4b85      	ldr	r3, [pc, #532]	@ (10007788 <w25qxx_Demo+0x260>)
10007572:	0018      	movs	r0, r3
10007574:	f000 fa7c 	bl	10007a70 <w25qxx_Init>
10007578:	4a85      	ldr	r2, [pc, #532]	@ (10007790 <w25qxx_Demo+0x268>)
1000757a:	687b      	ldr	r3, [r7, #4]
1000757c:	0010      	movs	r0, r2
1000757e:	4798      	blx	r3
10007580:	4b81      	ldr	r3, [pc, #516]	@ (10007788 <w25qxx_Demo+0x260>)
10007582:	781b      	ldrb	r3, [r3, #0]
10007584:	2bef      	cmp	r3, #239	@ 0xef
10007586:	d10e      	bne.n	100075a6 <w25qxx_Demo+0x7e>
10007588:	4a82      	ldr	r2, [pc, #520]	@ (10007794 <w25qxx_Demo+0x26c>)
1000758a:	687b      	ldr	r3, [r7, #4]
1000758c:	0010      	movs	r0, r2
1000758e:	4798      	blx	r3
10007590:	46c0      	nop			@ (mov r8, r8)
10007592:	4a81      	ldr	r2, [pc, #516]	@ (10007798 <w25qxx_Demo+0x270>)
10007594:	687b      	ldr	r3, [r7, #4]
10007596:	0010      	movs	r0, r2
10007598:	4798      	blx	r3
1000759a:	4b7b      	ldr	r3, [pc, #492]	@ (10007788 <w25qxx_Demo+0x260>)
1000759c:	785b      	ldrb	r3, [r3, #1]
1000759e:	3b13      	subs	r3, #19
100075a0:	2b04      	cmp	r3, #4
100075a2:	d828      	bhi.n	100075f6 <w25qxx_Demo+0xce>
100075a4:	e009      	b.n	100075ba <w25qxx_Demo+0x92>
100075a6:	4a7d      	ldr	r2, [pc, #500]	@ (1000779c <w25qxx_Demo+0x274>)
100075a8:	687b      	ldr	r3, [r7, #4]
100075aa:	0010      	movs	r0, r2
100075ac:	4798      	blx	r3
100075ae:	687b      	ldr	r3, [r7, #4]
100075b0:	0018      	movs	r0, r3
100075b2:	f000 f91b 	bl	100077ec <w25qxx_DemoErrorHandler>
100075b6:	2301      	movs	r3, #1
100075b8:	e0d7      	b.n	1000776a <w25qxx_Demo+0x242>
100075ba:	009a      	lsls	r2, r3, #2
100075bc:	4b78      	ldr	r3, [pc, #480]	@ (100077a0 <w25qxx_Demo+0x278>)
100075be:	18d3      	adds	r3, r2, r3
100075c0:	681b      	ldr	r3, [r3, #0]
100075c2:	469f      	mov	pc, r3
100075c4:	4a77      	ldr	r2, [pc, #476]	@ (100077a4 <w25qxx_Demo+0x27c>)
100075c6:	687b      	ldr	r3, [r7, #4]
100075c8:	0010      	movs	r0, r2
100075ca:	4798      	blx	r3
100075cc:	e01d      	b.n	1000760a <w25qxx_Demo+0xe2>
100075ce:	4a76      	ldr	r2, [pc, #472]	@ (100077a8 <w25qxx_Demo+0x280>)
100075d0:	687b      	ldr	r3, [r7, #4]
100075d2:	0010      	movs	r0, r2
100075d4:	4798      	blx	r3
100075d6:	e018      	b.n	1000760a <w25qxx_Demo+0xe2>
100075d8:	4a74      	ldr	r2, [pc, #464]	@ (100077ac <w25qxx_Demo+0x284>)
100075da:	687b      	ldr	r3, [r7, #4]
100075dc:	0010      	movs	r0, r2
100075de:	4798      	blx	r3
100075e0:	e013      	b.n	1000760a <w25qxx_Demo+0xe2>
100075e2:	4a73      	ldr	r2, [pc, #460]	@ (100077b0 <w25qxx_Demo+0x288>)
100075e4:	687b      	ldr	r3, [r7, #4]
100075e6:	0010      	movs	r0, r2
100075e8:	4798      	blx	r3
100075ea:	e00e      	b.n	1000760a <w25qxx_Demo+0xe2>
100075ec:	4a71      	ldr	r2, [pc, #452]	@ (100077b4 <w25qxx_Demo+0x28c>)
100075ee:	687b      	ldr	r3, [r7, #4]
100075f0:	0010      	movs	r0, r2
100075f2:	4798      	blx	r3
100075f4:	e009      	b.n	1000760a <w25qxx_Demo+0xe2>
100075f6:	4a69      	ldr	r2, [pc, #420]	@ (1000779c <w25qxx_Demo+0x274>)
100075f8:	687b      	ldr	r3, [r7, #4]
100075fa:	0010      	movs	r0, r2
100075fc:	4798      	blx	r3
100075fe:	687b      	ldr	r3, [r7, #4]
10007600:	0018      	movs	r0, r3
10007602:	f000 f8f3 	bl	100077ec <w25qxx_DemoErrorHandler>
10007606:	2301      	movs	r3, #1
10007608:	e0af      	b.n	1000776a <w25qxx_Demo+0x242>
1000760a:	4b5f      	ldr	r3, [pc, #380]	@ (10007788 <w25qxx_Demo+0x260>)
1000760c:	685b      	ldr	r3, [r3, #4]
1000760e:	02db      	lsls	r3, r3, #11
10007610:	0d19      	lsrs	r1, r3, #20
10007612:	4b5d      	ldr	r3, [pc, #372]	@ (10007788 <w25qxx_Demo+0x260>)
10007614:	685b      	ldr	r3, [r3, #4]
10007616:	4a68      	ldr	r2, [pc, #416]	@ (100077b8 <w25qxx_Demo+0x290>)
10007618:	2408      	movs	r4, #8
1000761a:	1938      	adds	r0, r7, r4
1000761c:	9300      	str	r3, [sp, #0]
1000761e:	000b      	movs	r3, r1
10007620:	211e      	movs	r1, #30
10007622:	f7fe f819 	bl	10005658 <__wrap_snprintf>
10007626:	193a      	adds	r2, r7, r4
10007628:	687b      	ldr	r3, [r7, #4]
1000762a:	0010      	movs	r0, r2
1000762c:	4798      	blx	r3
1000762e:	4a63      	ldr	r2, [pc, #396]	@ (100077bc <w25qxx_Demo+0x294>)
10007630:	687b      	ldr	r3, [r7, #4]
10007632:	0010      	movs	r0, r2
10007634:	4798      	blx	r3
10007636:	4b54      	ldr	r3, [pc, #336]	@ (10007788 <w25qxx_Demo+0x260>)
10007638:	2200      	movs	r2, #0
1000763a:	721a      	strb	r2, [r3, #8]
1000763c:	4b52      	ldr	r3, [pc, #328]	@ (10007788 <w25qxx_Demo+0x260>)
1000763e:	2201      	movs	r2, #1
10007640:	2101      	movs	r1, #1
10007642:	0018      	movs	r0, r3
10007644:	f001 fa94 	bl	10008b70 <w25qxx_WriteStatus>
10007648:	4b4f      	ldr	r3, [pc, #316]	@ (10007788 <w25qxx_Demo+0x260>)
1000764a:	2201      	movs	r2, #1
1000764c:	2102      	movs	r1, #2
1000764e:	0018      	movs	r0, r3
10007650:	f001 fa8e 	bl	10008b70 <w25qxx_WriteStatus>
10007654:	4b4c      	ldr	r3, [pc, #304]	@ (10007788 <w25qxx_Demo+0x260>)
10007656:	2201      	movs	r2, #1
10007658:	2103      	movs	r1, #3
1000765a:	0018      	movs	r0, r3
1000765c:	f001 fa88 	bl	10008b70 <w25qxx_WriteStatus>
10007660:	4a57      	ldr	r2, [pc, #348]	@ (100077c0 <w25qxx_Demo+0x298>)
10007662:	687b      	ldr	r3, [r7, #4]
10007664:	0010      	movs	r0, r2
10007666:	4798      	blx	r3
10007668:	23f8      	movs	r3, #248	@ 0xf8
1000766a:	015b      	lsls	r3, r3, #5
1000766c:	4955      	ldr	r1, [pc, #340]	@ (100077c4 <w25qxx_Demo+0x29c>)
1000766e:	4846      	ldr	r0, [pc, #280]	@ (10007788 <w25qxx_Demo+0x260>)
10007670:	2200      	movs	r2, #0
10007672:	9201      	str	r2, [sp, #4]
10007674:	2201      	movs	r2, #1
10007676:	9200      	str	r2, [sp, #0]
10007678:	220d      	movs	r2, #13
1000767a:	f000 fcb6 	bl	10007fea <w25qxx_Read>
1000767e:	4a42      	ldr	r2, [pc, #264]	@ (10007788 <w25qxx_Demo+0x260>)
10007680:	2314      	movs	r3, #20
10007682:	33ff      	adds	r3, #255	@ 0xff
10007684:	5cd3      	ldrb	r3, [r2, r3]
10007686:	2b00      	cmp	r3, #0
10007688:	d002      	beq.n	10007690 <w25qxx_Demo+0x168>
1000768a:	2b07      	cmp	r3, #7
1000768c:	d013      	beq.n	100076b6 <w25qxx_Demo+0x18e>
1000768e:	e064      	b.n	1000775a <w25qxx_Demo+0x232>
10007690:	494d      	ldr	r1, [pc, #308]	@ (100077c8 <w25qxx_Demo+0x2a0>)
10007692:	4b4c      	ldr	r3, [pc, #304]	@ (100077c4 <w25qxx_Demo+0x29c>)
10007694:	220d      	movs	r2, #13
10007696:	0018      	movs	r0, r3
10007698:	f001 fe02 	bl	100092a0 <memcmp>
1000769c:	1e03      	subs	r3, r0, #0
1000769e:	d162      	bne.n	10007766 <w25qxx_Demo+0x23e>
100076a0:	4a4a      	ldr	r2, [pc, #296]	@ (100077cc <w25qxx_Demo+0x2a4>)
100076a2:	687b      	ldr	r3, [r7, #4]
100076a4:	0010      	movs	r0, r2
100076a6:	4798      	blx	r3
100076a8:	4b32      	ldr	r3, [pc, #200]	@ (10007774 <w25qxx_Demo+0x24c>)
100076aa:	781a      	ldrb	r2, [r3, #0]
100076ac:	2101      	movs	r1, #1
100076ae:	430a      	orrs	r2, r1
100076b0:	701a      	strb	r2, [r3, #0]
100076b2:	2300      	movs	r3, #0
100076b4:	e059      	b.n	1000776a <w25qxx_Demo+0x242>
100076b6:	4a46      	ldr	r2, [pc, #280]	@ (100077d0 <w25qxx_Demo+0x2a8>)
100076b8:	687b      	ldr	r3, [r7, #4]
100076ba:	0010      	movs	r0, r2
100076bc:	4798      	blx	r3
100076be:	4a45      	ldr	r2, [pc, #276]	@ (100077d4 <w25qxx_Demo+0x2ac>)
100076c0:	687b      	ldr	r3, [r7, #4]
100076c2:	0010      	movs	r0, r2
100076c4:	4798      	blx	r3
100076c6:	4b30      	ldr	r3, [pc, #192]	@ (10007788 <w25qxx_Demo+0x260>)
100076c8:	0018      	movs	r0, r3
100076ca:	f001 fbd5 	bl	10008e78 <w25qxx_ResetError>
100076ce:	4a42      	ldr	r2, [pc, #264]	@ (100077d8 <w25qxx_Demo+0x2b0>)
100076d0:	687b      	ldr	r3, [r7, #4]
100076d2:	0010      	movs	r0, r2
100076d4:	4798      	blx	r3
100076d6:	2380      	movs	r3, #128	@ 0x80
100076d8:	015a      	lsls	r2, r3, #5
100076da:	482b      	ldr	r0, [pc, #172]	@ (10007788 <w25qxx_Demo+0x260>)
100076dc:	2302      	movs	r3, #2
100076de:	2100      	movs	r1, #0
100076e0:	f000 fe28 	bl	10008334 <w25qxx_Erase>
100076e4:	4a3d      	ldr	r2, [pc, #244]	@ (100077dc <w25qxx_Demo+0x2b4>)
100076e6:	687b      	ldr	r3, [r7, #4]
100076e8:	0010      	movs	r0, r2
100076ea:	4798      	blx	r3
100076ec:	23f8      	movs	r3, #248	@ 0xf8
100076ee:	015b      	lsls	r3, r3, #5
100076f0:	4935      	ldr	r1, [pc, #212]	@ (100077c8 <w25qxx_Demo+0x2a0>)
100076f2:	4825      	ldr	r0, [pc, #148]	@ (10007788 <w25qxx_Demo+0x260>)
100076f4:	2202      	movs	r2, #2
100076f6:	9201      	str	r2, [sp, #4]
100076f8:	2201      	movs	r2, #1
100076fa:	9200      	str	r2, [sp, #0]
100076fc:	220d      	movs	r2, #13
100076fe:	f000 faa5 	bl	10007c4c <w25qxx_Write>
10007702:	4a37      	ldr	r2, [pc, #220]	@ (100077e0 <w25qxx_Demo+0x2b8>)
10007704:	687b      	ldr	r3, [r7, #4]
10007706:	0010      	movs	r0, r2
10007708:	4798      	blx	r3
1000770a:	23f8      	movs	r3, #248	@ 0xf8
1000770c:	015b      	lsls	r3, r3, #5
1000770e:	492d      	ldr	r1, [pc, #180]	@ (100077c4 <w25qxx_Demo+0x29c>)
10007710:	481d      	ldr	r0, [pc, #116]	@ (10007788 <w25qxx_Demo+0x260>)
10007712:	2200      	movs	r2, #0
10007714:	9201      	str	r2, [sp, #4]
10007716:	2201      	movs	r2, #1
10007718:	9200      	str	r2, [sp, #0]
1000771a:	220d      	movs	r2, #13
1000771c:	f000 fc65 	bl	10007fea <w25qxx_Read>
10007720:	4929      	ldr	r1, [pc, #164]	@ (100077c8 <w25qxx_Demo+0x2a0>)
10007722:	4b28      	ldr	r3, [pc, #160]	@ (100077c4 <w25qxx_Demo+0x29c>)
10007724:	220d      	movs	r2, #13
10007726:	0018      	movs	r0, r3
10007728:	f001 fdba 	bl	100092a0 <memcmp>
1000772c:	1e03      	subs	r3, r0, #0
1000772e:	d10a      	bne.n	10007746 <w25qxx_Demo+0x21e>
10007730:	4a2c      	ldr	r2, [pc, #176]	@ (100077e4 <w25qxx_Demo+0x2bc>)
10007732:	687b      	ldr	r3, [r7, #4]
10007734:	0010      	movs	r0, r2
10007736:	4798      	blx	r3
10007738:	4b0e      	ldr	r3, [pc, #56]	@ (10007774 <w25qxx_Demo+0x24c>)
1000773a:	781a      	ldrb	r2, [r3, #0]
1000773c:	2101      	movs	r1, #1
1000773e:	430a      	orrs	r2, r1
10007740:	701a      	strb	r2, [r3, #0]
10007742:	2300      	movs	r3, #0
10007744:	e011      	b.n	1000776a <w25qxx_Demo+0x242>
10007746:	4a28      	ldr	r2, [pc, #160]	@ (100077e8 <w25qxx_Demo+0x2c0>)
10007748:	687b      	ldr	r3, [r7, #4]
1000774a:	0010      	movs	r0, r2
1000774c:	4798      	blx	r3
1000774e:	687b      	ldr	r3, [r7, #4]
10007750:	0018      	movs	r0, r3
10007752:	f000 f84b 	bl	100077ec <w25qxx_DemoErrorHandler>
10007756:	2301      	movs	r3, #1
10007758:	e007      	b.n	1000776a <w25qxx_Demo+0x242>
1000775a:	687b      	ldr	r3, [r7, #4]
1000775c:	0018      	movs	r0, r3
1000775e:	f000 f845 	bl	100077ec <w25qxx_DemoErrorHandler>
10007762:	2301      	movs	r3, #1
10007764:	e001      	b.n	1000776a <w25qxx_Demo+0x242>
10007766:	46c0      	nop			@ (mov r8, r8)
10007768:	2301      	movs	r3, #1
1000776a:	0018      	movs	r0, r3
1000776c:	46bd      	mov	sp, r7
1000776e:	b00b      	add	sp, #44	@ 0x2c
10007770:	bd90      	pop	{r4, r7, pc}
10007772:	46c0      	nop			@ (mov r8, r8)
10007774:	20000768 	.word	0x20000768
10007778:	1000a714 	.word	0x1000a714
1000777c:	100005f9 	.word	0x100005f9
10007780:	100005b1 	.word	0x100005b1
10007784:	10000569 	.word	0x10000569
10007788:	200009c0 	.word	0x200009c0
1000778c:	1000a728 	.word	0x1000a728
10007790:	1000a740 	.word	0x1000a740
10007794:	1000a750 	.word	0x1000a750
10007798:	1000a768 	.word	0x1000a768
1000779c:	1000a75c 	.word	0x1000a75c
100077a0:	1000a9e4 	.word	0x1000a9e4
100077a4:	1000a774 	.word	0x1000a774
100077a8:	1000a77c 	.word	0x1000a77c
100077ac:	1000a784 	.word	0x1000a784
100077b0:	1000a78c 	.word	0x1000a78c
100077b4:	1000a794 	.word	0x1000a794
100077b8:	1000a79c 	.word	0x1000a79c
100077bc:	1000a7b4 	.word	0x1000a7b4
100077c0:	1000a7e4 	.word	0x1000a7e4
100077c4:	200006e8 	.word	0x200006e8
100077c8:	1000a704 	.word	0x1000a704
100077cc:	1000a7fc 	.word	0x1000a7fc
100077d0:	1000a82c 	.word	0x1000a82c
100077d4:	1000a864 	.word	0x1000a864
100077d8:	1000a87c 	.word	0x1000a87c
100077dc:	1000a88c 	.word	0x1000a88c
100077e0:	1000a8a8 	.word	0x1000a8a8
100077e4:	1000a8c4 	.word	0x1000a8c4
100077e8:	1000a8e0 	.word	0x1000a8e0

100077ec <w25qxx_DemoErrorHandler>:
100077ec:	b580      	push	{r7, lr}
100077ee:	b082      	sub	sp, #8
100077f0:	af00      	add	r7, sp, #0
100077f2:	6078      	str	r0, [r7, #4]
100077f4:	4b3e      	ldr	r3, [pc, #248]	@ (100078f0 <w25qxx_DemoErrorHandler+0x104>)
100077f6:	781a      	ldrb	r2, [r3, #0]
100077f8:	2102      	movs	r1, #2
100077fa:	430a      	orrs	r2, r1
100077fc:	701a      	strb	r2, [r3, #0]
100077fe:	4a3d      	ldr	r2, [pc, #244]	@ (100078f4 <w25qxx_DemoErrorHandler+0x108>)
10007800:	687b      	ldr	r3, [r7, #4]
10007802:	0010      	movs	r0, r2
10007804:	4798      	blx	r3
10007806:	4a3c      	ldr	r2, [pc, #240]	@ (100078f8 <w25qxx_DemoErrorHandler+0x10c>)
10007808:	2314      	movs	r3, #20
1000780a:	33ff      	adds	r3, #255	@ 0xff
1000780c:	5cd3      	ldrb	r3, [r2, r3]
1000780e:	2b08      	cmp	r3, #8
10007810:	d82d      	bhi.n	1000786e <w25qxx_DemoErrorHandler+0x82>
10007812:	009a      	lsls	r2, r3, #2
10007814:	4b39      	ldr	r3, [pc, #228]	@ (100078fc <w25qxx_DemoErrorHandler+0x110>)
10007816:	18d3      	adds	r3, r2, r3
10007818:	681b      	ldr	r3, [r3, #0]
1000781a:	469f      	mov	pc, r3
1000781c:	4a38      	ldr	r2, [pc, #224]	@ (10007900 <w25qxx_DemoErrorHandler+0x114>)
1000781e:	687b      	ldr	r3, [r7, #4]
10007820:	0010      	movs	r0, r2
10007822:	4798      	blx	r3
10007824:	e023      	b.n	1000786e <w25qxx_DemoErrorHandler+0x82>
10007826:	4a37      	ldr	r2, [pc, #220]	@ (10007904 <w25qxx_DemoErrorHandler+0x118>)
10007828:	687b      	ldr	r3, [r7, #4]
1000782a:	0010      	movs	r0, r2
1000782c:	4798      	blx	r3
1000782e:	e01e      	b.n	1000786e <w25qxx_DemoErrorHandler+0x82>
10007830:	4a35      	ldr	r2, [pc, #212]	@ (10007908 <w25qxx_DemoErrorHandler+0x11c>)
10007832:	687b      	ldr	r3, [r7, #4]
10007834:	0010      	movs	r0, r2
10007836:	4798      	blx	r3
10007838:	e019      	b.n	1000786e <w25qxx_DemoErrorHandler+0x82>
1000783a:	4a34      	ldr	r2, [pc, #208]	@ (1000790c <w25qxx_DemoErrorHandler+0x120>)
1000783c:	687b      	ldr	r3, [r7, #4]
1000783e:	0010      	movs	r0, r2
10007840:	4798      	blx	r3
10007842:	e014      	b.n	1000786e <w25qxx_DemoErrorHandler+0x82>
10007844:	4a32      	ldr	r2, [pc, #200]	@ (10007910 <w25qxx_DemoErrorHandler+0x124>)
10007846:	687b      	ldr	r3, [r7, #4]
10007848:	0010      	movs	r0, r2
1000784a:	4798      	blx	r3
1000784c:	e00f      	b.n	1000786e <w25qxx_DemoErrorHandler+0x82>
1000784e:	4a31      	ldr	r2, [pc, #196]	@ (10007914 <w25qxx_DemoErrorHandler+0x128>)
10007850:	687b      	ldr	r3, [r7, #4]
10007852:	0010      	movs	r0, r2
10007854:	4798      	blx	r3
10007856:	e00a      	b.n	1000786e <w25qxx_DemoErrorHandler+0x82>
10007858:	4a2f      	ldr	r2, [pc, #188]	@ (10007918 <w25qxx_DemoErrorHandler+0x12c>)
1000785a:	687b      	ldr	r3, [r7, #4]
1000785c:	0010      	movs	r0, r2
1000785e:	4798      	blx	r3
10007860:	e005      	b.n	1000786e <w25qxx_DemoErrorHandler+0x82>
10007862:	4a2e      	ldr	r2, [pc, #184]	@ (1000791c <w25qxx_DemoErrorHandler+0x130>)
10007864:	687b      	ldr	r3, [r7, #4]
10007866:	0010      	movs	r0, r2
10007868:	4798      	blx	r3
1000786a:	e000      	b.n	1000786e <w25qxx_DemoErrorHandler+0x82>
1000786c:	46c0      	nop			@ (mov r8, r8)
1000786e:	4a2c      	ldr	r2, [pc, #176]	@ (10007920 <w25qxx_DemoErrorHandler+0x134>)
10007870:	687b      	ldr	r3, [r7, #4]
10007872:	0010      	movs	r0, r2
10007874:	4798      	blx	r3
10007876:	4a20      	ldr	r2, [pc, #128]	@ (100078f8 <w25qxx_DemoErrorHandler+0x10c>)
10007878:	2389      	movs	r3, #137	@ 0x89
1000787a:	005b      	lsls	r3, r3, #1
1000787c:	5cd3      	ldrb	r3, [r2, r3]
1000787e:	2b08      	cmp	r3, #8
10007880:	d831      	bhi.n	100078e6 <w25qxx_DemoErrorHandler+0xfa>
10007882:	009a      	lsls	r2, r3, #2
10007884:	4b27      	ldr	r3, [pc, #156]	@ (10007924 <w25qxx_DemoErrorHandler+0x138>)
10007886:	18d3      	adds	r3, r2, r3
10007888:	681b      	ldr	r3, [r3, #0]
1000788a:	469f      	mov	pc, r3
1000788c:	4a26      	ldr	r2, [pc, #152]	@ (10007928 <w25qxx_DemoErrorHandler+0x13c>)
1000788e:	687b      	ldr	r3, [r7, #4]
10007890:	0010      	movs	r0, r2
10007892:	4798      	blx	r3
10007894:	e027      	b.n	100078e6 <w25qxx_DemoErrorHandler+0xfa>
10007896:	4a25      	ldr	r2, [pc, #148]	@ (1000792c <w25qxx_DemoErrorHandler+0x140>)
10007898:	687b      	ldr	r3, [r7, #4]
1000789a:	0010      	movs	r0, r2
1000789c:	4798      	blx	r3
1000789e:	e022      	b.n	100078e6 <w25qxx_DemoErrorHandler+0xfa>
100078a0:	4a23      	ldr	r2, [pc, #140]	@ (10007930 <w25qxx_DemoErrorHandler+0x144>)
100078a2:	687b      	ldr	r3, [r7, #4]
100078a4:	0010      	movs	r0, r2
100078a6:	4798      	blx	r3
100078a8:	e01d      	b.n	100078e6 <w25qxx_DemoErrorHandler+0xfa>
100078aa:	4a22      	ldr	r2, [pc, #136]	@ (10007934 <w25qxx_DemoErrorHandler+0x148>)
100078ac:	687b      	ldr	r3, [r7, #4]
100078ae:	0010      	movs	r0, r2
100078b0:	4798      	blx	r3
100078b2:	e018      	b.n	100078e6 <w25qxx_DemoErrorHandler+0xfa>
100078b4:	4a20      	ldr	r2, [pc, #128]	@ (10007938 <w25qxx_DemoErrorHandler+0x14c>)
100078b6:	687b      	ldr	r3, [r7, #4]
100078b8:	0010      	movs	r0, r2
100078ba:	4798      	blx	r3
100078bc:	e013      	b.n	100078e6 <w25qxx_DemoErrorHandler+0xfa>
100078be:	4a1f      	ldr	r2, [pc, #124]	@ (1000793c <w25qxx_DemoErrorHandler+0x150>)
100078c0:	687b      	ldr	r3, [r7, #4]
100078c2:	0010      	movs	r0, r2
100078c4:	4798      	blx	r3
100078c6:	e00e      	b.n	100078e6 <w25qxx_DemoErrorHandler+0xfa>
100078c8:	4a1d      	ldr	r2, [pc, #116]	@ (10007940 <w25qxx_DemoErrorHandler+0x154>)
100078ca:	687b      	ldr	r3, [r7, #4]
100078cc:	0010      	movs	r0, r2
100078ce:	4798      	blx	r3
100078d0:	e009      	b.n	100078e6 <w25qxx_DemoErrorHandler+0xfa>
100078d2:	4a1c      	ldr	r2, [pc, #112]	@ (10007944 <w25qxx_DemoErrorHandler+0x158>)
100078d4:	687b      	ldr	r3, [r7, #4]
100078d6:	0010      	movs	r0, r2
100078d8:	4798      	blx	r3
100078da:	e004      	b.n	100078e6 <w25qxx_DemoErrorHandler+0xfa>
100078dc:	4a1a      	ldr	r2, [pc, #104]	@ (10007948 <w25qxx_DemoErrorHandler+0x15c>)
100078de:	687b      	ldr	r3, [r7, #4]
100078e0:	0010      	movs	r0, r2
100078e2:	4798      	blx	r3
100078e4:	46c0      	nop			@ (mov r8, r8)
100078e6:	46c0      	nop			@ (mov r8, r8)
100078e8:	46bd      	mov	sp, r7
100078ea:	b002      	add	sp, #8
100078ec:	bd80      	pop	{r7, pc}
100078ee:	46c0      	nop			@ (mov r8, r8)
100078f0:	20000768 	.word	0x20000768
100078f4:	1000a8fc 	.word	0x1000a8fc
100078f8:	200009c0 	.word	0x200009c0
100078fc:	1000a9f8 	.word	0x1000a9f8
10007900:	1000a910 	.word	0x1000a910
10007904:	1000a920 	.word	0x1000a920
10007908:	1000a930 	.word	0x1000a930
1000790c:	1000a93c 	.word	0x1000a93c
10007910:	1000a948 	.word	0x1000a948
10007914:	1000a950 	.word	0x1000a950
10007918:	1000a95c 	.word	0x1000a95c
1000791c:	1000a968 	.word	0x1000a968
10007920:	1000a978 	.word	0x1000a978
10007924:	1000aa1c 	.word	0x1000aa1c
10007928:	1000a990 	.word	0x1000a990
1000792c:	1000a99c 	.word	0x1000a99c
10007930:	1000a9a4 	.word	0x1000a9a4
10007934:	1000a9ac 	.word	0x1000a9ac
10007938:	1000a9b4 	.word	0x1000a9b4
1000793c:	1000a9c0 	.word	0x1000a9c0
10007940:	1000a9cc 	.word	0x1000a9cc
10007944:	1000a9d8 	.word	0x1000a9d8
10007948:	1000a75c 	.word	0x1000a75c

1000794c <w25qxx_Link>:
1000794c:	b580      	push	{r7, lr}
1000794e:	b084      	sub	sp, #16
10007950:	af00      	add	r7, sp, #0
10007952:	60f8      	str	r0, [r7, #12]
10007954:	60b9      	str	r1, [r7, #8]
10007956:	607a      	str	r2, [r7, #4]
10007958:	603b      	str	r3, [r7, #0]
1000795a:	68fb      	ldr	r3, [r7, #12]
1000795c:	2b00      	cmp	r3, #0
1000795e:	d100      	bne.n	10007962 <w25qxx_Link+0x16>
10007960:	e07e      	b.n	10007a60 <w25qxx_Link+0x114>
10007962:	68fa      	ldr	r2, [r7, #12]
10007964:	2314      	movs	r3, #20
10007966:	33ff      	adds	r3, #255	@ 0xff
10007968:	5cd3      	ldrb	r3, [r2, r3]
1000796a:	2b00      	cmp	r3, #0
1000796c:	d000      	beq.n	10007970 <w25qxx_Link+0x24>
1000796e:	e079      	b.n	10007a64 <w25qxx_Link+0x118>
10007970:	68fa      	ldr	r2, [r7, #12]
10007972:	2389      	movs	r3, #137	@ 0x89
10007974:	005b      	lsls	r3, r3, #1
10007976:	5cd3      	ldrb	r3, [r2, r3]
10007978:	2b00      	cmp	r3, #0
1000797a:	d011      	beq.n	100079a0 <w25qxx_Link+0x54>
1000797c:	68fa      	ldr	r2, [r7, #12]
1000797e:	2314      	movs	r3, #20
10007980:	33ff      	adds	r3, #255	@ 0xff
10007982:	2101      	movs	r1, #1
10007984:	54d1      	strb	r1, [r2, r3]
10007986:	68fa      	ldr	r2, [r7, #12]
10007988:	238e      	movs	r3, #142	@ 0x8e
1000798a:	005b      	lsls	r3, r3, #1
1000798c:	58d3      	ldr	r3, [r2, r3]
1000798e:	2b00      	cmp	r3, #0
10007990:	d069      	beq.n	10007a66 <w25qxx_Link+0x11a>
10007992:	68fa      	ldr	r2, [r7, #12]
10007994:	238e      	movs	r3, #142	@ 0x8e
10007996:	005b      	lsls	r3, r3, #1
10007998:	58d3      	ldr	r3, [r2, r3]
1000799a:	2001      	movs	r0, #1
1000799c:	4798      	blx	r3
1000799e:	e062      	b.n	10007a66 <w25qxx_Link+0x11a>
100079a0:	68bb      	ldr	r3, [r7, #8]
100079a2:	2b00      	cmp	r3, #0
100079a4:	d111      	bne.n	100079ca <w25qxx_Link+0x7e>
100079a6:	68fa      	ldr	r2, [r7, #12]
100079a8:	2314      	movs	r3, #20
100079aa:	33ff      	adds	r3, #255	@ 0xff
100079ac:	2103      	movs	r1, #3
100079ae:	54d1      	strb	r1, [r2, r3]
100079b0:	68fa      	ldr	r2, [r7, #12]
100079b2:	238e      	movs	r3, #142	@ 0x8e
100079b4:	005b      	lsls	r3, r3, #1
100079b6:	58d3      	ldr	r3, [r2, r3]
100079b8:	2b00      	cmp	r3, #0
100079ba:	d054      	beq.n	10007a66 <w25qxx_Link+0x11a>
100079bc:	68fa      	ldr	r2, [r7, #12]
100079be:	238e      	movs	r3, #142	@ 0x8e
100079c0:	005b      	lsls	r3, r3, #1
100079c2:	58d3      	ldr	r3, [r2, r3]
100079c4:	2001      	movs	r0, #1
100079c6:	4798      	blx	r3
100079c8:	e04d      	b.n	10007a66 <w25qxx_Link+0x11a>
100079ca:	687b      	ldr	r3, [r7, #4]
100079cc:	2b00      	cmp	r3, #0
100079ce:	d111      	bne.n	100079f4 <w25qxx_Link+0xa8>
100079d0:	68fa      	ldr	r2, [r7, #12]
100079d2:	2314      	movs	r3, #20
100079d4:	33ff      	adds	r3, #255	@ 0xff
100079d6:	2103      	movs	r1, #3
100079d8:	54d1      	strb	r1, [r2, r3]
100079da:	68fa      	ldr	r2, [r7, #12]
100079dc:	238e      	movs	r3, #142	@ 0x8e
100079de:	005b      	lsls	r3, r3, #1
100079e0:	58d3      	ldr	r3, [r2, r3]
100079e2:	2b00      	cmp	r3, #0
100079e4:	d03f      	beq.n	10007a66 <w25qxx_Link+0x11a>
100079e6:	68fa      	ldr	r2, [r7, #12]
100079e8:	238e      	movs	r3, #142	@ 0x8e
100079ea:	005b      	lsls	r3, r3, #1
100079ec:	58d3      	ldr	r3, [r2, r3]
100079ee:	2001      	movs	r0, #1
100079f0:	4798      	blx	r3
100079f2:	e038      	b.n	10007a66 <w25qxx_Link+0x11a>
100079f4:	683b      	ldr	r3, [r7, #0]
100079f6:	2b00      	cmp	r3, #0
100079f8:	d111      	bne.n	10007a1e <w25qxx_Link+0xd2>
100079fa:	68fa      	ldr	r2, [r7, #12]
100079fc:	2314      	movs	r3, #20
100079fe:	33ff      	adds	r3, #255	@ 0xff
10007a00:	2103      	movs	r1, #3
10007a02:	54d1      	strb	r1, [r2, r3]
10007a04:	68fa      	ldr	r2, [r7, #12]
10007a06:	238e      	movs	r3, #142	@ 0x8e
10007a08:	005b      	lsls	r3, r3, #1
10007a0a:	58d3      	ldr	r3, [r2, r3]
10007a0c:	2b00      	cmp	r3, #0
10007a0e:	d02a      	beq.n	10007a66 <w25qxx_Link+0x11a>
10007a10:	68fa      	ldr	r2, [r7, #12]
10007a12:	238e      	movs	r3, #142	@ 0x8e
10007a14:	005b      	lsls	r3, r3, #1
10007a16:	58d3      	ldr	r3, [r2, r3]
10007a18:	2001      	movs	r0, #1
10007a1a:	4798      	blx	r3
10007a1c:	e023      	b.n	10007a66 <w25qxx_Link+0x11a>
10007a1e:	2392      	movs	r3, #146	@ 0x92
10007a20:	005a      	lsls	r2, r3, #1
10007a22:	68fb      	ldr	r3, [r7, #12]
10007a24:	2100      	movs	r1, #0
10007a26:	0018      	movs	r0, r3
10007a28:	f7fe fe4e 	bl	100066c8 <__wrap_memset>
10007a2c:	68fa      	ldr	r2, [r7, #12]
10007a2e:	238a      	movs	r3, #138	@ 0x8a
10007a30:	005b      	lsls	r3, r3, #1
10007a32:	68b9      	ldr	r1, [r7, #8]
10007a34:	50d1      	str	r1, [r2, r3]
10007a36:	68fa      	ldr	r2, [r7, #12]
10007a38:	238c      	movs	r3, #140	@ 0x8c
10007a3a:	005b      	lsls	r3, r3, #1
10007a3c:	6879      	ldr	r1, [r7, #4]
10007a3e:	50d1      	str	r1, [r2, r3]
10007a40:	68fa      	ldr	r2, [r7, #12]
10007a42:	238e      	movs	r3, #142	@ 0x8e
10007a44:	005b      	lsls	r3, r3, #1
10007a46:	6839      	ldr	r1, [r7, #0]
10007a48:	50d1      	str	r1, [r2, r3]
10007a4a:	68fa      	ldr	r2, [r7, #12]
10007a4c:	2390      	movs	r3, #144	@ 0x90
10007a4e:	005b      	lsls	r3, r3, #1
10007a50:	4906      	ldr	r1, [pc, #24]	@ (10007a6c <w25qxx_Link+0x120>)
10007a52:	50d1      	str	r1, [r2, r3]
10007a54:	68fa      	ldr	r2, [r7, #12]
10007a56:	2389      	movs	r3, #137	@ 0x89
10007a58:	005b      	lsls	r3, r3, #1
10007a5a:	2101      	movs	r1, #1
10007a5c:	54d1      	strb	r1, [r2, r3]
10007a5e:	e002      	b.n	10007a66 <w25qxx_Link+0x11a>
10007a60:	46c0      	nop			@ (mov r8, r8)
10007a62:	e000      	b.n	10007a66 <w25qxx_Link+0x11a>
10007a64:	46c0      	nop			@ (mov r8, r8)
10007a66:	46bd      	mov	sp, r7
10007a68:	b004      	add	sp, #16
10007a6a:	bd80      	pop	{r7, pc}
10007a6c:	10000631 	.word	0x10000631

10007a70 <w25qxx_Init>:
10007a70:	b580      	push	{r7, lr}
10007a72:	b082      	sub	sp, #8
10007a74:	af00      	add	r7, sp, #0
10007a76:	6078      	str	r0, [r7, #4]
10007a78:	687b      	ldr	r3, [r7, #4]
10007a7a:	2b00      	cmp	r3, #0
10007a7c:	d100      	bne.n	10007a80 <w25qxx_Init+0x10>
10007a7e:	e0dd      	b.n	10007c3c <w25qxx_Init+0x1cc>
10007a80:	687a      	ldr	r2, [r7, #4]
10007a82:	2314      	movs	r3, #20
10007a84:	33ff      	adds	r3, #255	@ 0xff
10007a86:	5cd3      	ldrb	r3, [r2, r3]
10007a88:	2b00      	cmp	r3, #0
10007a8a:	d000      	beq.n	10007a8e <w25qxx_Init+0x1e>
10007a8c:	e0d8      	b.n	10007c40 <w25qxx_Init+0x1d0>
10007a8e:	687a      	ldr	r2, [r7, #4]
10007a90:	2389      	movs	r3, #137	@ 0x89
10007a92:	005b      	lsls	r3, r3, #1
10007a94:	5cd3      	ldrb	r3, [r2, r3]
10007a96:	2b01      	cmp	r3, #1
10007a98:	d012      	beq.n	10007ac0 <w25qxx_Init+0x50>
10007a9a:	687a      	ldr	r2, [r7, #4]
10007a9c:	2314      	movs	r3, #20
10007a9e:	33ff      	adds	r3, #255	@ 0xff
10007aa0:	2101      	movs	r1, #1
10007aa2:	54d1      	strb	r1, [r2, r3]
10007aa4:	687a      	ldr	r2, [r7, #4]
10007aa6:	238e      	movs	r3, #142	@ 0x8e
10007aa8:	005b      	lsls	r3, r3, #1
10007aaa:	58d3      	ldr	r3, [r2, r3]
10007aac:	2b00      	cmp	r3, #0
10007aae:	d100      	bne.n	10007ab2 <w25qxx_Init+0x42>
10007ab0:	e0c7      	b.n	10007c42 <w25qxx_Init+0x1d2>
10007ab2:	687a      	ldr	r2, [r7, #4]
10007ab4:	238e      	movs	r3, #142	@ 0x8e
10007ab6:	005b      	lsls	r3, r3, #1
10007ab8:	58d3      	ldr	r3, [r2, r3]
10007aba:	2001      	movs	r0, #1
10007abc:	4798      	blx	r3
10007abe:	e0c0      	b.n	10007c42 <w25qxx_Init+0x1d2>
10007ac0:	687a      	ldr	r2, [r7, #4]
10007ac2:	2389      	movs	r3, #137	@ 0x89
10007ac4:	005b      	lsls	r3, r3, #1
10007ac6:	2104      	movs	r1, #4
10007ac8:	54d1      	strb	r1, [r2, r3]
10007aca:	687a      	ldr	r2, [r7, #4]
10007acc:	238e      	movs	r3, #142	@ 0x8e
10007ace:	005b      	lsls	r3, r3, #1
10007ad0:	58d3      	ldr	r3, [r2, r3]
10007ad2:	2001      	movs	r0, #1
10007ad4:	4798      	blx	r3
10007ad6:	687a      	ldr	r2, [r7, #4]
10007ad8:	2390      	movs	r3, #144	@ 0x90
10007ada:	005b      	lsls	r3, r3, #1
10007adc:	58d3      	ldr	r3, [r2, r3]
10007ade:	2064      	movs	r0, #100	@ 0x64
10007ae0:	4798      	blx	r3
10007ae2:	687b      	ldr	r3, [r7, #4]
10007ae4:	0018      	movs	r0, r3
10007ae6:	f001 f9ff 	bl	10008ee8 <w25qxx_ReleasePowerDown>
10007aea:	687a      	ldr	r2, [r7, #4]
10007aec:	2314      	movs	r3, #20
10007aee:	33ff      	adds	r3, #255	@ 0xff
10007af0:	5cd3      	ldrb	r3, [r2, r3]
10007af2:	2b00      	cmp	r3, #0
10007af4:	d012      	beq.n	10007b1c <w25qxx_Init+0xac>
10007af6:	687a      	ldr	r2, [r7, #4]
10007af8:	2314      	movs	r3, #20
10007afa:	33ff      	adds	r3, #255	@ 0xff
10007afc:	2102      	movs	r1, #2
10007afe:	54d1      	strb	r1, [r2, r3]
10007b00:	687a      	ldr	r2, [r7, #4]
10007b02:	238e      	movs	r3, #142	@ 0x8e
10007b04:	005b      	lsls	r3, r3, #1
10007b06:	58d3      	ldr	r3, [r2, r3]
10007b08:	2b00      	cmp	r3, #0
10007b0a:	d100      	bne.n	10007b0e <w25qxx_Init+0x9e>
10007b0c:	e099      	b.n	10007c42 <w25qxx_Init+0x1d2>
10007b0e:	687a      	ldr	r2, [r7, #4]
10007b10:	238e      	movs	r3, #142	@ 0x8e
10007b12:	005b      	lsls	r3, r3, #1
10007b14:	58d3      	ldr	r3, [r2, r3]
10007b16:	2001      	movs	r0, #1
10007b18:	4798      	blx	r3
10007b1a:	e092      	b.n	10007c42 <w25qxx_Init+0x1d2>
10007b1c:	687b      	ldr	r3, [r7, #4]
10007b1e:	0018      	movs	r0, r3
10007b20:	f001 fa29 	bl	10008f76 <w25qxx_ResetDevice>
10007b24:	687a      	ldr	r2, [r7, #4]
10007b26:	2314      	movs	r3, #20
10007b28:	33ff      	adds	r3, #255	@ 0xff
10007b2a:	5cd3      	ldrb	r3, [r2, r3]
10007b2c:	2b00      	cmp	r3, #0
10007b2e:	d012      	beq.n	10007b56 <w25qxx_Init+0xe6>
10007b30:	687a      	ldr	r2, [r7, #4]
10007b32:	2314      	movs	r3, #20
10007b34:	33ff      	adds	r3, #255	@ 0xff
10007b36:	2102      	movs	r1, #2
10007b38:	54d1      	strb	r1, [r2, r3]
10007b3a:	687a      	ldr	r2, [r7, #4]
10007b3c:	238e      	movs	r3, #142	@ 0x8e
10007b3e:	005b      	lsls	r3, r3, #1
10007b40:	58d3      	ldr	r3, [r2, r3]
10007b42:	2b00      	cmp	r3, #0
10007b44:	d100      	bne.n	10007b48 <w25qxx_Init+0xd8>
10007b46:	e07c      	b.n	10007c42 <w25qxx_Init+0x1d2>
10007b48:	687a      	ldr	r2, [r7, #4]
10007b4a:	238e      	movs	r3, #142	@ 0x8e
10007b4c:	005b      	lsls	r3, r3, #1
10007b4e:	58d3      	ldr	r3, [r2, r3]
10007b50:	2001      	movs	r0, #1
10007b52:	4798      	blx	r3
10007b54:	e075      	b.n	10007c42 <w25qxx_Init+0x1d2>
10007b56:	687b      	ldr	r3, [r7, #4]
10007b58:	0018      	movs	r0, r3
10007b5a:	f001 fa80 	bl	1000905e <w25qxx_ReadID>
10007b5e:	687a      	ldr	r2, [r7, #4]
10007b60:	2314      	movs	r3, #20
10007b62:	33ff      	adds	r3, #255	@ 0xff
10007b64:	5cd3      	ldrb	r3, [r2, r3]
10007b66:	2b00      	cmp	r3, #0
10007b68:	d011      	beq.n	10007b8e <w25qxx_Init+0x11e>
10007b6a:	687a      	ldr	r2, [r7, #4]
10007b6c:	2314      	movs	r3, #20
10007b6e:	33ff      	adds	r3, #255	@ 0xff
10007b70:	2102      	movs	r1, #2
10007b72:	54d1      	strb	r1, [r2, r3]
10007b74:	687a      	ldr	r2, [r7, #4]
10007b76:	238e      	movs	r3, #142	@ 0x8e
10007b78:	005b      	lsls	r3, r3, #1
10007b7a:	58d3      	ldr	r3, [r2, r3]
10007b7c:	2b00      	cmp	r3, #0
10007b7e:	d060      	beq.n	10007c42 <w25qxx_Init+0x1d2>
10007b80:	687a      	ldr	r2, [r7, #4]
10007b82:	238e      	movs	r3, #142	@ 0x8e
10007b84:	005b      	lsls	r3, r3, #1
10007b86:	58d3      	ldr	r3, [r2, r3]
10007b88:	2001      	movs	r0, #1
10007b8a:	4798      	blx	r3
10007b8c:	e059      	b.n	10007c42 <w25qxx_Init+0x1d2>
10007b8e:	687b      	ldr	r3, [r7, #4]
10007b90:	781b      	ldrb	r3, [r3, #0]
10007b92:	2bef      	cmp	r3, #239	@ 0xef
10007b94:	d011      	beq.n	10007bba <w25qxx_Init+0x14a>
10007b96:	687a      	ldr	r2, [r7, #4]
10007b98:	2314      	movs	r3, #20
10007b9a:	33ff      	adds	r3, #255	@ 0xff
10007b9c:	2102      	movs	r1, #2
10007b9e:	54d1      	strb	r1, [r2, r3]
10007ba0:	687a      	ldr	r2, [r7, #4]
10007ba2:	238e      	movs	r3, #142	@ 0x8e
10007ba4:	005b      	lsls	r3, r3, #1
10007ba6:	58d3      	ldr	r3, [r2, r3]
10007ba8:	2b00      	cmp	r3, #0
10007baa:	d04a      	beq.n	10007c42 <w25qxx_Init+0x1d2>
10007bac:	687a      	ldr	r2, [r7, #4]
10007bae:	238e      	movs	r3, #142	@ 0x8e
10007bb0:	005b      	lsls	r3, r3, #1
10007bb2:	58d3      	ldr	r3, [r2, r3]
10007bb4:	2001      	movs	r0, #1
10007bb6:	4798      	blx	r3
10007bb8:	e043      	b.n	10007c42 <w25qxx_Init+0x1d2>
10007bba:	687b      	ldr	r3, [r7, #4]
10007bbc:	785b      	ldrb	r3, [r3, #1]
10007bbe:	3b13      	subs	r3, #19
10007bc0:	2b04      	cmp	r3, #4
10007bc2:	d81d      	bhi.n	10007c00 <w25qxx_Init+0x190>
10007bc4:	009a      	lsls	r2, r3, #2
10007bc6:	4b20      	ldr	r3, [pc, #128]	@ (10007c48 <w25qxx_Init+0x1d8>)
10007bc8:	18d3      	adds	r3, r2, r3
10007bca:	681b      	ldr	r3, [r3, #0]
10007bcc:	469f      	mov	pc, r3
10007bce:	687b      	ldr	r3, [r7, #4]
10007bd0:	2280      	movs	r2, #128	@ 0x80
10007bd2:	0152      	lsls	r2, r2, #5
10007bd4:	605a      	str	r2, [r3, #4]
10007bd6:	e025      	b.n	10007c24 <w25qxx_Init+0x1b4>
10007bd8:	687b      	ldr	r3, [r7, #4]
10007bda:	2280      	movs	r2, #128	@ 0x80
10007bdc:	0192      	lsls	r2, r2, #6
10007bde:	605a      	str	r2, [r3, #4]
10007be0:	e020      	b.n	10007c24 <w25qxx_Init+0x1b4>
10007be2:	687b      	ldr	r3, [r7, #4]
10007be4:	2280      	movs	r2, #128	@ 0x80
10007be6:	01d2      	lsls	r2, r2, #7
10007be8:	605a      	str	r2, [r3, #4]
10007bea:	e01b      	b.n	10007c24 <w25qxx_Init+0x1b4>
10007bec:	687b      	ldr	r3, [r7, #4]
10007bee:	2280      	movs	r2, #128	@ 0x80
10007bf0:	0212      	lsls	r2, r2, #8
10007bf2:	605a      	str	r2, [r3, #4]
10007bf4:	e016      	b.n	10007c24 <w25qxx_Init+0x1b4>
10007bf6:	687b      	ldr	r3, [r7, #4]
10007bf8:	2280      	movs	r2, #128	@ 0x80
10007bfa:	0252      	lsls	r2, r2, #9
10007bfc:	605a      	str	r2, [r3, #4]
10007bfe:	e011      	b.n	10007c24 <w25qxx_Init+0x1b4>
10007c00:	687a      	ldr	r2, [r7, #4]
10007c02:	2314      	movs	r3, #20
10007c04:	33ff      	adds	r3, #255	@ 0xff
10007c06:	2102      	movs	r1, #2
10007c08:	54d1      	strb	r1, [r2, r3]
10007c0a:	687a      	ldr	r2, [r7, #4]
10007c0c:	238e      	movs	r3, #142	@ 0x8e
10007c0e:	005b      	lsls	r3, r3, #1
10007c10:	58d3      	ldr	r3, [r2, r3]
10007c12:	2b00      	cmp	r3, #0
10007c14:	d015      	beq.n	10007c42 <w25qxx_Init+0x1d2>
10007c16:	687a      	ldr	r2, [r7, #4]
10007c18:	238e      	movs	r3, #142	@ 0x8e
10007c1a:	005b      	lsls	r3, r3, #1
10007c1c:	58d3      	ldr	r3, [r2, r3]
10007c1e:	2001      	movs	r0, #1
10007c20:	4798      	blx	r3
10007c22:	e00e      	b.n	10007c42 <w25qxx_Init+0x1d2>
10007c24:	687a      	ldr	r2, [r7, #4]
10007c26:	2390      	movs	r3, #144	@ 0x90
10007c28:	005b      	lsls	r3, r3, #1
10007c2a:	58d3      	ldr	r3, [r2, r3]
10007c2c:	200a      	movs	r0, #10
10007c2e:	4798      	blx	r3
10007c30:	687a      	ldr	r2, [r7, #4]
10007c32:	2389      	movs	r3, #137	@ 0x89
10007c34:	005b      	lsls	r3, r3, #1
10007c36:	2102      	movs	r1, #2
10007c38:	54d1      	strb	r1, [r2, r3]
10007c3a:	e002      	b.n	10007c42 <w25qxx_Init+0x1d2>
10007c3c:	46c0      	nop			@ (mov r8, r8)
10007c3e:	e000      	b.n	10007c42 <w25qxx_Init+0x1d2>
10007c40:	46c0      	nop			@ (mov r8, r8)
10007c42:	46bd      	mov	sp, r7
10007c44:	b002      	add	sp, #8
10007c46:	bd80      	pop	{r7, pc}
10007c48:	1000aa40 	.word	0x1000aa40

10007c4c <w25qxx_Write>:
10007c4c:	b580      	push	{r7, lr}
10007c4e:	b084      	sub	sp, #16
10007c50:	af00      	add	r7, sp, #0
10007c52:	60f8      	str	r0, [r7, #12]
10007c54:	60b9      	str	r1, [r7, #8]
10007c56:	603b      	str	r3, [r7, #0]
10007c58:	1dbb      	adds	r3, r7, #6
10007c5a:	801a      	strh	r2, [r3, #0]
10007c5c:	68fb      	ldr	r3, [r7, #12]
10007c5e:	2b00      	cmp	r3, #0
10007c60:	d100      	bne.n	10007c64 <w25qxx_Write+0x18>
10007c62:	e1bc      	b.n	10007fde <w25qxx_Write+0x392>
10007c64:	68fa      	ldr	r2, [r7, #12]
10007c66:	2314      	movs	r3, #20
10007c68:	33ff      	adds	r3, #255	@ 0xff
10007c6a:	5cd3      	ldrb	r3, [r2, r3]
10007c6c:	2b00      	cmp	r3, #0
10007c6e:	d000      	beq.n	10007c72 <w25qxx_Write+0x26>
10007c70:	e1b7      	b.n	10007fe2 <w25qxx_Write+0x396>
10007c72:	68fa      	ldr	r2, [r7, #12]
10007c74:	2389      	movs	r3, #137	@ 0x89
10007c76:	005b      	lsls	r3, r3, #1
10007c78:	5cd3      	ldrb	r3, [r2, r3]
10007c7a:	2b02      	cmp	r3, #2
10007c7c:	d012      	beq.n	10007ca4 <w25qxx_Write+0x58>
10007c7e:	68fa      	ldr	r2, [r7, #12]
10007c80:	2314      	movs	r3, #20
10007c82:	33ff      	adds	r3, #255	@ 0xff
10007c84:	2101      	movs	r1, #1
10007c86:	54d1      	strb	r1, [r2, r3]
10007c88:	68fa      	ldr	r2, [r7, #12]
10007c8a:	238e      	movs	r3, #142	@ 0x8e
10007c8c:	005b      	lsls	r3, r3, #1
10007c8e:	58d3      	ldr	r3, [r2, r3]
10007c90:	2b00      	cmp	r3, #0
10007c92:	d100      	bne.n	10007c96 <w25qxx_Write+0x4a>
10007c94:	e1a6      	b.n	10007fe4 <w25qxx_Write+0x398>
10007c96:	68fa      	ldr	r2, [r7, #12]
10007c98:	238e      	movs	r3, #142	@ 0x8e
10007c9a:	005b      	lsls	r3, r3, #1
10007c9c:	58d3      	ldr	r3, [r2, r3]
10007c9e:	2001      	movs	r0, #1
10007ca0:	4798      	blx	r3
10007ca2:	e19f      	b.n	10007fe4 <w25qxx_Write+0x398>
10007ca4:	68fa      	ldr	r2, [r7, #12]
10007ca6:	2389      	movs	r3, #137	@ 0x89
10007ca8:	005b      	lsls	r3, r3, #1
10007caa:	2105      	movs	r1, #5
10007cac:	54d1      	strb	r1, [r2, r3]
10007cae:	68bb      	ldr	r3, [r7, #8]
10007cb0:	2b00      	cmp	r3, #0
10007cb2:	d112      	bne.n	10007cda <w25qxx_Write+0x8e>
10007cb4:	68fa      	ldr	r2, [r7, #12]
10007cb6:	2314      	movs	r3, #20
10007cb8:	33ff      	adds	r3, #255	@ 0xff
10007cba:	2103      	movs	r1, #3
10007cbc:	54d1      	strb	r1, [r2, r3]
10007cbe:	68fa      	ldr	r2, [r7, #12]
10007cc0:	238e      	movs	r3, #142	@ 0x8e
10007cc2:	005b      	lsls	r3, r3, #1
10007cc4:	58d3      	ldr	r3, [r2, r3]
10007cc6:	2b00      	cmp	r3, #0
10007cc8:	d100      	bne.n	10007ccc <w25qxx_Write+0x80>
10007cca:	e18b      	b.n	10007fe4 <w25qxx_Write+0x398>
10007ccc:	68fa      	ldr	r2, [r7, #12]
10007cce:	238e      	movs	r3, #142	@ 0x8e
10007cd0:	005b      	lsls	r3, r3, #1
10007cd2:	58d3      	ldr	r3, [r2, r3]
10007cd4:	2001      	movs	r0, #1
10007cd6:	4798      	blx	r3
10007cd8:	e184      	b.n	10007fe4 <w25qxx_Write+0x398>
10007cda:	1dbb      	adds	r3, r7, #6
10007cdc:	881b      	ldrh	r3, [r3, #0]
10007cde:	2b00      	cmp	r3, #0
10007ce0:	d112      	bne.n	10007d08 <w25qxx_Write+0xbc>
10007ce2:	68fa      	ldr	r2, [r7, #12]
10007ce4:	2314      	movs	r3, #20
10007ce6:	33ff      	adds	r3, #255	@ 0xff
10007ce8:	2103      	movs	r1, #3
10007cea:	54d1      	strb	r1, [r2, r3]
10007cec:	68fa      	ldr	r2, [r7, #12]
10007cee:	238e      	movs	r3, #142	@ 0x8e
10007cf0:	005b      	lsls	r3, r3, #1
10007cf2:	58d3      	ldr	r3, [r2, r3]
10007cf4:	2b00      	cmp	r3, #0
10007cf6:	d100      	bne.n	10007cfa <w25qxx_Write+0xae>
10007cf8:	e174      	b.n	10007fe4 <w25qxx_Write+0x398>
10007cfa:	68fa      	ldr	r2, [r7, #12]
10007cfc:	238e      	movs	r3, #142	@ 0x8e
10007cfe:	005b      	lsls	r3, r3, #1
10007d00:	58d3      	ldr	r3, [r2, r3]
10007d02:	2001      	movs	r0, #1
10007d04:	4798      	blx	r3
10007d06:	e16d      	b.n	10007fe4 <w25qxx_Write+0x398>
10007d08:	68fb      	ldr	r3, [r7, #12]
10007d0a:	1dba      	adds	r2, r7, #6
10007d0c:	8812      	ldrh	r2, [r2, #0]
10007d0e:	81da      	strh	r2, [r3, #14]
10007d10:	2318      	movs	r3, #24
10007d12:	18fb      	adds	r3, r7, r3
10007d14:	781b      	ldrb	r3, [r3, #0]
10007d16:	2b01      	cmp	r3, #1
10007d18:	d105      	bne.n	10007d26 <w25qxx_Write+0xda>
10007d1a:	68fb      	ldr	r3, [r7, #12]
10007d1c:	89db      	ldrh	r3, [r3, #14]
10007d1e:	3302      	adds	r3, #2
10007d20:	b29a      	uxth	r2, r3
10007d22:	68fb      	ldr	r3, [r7, #12]
10007d24:	81da      	strh	r2, [r3, #14]
10007d26:	68fb      	ldr	r3, [r7, #12]
10007d28:	89da      	ldrh	r2, [r3, #14]
10007d2a:	2380      	movs	r3, #128	@ 0x80
10007d2c:	005b      	lsls	r3, r3, #1
10007d2e:	429a      	cmp	r2, r3
10007d30:	d912      	bls.n	10007d58 <w25qxx_Write+0x10c>
10007d32:	68fa      	ldr	r2, [r7, #12]
10007d34:	2314      	movs	r3, #20
10007d36:	33ff      	adds	r3, #255	@ 0xff
10007d38:	2103      	movs	r1, #3
10007d3a:	54d1      	strb	r1, [r2, r3]
10007d3c:	68fa      	ldr	r2, [r7, #12]
10007d3e:	238e      	movs	r3, #142	@ 0x8e
10007d40:	005b      	lsls	r3, r3, #1
10007d42:	58d3      	ldr	r3, [r2, r3]
10007d44:	2b00      	cmp	r3, #0
10007d46:	d100      	bne.n	10007d4a <w25qxx_Write+0xfe>
10007d48:	e14c      	b.n	10007fe4 <w25qxx_Write+0x398>
10007d4a:	68fa      	ldr	r2, [r7, #12]
10007d4c:	238e      	movs	r3, #142	@ 0x8e
10007d4e:	005b      	lsls	r3, r3, #1
10007d50:	58d3      	ldr	r3, [r2, r3]
10007d52:	2001      	movs	r0, #1
10007d54:	4798      	blx	r3
10007d56:	e145      	b.n	10007fe4 <w25qxx_Write+0x398>
10007d58:	683b      	ldr	r3, [r7, #0]
10007d5a:	22ff      	movs	r2, #255	@ 0xff
10007d5c:	4013      	ands	r3, r2
10007d5e:	d012      	beq.n	10007d86 <w25qxx_Write+0x13a>
10007d60:	68fa      	ldr	r2, [r7, #12]
10007d62:	2314      	movs	r3, #20
10007d64:	33ff      	adds	r3, #255	@ 0xff
10007d66:	2104      	movs	r1, #4
10007d68:	54d1      	strb	r1, [r2, r3]
10007d6a:	68fa      	ldr	r2, [r7, #12]
10007d6c:	238e      	movs	r3, #142	@ 0x8e
10007d6e:	005b      	lsls	r3, r3, #1
10007d70:	58d3      	ldr	r3, [r2, r3]
10007d72:	2b00      	cmp	r3, #0
10007d74:	d100      	bne.n	10007d78 <w25qxx_Write+0x12c>
10007d76:	e135      	b.n	10007fe4 <w25qxx_Write+0x398>
10007d78:	68fa      	ldr	r2, [r7, #12]
10007d7a:	238e      	movs	r3, #142	@ 0x8e
10007d7c:	005b      	lsls	r3, r3, #1
10007d7e:	58d3      	ldr	r3, [r2, r3]
10007d80:	2001      	movs	r0, #1
10007d82:	4798      	blx	r3
10007d84:	e12e      	b.n	10007fe4 <w25qxx_Write+0x398>
10007d86:	68fb      	ldr	r3, [r7, #12]
10007d88:	685b      	ldr	r3, [r3, #4]
10007d8a:	3b01      	subs	r3, #1
10007d8c:	021b      	lsls	r3, r3, #8
10007d8e:	683a      	ldr	r2, [r7, #0]
10007d90:	429a      	cmp	r2, r3
10007d92:	d912      	bls.n	10007dba <w25qxx_Write+0x16e>
10007d94:	68fa      	ldr	r2, [r7, #12]
10007d96:	2314      	movs	r3, #20
10007d98:	33ff      	adds	r3, #255	@ 0xff
10007d9a:	2104      	movs	r1, #4
10007d9c:	54d1      	strb	r1, [r2, r3]
10007d9e:	68fa      	ldr	r2, [r7, #12]
10007da0:	238e      	movs	r3, #142	@ 0x8e
10007da2:	005b      	lsls	r3, r3, #1
10007da4:	58d3      	ldr	r3, [r2, r3]
10007da6:	2b00      	cmp	r3, #0
10007da8:	d100      	bne.n	10007dac <w25qxx_Write+0x160>
10007daa:	e11b      	b.n	10007fe4 <w25qxx_Write+0x398>
10007dac:	68fa      	ldr	r2, [r7, #12]
10007dae:	238e      	movs	r3, #142	@ 0x8e
10007db0:	005b      	lsls	r3, r3, #1
10007db2:	58d3      	ldr	r3, [r2, r3]
10007db4:	2001      	movs	r0, #1
10007db6:	4798      	blx	r3
10007db8:	e114      	b.n	10007fe4 <w25qxx_Write+0x398>
10007dba:	2318      	movs	r3, #24
10007dbc:	18fb      	adds	r3, r7, r3
10007dbe:	781b      	ldrb	r3, [r3, #0]
10007dc0:	2b01      	cmp	r3, #1
10007dc2:	d10c      	bne.n	10007dde <w25qxx_Write+0x192>
10007dc4:	1dbb      	adds	r3, r7, #6
10007dc6:	881a      	ldrh	r2, [r3, #0]
10007dc8:	68bb      	ldr	r3, [r7, #8]
10007dca:	0011      	movs	r1, r2
10007dcc:	0018      	movs	r0, r3
10007dce:	f001 fa0d 	bl	100091ec <ModBus_CRC>
10007dd2:	0003      	movs	r3, r0
10007dd4:	0019      	movs	r1, r3
10007dd6:	68fa      	ldr	r2, [r7, #12]
10007dd8:	2388      	movs	r3, #136	@ 0x88
10007dda:	005b      	lsls	r3, r3, #1
10007ddc:	52d1      	strh	r1, [r2, r3]
10007dde:	68fb      	ldr	r3, [r7, #12]
10007de0:	0018      	movs	r0, r3
10007de2:	f001 f9c2 	bl	1000916a <w25qxx_WriteEnable>
10007de6:	68fa      	ldr	r2, [r7, #12]
10007de8:	2314      	movs	r3, #20
10007dea:	33ff      	adds	r3, #255	@ 0xff
10007dec:	5cd3      	ldrb	r3, [r2, r3]
10007dee:	2b00      	cmp	r3, #0
10007df0:	d012      	beq.n	10007e18 <w25qxx_Write+0x1cc>
10007df2:	68fa      	ldr	r2, [r7, #12]
10007df4:	2314      	movs	r3, #20
10007df6:	33ff      	adds	r3, #255	@ 0xff
10007df8:	2105      	movs	r1, #5
10007dfa:	54d1      	strb	r1, [r2, r3]
10007dfc:	68fa      	ldr	r2, [r7, #12]
10007dfe:	238e      	movs	r3, #142	@ 0x8e
10007e00:	005b      	lsls	r3, r3, #1
10007e02:	58d3      	ldr	r3, [r2, r3]
10007e04:	2b00      	cmp	r3, #0
10007e06:	d100      	bne.n	10007e0a <w25qxx_Write+0x1be>
10007e08:	e0ec      	b.n	10007fe4 <w25qxx_Write+0x398>
10007e0a:	68fa      	ldr	r2, [r7, #12]
10007e0c:	238e      	movs	r3, #142	@ 0x8e
10007e0e:	005b      	lsls	r3, r3, #1
10007e10:	58d3      	ldr	r3, [r2, r3]
10007e12:	2001      	movs	r0, #1
10007e14:	4798      	blx	r3
10007e16:	e0e5      	b.n	10007fe4 <w25qxx_Write+0x398>
10007e18:	68fb      	ldr	r3, [r7, #12]
10007e1a:	2202      	movs	r2, #2
10007e1c:	725a      	strb	r2, [r3, #9]
10007e1e:	68fa      	ldr	r2, [r7, #12]
10007e20:	238e      	movs	r3, #142	@ 0x8e
10007e22:	005b      	lsls	r3, r3, #1
10007e24:	58d3      	ldr	r3, [r2, r3]
10007e26:	2000      	movs	r0, #0
10007e28:	4798      	blx	r3
10007e2a:	68fa      	ldr	r2, [r7, #12]
10007e2c:	238c      	movs	r3, #140	@ 0x8c
10007e2e:	005b      	lsls	r3, r3, #1
10007e30:	58d3      	ldr	r3, [r2, r3]
10007e32:	68fa      	ldr	r2, [r7, #12]
10007e34:	3209      	adds	r2, #9
10007e36:	0010      	movs	r0, r2
10007e38:	2264      	movs	r2, #100	@ 0x64
10007e3a:	2101      	movs	r1, #1
10007e3c:	4798      	blx	r3
10007e3e:	1e03      	subs	r3, r0, #0
10007e40:	d012      	beq.n	10007e68 <w25qxx_Write+0x21c>
10007e42:	68fa      	ldr	r2, [r7, #12]
10007e44:	2314      	movs	r3, #20
10007e46:	33ff      	adds	r3, #255	@ 0xff
10007e48:	2105      	movs	r1, #5
10007e4a:	54d1      	strb	r1, [r2, r3]
10007e4c:	68fa      	ldr	r2, [r7, #12]
10007e4e:	238e      	movs	r3, #142	@ 0x8e
10007e50:	005b      	lsls	r3, r3, #1
10007e52:	58d3      	ldr	r3, [r2, r3]
10007e54:	2b00      	cmp	r3, #0
10007e56:	d100      	bne.n	10007e5a <w25qxx_Write+0x20e>
10007e58:	e0c4      	b.n	10007fe4 <w25qxx_Write+0x398>
10007e5a:	68fa      	ldr	r2, [r7, #12]
10007e5c:	238e      	movs	r3, #142	@ 0x8e
10007e5e:	005b      	lsls	r3, r3, #1
10007e60:	58d3      	ldr	r3, [r2, r3]
10007e62:	2001      	movs	r0, #1
10007e64:	4798      	blx	r3
10007e66:	e0bd      	b.n	10007fe4 <w25qxx_Write+0x398>
10007e68:	683b      	ldr	r3, [r7, #0]
10007e6a:	0c1b      	lsrs	r3, r3, #16
10007e6c:	b2da      	uxtb	r2, r3
10007e6e:	68fb      	ldr	r3, [r7, #12]
10007e70:	729a      	strb	r2, [r3, #10]
10007e72:	683b      	ldr	r3, [r7, #0]
10007e74:	0a1b      	lsrs	r3, r3, #8
10007e76:	b2da      	uxtb	r2, r3
10007e78:	68fb      	ldr	r3, [r7, #12]
10007e7a:	72da      	strb	r2, [r3, #11]
10007e7c:	683b      	ldr	r3, [r7, #0]
10007e7e:	b2da      	uxtb	r2, r3
10007e80:	68fb      	ldr	r3, [r7, #12]
10007e82:	731a      	strb	r2, [r3, #12]
10007e84:	68fa      	ldr	r2, [r7, #12]
10007e86:	238c      	movs	r3, #140	@ 0x8c
10007e88:	005b      	lsls	r3, r3, #1
10007e8a:	58d3      	ldr	r3, [r2, r3]
10007e8c:	68fa      	ldr	r2, [r7, #12]
10007e8e:	320a      	adds	r2, #10
10007e90:	0010      	movs	r0, r2
10007e92:	2264      	movs	r2, #100	@ 0x64
10007e94:	2103      	movs	r1, #3
10007e96:	4798      	blx	r3
10007e98:	1e03      	subs	r3, r0, #0
10007e9a:	d012      	beq.n	10007ec2 <w25qxx_Write+0x276>
10007e9c:	68fa      	ldr	r2, [r7, #12]
10007e9e:	2314      	movs	r3, #20
10007ea0:	33ff      	adds	r3, #255	@ 0xff
10007ea2:	2105      	movs	r1, #5
10007ea4:	54d1      	strb	r1, [r2, r3]
10007ea6:	68fa      	ldr	r2, [r7, #12]
10007ea8:	238e      	movs	r3, #142	@ 0x8e
10007eaa:	005b      	lsls	r3, r3, #1
10007eac:	58d3      	ldr	r3, [r2, r3]
10007eae:	2b00      	cmp	r3, #0
10007eb0:	d100      	bne.n	10007eb4 <w25qxx_Write+0x268>
10007eb2:	e097      	b.n	10007fe4 <w25qxx_Write+0x398>
10007eb4:	68fa      	ldr	r2, [r7, #12]
10007eb6:	238e      	movs	r3, #142	@ 0x8e
10007eb8:	005b      	lsls	r3, r3, #1
10007eba:	58d3      	ldr	r3, [r2, r3]
10007ebc:	2001      	movs	r0, #1
10007ebe:	4798      	blx	r3
10007ec0:	e090      	b.n	10007fe4 <w25qxx_Write+0x398>
10007ec2:	68fa      	ldr	r2, [r7, #12]
10007ec4:	238c      	movs	r3, #140	@ 0x8c
10007ec6:	005b      	lsls	r3, r3, #1
10007ec8:	58d3      	ldr	r3, [r2, r3]
10007eca:	1dba      	adds	r2, r7, #6
10007ecc:	8811      	ldrh	r1, [r2, #0]
10007ece:	68b8      	ldr	r0, [r7, #8]
10007ed0:	2264      	movs	r2, #100	@ 0x64
10007ed2:	4798      	blx	r3
10007ed4:	1e03      	subs	r3, r0, #0
10007ed6:	d012      	beq.n	10007efe <w25qxx_Write+0x2b2>
10007ed8:	68fa      	ldr	r2, [r7, #12]
10007eda:	2314      	movs	r3, #20
10007edc:	33ff      	adds	r3, #255	@ 0xff
10007ede:	2105      	movs	r1, #5
10007ee0:	54d1      	strb	r1, [r2, r3]
10007ee2:	68fa      	ldr	r2, [r7, #12]
10007ee4:	238e      	movs	r3, #142	@ 0x8e
10007ee6:	005b      	lsls	r3, r3, #1
10007ee8:	58d3      	ldr	r3, [r2, r3]
10007eea:	2b00      	cmp	r3, #0
10007eec:	d100      	bne.n	10007ef0 <w25qxx_Write+0x2a4>
10007eee:	e079      	b.n	10007fe4 <w25qxx_Write+0x398>
10007ef0:	68fa      	ldr	r2, [r7, #12]
10007ef2:	238e      	movs	r3, #142	@ 0x8e
10007ef4:	005b      	lsls	r3, r3, #1
10007ef6:	58d3      	ldr	r3, [r2, r3]
10007ef8:	2001      	movs	r0, #1
10007efa:	4798      	blx	r3
10007efc:	e072      	b.n	10007fe4 <w25qxx_Write+0x398>
10007efe:	2318      	movs	r3, #24
10007f00:	18fb      	adds	r3, r7, r3
10007f02:	781b      	ldrb	r3, [r3, #0]
10007f04:	2b01      	cmp	r3, #1
10007f06:	d11e      	bne.n	10007f46 <w25qxx_Write+0x2fa>
10007f08:	68fa      	ldr	r2, [r7, #12]
10007f0a:	238c      	movs	r3, #140	@ 0x8c
10007f0c:	005b      	lsls	r3, r3, #1
10007f0e:	58d3      	ldr	r3, [r2, r3]
10007f10:	68fa      	ldr	r2, [r7, #12]
10007f12:	3211      	adds	r2, #17
10007f14:	32ff      	adds	r2, #255	@ 0xff
10007f16:	0010      	movs	r0, r2
10007f18:	2264      	movs	r2, #100	@ 0x64
10007f1a:	2102      	movs	r1, #2
10007f1c:	4798      	blx	r3
10007f1e:	1e03      	subs	r3, r0, #0
10007f20:	d011      	beq.n	10007f46 <w25qxx_Write+0x2fa>
10007f22:	68fa      	ldr	r2, [r7, #12]
10007f24:	2314      	movs	r3, #20
10007f26:	33ff      	adds	r3, #255	@ 0xff
10007f28:	2105      	movs	r1, #5
10007f2a:	54d1      	strb	r1, [r2, r3]
10007f2c:	68fa      	ldr	r2, [r7, #12]
10007f2e:	238e      	movs	r3, #142	@ 0x8e
10007f30:	005b      	lsls	r3, r3, #1
10007f32:	58d3      	ldr	r3, [r2, r3]
10007f34:	2b00      	cmp	r3, #0
10007f36:	d055      	beq.n	10007fe4 <w25qxx_Write+0x398>
10007f38:	68fa      	ldr	r2, [r7, #12]
10007f3a:	238e      	movs	r3, #142	@ 0x8e
10007f3c:	005b      	lsls	r3, r3, #1
10007f3e:	58d3      	ldr	r3, [r2, r3]
10007f40:	2001      	movs	r0, #1
10007f42:	4798      	blx	r3
10007f44:	e04e      	b.n	10007fe4 <w25qxx_Write+0x398>
10007f46:	68fa      	ldr	r2, [r7, #12]
10007f48:	238e      	movs	r3, #142	@ 0x8e
10007f4a:	005b      	lsls	r3, r3, #1
10007f4c:	58d3      	ldr	r3, [r2, r3]
10007f4e:	2001      	movs	r0, #1
10007f50:	4798      	blx	r3
10007f52:	231c      	movs	r3, #28
10007f54:	18fb      	adds	r3, r7, r3
10007f56:	781b      	ldrb	r3, [r3, #0]
10007f58:	2b02      	cmp	r3, #2
10007f5a:	d00b      	beq.n	10007f74 <w25qxx_Write+0x328>
10007f5c:	dc24      	bgt.n	10007fa8 <w25qxx_Write+0x35c>
10007f5e:	2b00      	cmp	r3, #0
10007f60:	d034      	beq.n	10007fcc <w25qxx_Write+0x380>
10007f62:	2b01      	cmp	r3, #1
10007f64:	d120      	bne.n	10007fa8 <w25qxx_Write+0x35c>
10007f66:	68fa      	ldr	r2, [r7, #12]
10007f68:	2390      	movs	r3, #144	@ 0x90
10007f6a:	005b      	lsls	r3, r3, #1
10007f6c:	58d3      	ldr	r3, [r2, r3]
10007f6e:	2003      	movs	r0, #3
10007f70:	4798      	blx	r3
10007f72:	e02e      	b.n	10007fd2 <w25qxx_Write+0x386>
10007f74:	68fb      	ldr	r3, [r7, #12]
10007f76:	2103      	movs	r1, #3
10007f78:	0018      	movs	r0, r3
10007f7a:	f000 ff05 	bl	10008d88 <w25qxx_WaitWithTimeout>
10007f7e:	0003      	movs	r3, r0
10007f80:	2b02      	cmp	r3, #2
10007f82:	d025      	beq.n	10007fd0 <w25qxx_Write+0x384>
10007f84:	68fa      	ldr	r2, [r7, #12]
10007f86:	2314      	movs	r3, #20
10007f88:	33ff      	adds	r3, #255	@ 0xff
10007f8a:	2106      	movs	r1, #6
10007f8c:	54d1      	strb	r1, [r2, r3]
10007f8e:	68fa      	ldr	r2, [r7, #12]
10007f90:	238e      	movs	r3, #142	@ 0x8e
10007f92:	005b      	lsls	r3, r3, #1
10007f94:	58d3      	ldr	r3, [r2, r3]
10007f96:	2b00      	cmp	r3, #0
10007f98:	d024      	beq.n	10007fe4 <w25qxx_Write+0x398>
10007f9a:	68fa      	ldr	r2, [r7, #12]
10007f9c:	238e      	movs	r3, #142	@ 0x8e
10007f9e:	005b      	lsls	r3, r3, #1
10007fa0:	58d3      	ldr	r3, [r2, r3]
10007fa2:	2001      	movs	r0, #1
10007fa4:	4798      	blx	r3
10007fa6:	e01d      	b.n	10007fe4 <w25qxx_Write+0x398>
10007fa8:	68fa      	ldr	r2, [r7, #12]
10007faa:	2314      	movs	r3, #20
10007fac:	33ff      	adds	r3, #255	@ 0xff
10007fae:	2103      	movs	r1, #3
10007fb0:	54d1      	strb	r1, [r2, r3]
10007fb2:	68fa      	ldr	r2, [r7, #12]
10007fb4:	238e      	movs	r3, #142	@ 0x8e
10007fb6:	005b      	lsls	r3, r3, #1
10007fb8:	58d3      	ldr	r3, [r2, r3]
10007fba:	2b00      	cmp	r3, #0
10007fbc:	d012      	beq.n	10007fe4 <w25qxx_Write+0x398>
10007fbe:	68fa      	ldr	r2, [r7, #12]
10007fc0:	238e      	movs	r3, #142	@ 0x8e
10007fc2:	005b      	lsls	r3, r3, #1
10007fc4:	58d3      	ldr	r3, [r2, r3]
10007fc6:	2001      	movs	r0, #1
10007fc8:	4798      	blx	r3
10007fca:	e00b      	b.n	10007fe4 <w25qxx_Write+0x398>
10007fcc:	46c0      	nop			@ (mov r8, r8)
10007fce:	e000      	b.n	10007fd2 <w25qxx_Write+0x386>
10007fd0:	46c0      	nop			@ (mov r8, r8)
10007fd2:	68fa      	ldr	r2, [r7, #12]
10007fd4:	2389      	movs	r3, #137	@ 0x89
10007fd6:	005b      	lsls	r3, r3, #1
10007fd8:	2102      	movs	r1, #2
10007fda:	54d1      	strb	r1, [r2, r3]
10007fdc:	e002      	b.n	10007fe4 <w25qxx_Write+0x398>
10007fde:	46c0      	nop			@ (mov r8, r8)
10007fe0:	e000      	b.n	10007fe4 <w25qxx_Write+0x398>
10007fe2:	46c0      	nop			@ (mov r8, r8)
10007fe4:	46bd      	mov	sp, r7
10007fe6:	b004      	add	sp, #16
10007fe8:	bd80      	pop	{r7, pc}

10007fea <w25qxx_Read>:
10007fea:	b580      	push	{r7, lr}
10007fec:	b084      	sub	sp, #16
10007fee:	af00      	add	r7, sp, #0
10007ff0:	60f8      	str	r0, [r7, #12]
10007ff2:	60b9      	str	r1, [r7, #8]
10007ff4:	603b      	str	r3, [r7, #0]
10007ff6:	1dbb      	adds	r3, r7, #6
10007ff8:	801a      	strh	r2, [r3, #0]
10007ffa:	68fb      	ldr	r3, [r7, #12]
10007ffc:	2b00      	cmp	r3, #0
10007ffe:	d100      	bne.n	10008002 <w25qxx_Read+0x18>
10008000:	e192      	b.n	10008328 <w25qxx_Read+0x33e>
10008002:	68fa      	ldr	r2, [r7, #12]
10008004:	2314      	movs	r3, #20
10008006:	33ff      	adds	r3, #255	@ 0xff
10008008:	5cd3      	ldrb	r3, [r2, r3]
1000800a:	2b00      	cmp	r3, #0
1000800c:	d000      	beq.n	10008010 <w25qxx_Read+0x26>
1000800e:	e18d      	b.n	1000832c <w25qxx_Read+0x342>
10008010:	68fa      	ldr	r2, [r7, #12]
10008012:	2389      	movs	r3, #137	@ 0x89
10008014:	005b      	lsls	r3, r3, #1
10008016:	5cd3      	ldrb	r3, [r2, r3]
10008018:	2b02      	cmp	r3, #2
1000801a:	d012      	beq.n	10008042 <w25qxx_Read+0x58>
1000801c:	68fa      	ldr	r2, [r7, #12]
1000801e:	2314      	movs	r3, #20
10008020:	33ff      	adds	r3, #255	@ 0xff
10008022:	2101      	movs	r1, #1
10008024:	54d1      	strb	r1, [r2, r3]
10008026:	68fa      	ldr	r2, [r7, #12]
10008028:	238e      	movs	r3, #142	@ 0x8e
1000802a:	005b      	lsls	r3, r3, #1
1000802c:	58d3      	ldr	r3, [r2, r3]
1000802e:	2b00      	cmp	r3, #0
10008030:	d100      	bne.n	10008034 <w25qxx_Read+0x4a>
10008032:	e17c      	b.n	1000832e <w25qxx_Read+0x344>
10008034:	68fa      	ldr	r2, [r7, #12]
10008036:	238e      	movs	r3, #142	@ 0x8e
10008038:	005b      	lsls	r3, r3, #1
1000803a:	58d3      	ldr	r3, [r2, r3]
1000803c:	2001      	movs	r0, #1
1000803e:	4798      	blx	r3
10008040:	e175      	b.n	1000832e <w25qxx_Read+0x344>
10008042:	68fa      	ldr	r2, [r7, #12]
10008044:	2389      	movs	r3, #137	@ 0x89
10008046:	005b      	lsls	r3, r3, #1
10008048:	2106      	movs	r1, #6
1000804a:	54d1      	strb	r1, [r2, r3]
1000804c:	68bb      	ldr	r3, [r7, #8]
1000804e:	2b00      	cmp	r3, #0
10008050:	d112      	bne.n	10008078 <w25qxx_Read+0x8e>
10008052:	68fa      	ldr	r2, [r7, #12]
10008054:	2314      	movs	r3, #20
10008056:	33ff      	adds	r3, #255	@ 0xff
10008058:	2103      	movs	r1, #3
1000805a:	54d1      	strb	r1, [r2, r3]
1000805c:	68fa      	ldr	r2, [r7, #12]
1000805e:	238e      	movs	r3, #142	@ 0x8e
10008060:	005b      	lsls	r3, r3, #1
10008062:	58d3      	ldr	r3, [r2, r3]
10008064:	2b00      	cmp	r3, #0
10008066:	d100      	bne.n	1000806a <w25qxx_Read+0x80>
10008068:	e161      	b.n	1000832e <w25qxx_Read+0x344>
1000806a:	68fa      	ldr	r2, [r7, #12]
1000806c:	238e      	movs	r3, #142	@ 0x8e
1000806e:	005b      	lsls	r3, r3, #1
10008070:	58d3      	ldr	r3, [r2, r3]
10008072:	2001      	movs	r0, #1
10008074:	4798      	blx	r3
10008076:	e15a      	b.n	1000832e <w25qxx_Read+0x344>
10008078:	1dbb      	adds	r3, r7, #6
1000807a:	881b      	ldrh	r3, [r3, #0]
1000807c:	2b00      	cmp	r3, #0
1000807e:	d112      	bne.n	100080a6 <w25qxx_Read+0xbc>
10008080:	68fa      	ldr	r2, [r7, #12]
10008082:	2314      	movs	r3, #20
10008084:	33ff      	adds	r3, #255	@ 0xff
10008086:	2103      	movs	r1, #3
10008088:	54d1      	strb	r1, [r2, r3]
1000808a:	68fa      	ldr	r2, [r7, #12]
1000808c:	238e      	movs	r3, #142	@ 0x8e
1000808e:	005b      	lsls	r3, r3, #1
10008090:	58d3      	ldr	r3, [r2, r3]
10008092:	2b00      	cmp	r3, #0
10008094:	d100      	bne.n	10008098 <w25qxx_Read+0xae>
10008096:	e14a      	b.n	1000832e <w25qxx_Read+0x344>
10008098:	68fa      	ldr	r2, [r7, #12]
1000809a:	238e      	movs	r3, #142	@ 0x8e
1000809c:	005b      	lsls	r3, r3, #1
1000809e:	58d3      	ldr	r3, [r2, r3]
100080a0:	2001      	movs	r0, #1
100080a2:	4798      	blx	r3
100080a4:	e143      	b.n	1000832e <w25qxx_Read+0x344>
100080a6:	68fb      	ldr	r3, [r7, #12]
100080a8:	1dba      	adds	r2, r7, #6
100080aa:	8812      	ldrh	r2, [r2, #0]
100080ac:	81da      	strh	r2, [r3, #14]
100080ae:	2318      	movs	r3, #24
100080b0:	18fb      	adds	r3, r7, r3
100080b2:	781b      	ldrb	r3, [r3, #0]
100080b4:	2b01      	cmp	r3, #1
100080b6:	d105      	bne.n	100080c4 <w25qxx_Read+0xda>
100080b8:	68fb      	ldr	r3, [r7, #12]
100080ba:	89db      	ldrh	r3, [r3, #14]
100080bc:	3302      	adds	r3, #2
100080be:	b29a      	uxth	r2, r3
100080c0:	68fb      	ldr	r3, [r7, #12]
100080c2:	81da      	strh	r2, [r3, #14]
100080c4:	68fb      	ldr	r3, [r7, #12]
100080c6:	89da      	ldrh	r2, [r3, #14]
100080c8:	2380      	movs	r3, #128	@ 0x80
100080ca:	005b      	lsls	r3, r3, #1
100080cc:	429a      	cmp	r2, r3
100080ce:	d912      	bls.n	100080f6 <w25qxx_Read+0x10c>
100080d0:	68fa      	ldr	r2, [r7, #12]
100080d2:	2314      	movs	r3, #20
100080d4:	33ff      	adds	r3, #255	@ 0xff
100080d6:	2103      	movs	r1, #3
100080d8:	54d1      	strb	r1, [r2, r3]
100080da:	68fa      	ldr	r2, [r7, #12]
100080dc:	238e      	movs	r3, #142	@ 0x8e
100080de:	005b      	lsls	r3, r3, #1
100080e0:	58d3      	ldr	r3, [r2, r3]
100080e2:	2b00      	cmp	r3, #0
100080e4:	d100      	bne.n	100080e8 <w25qxx_Read+0xfe>
100080e6:	e122      	b.n	1000832e <w25qxx_Read+0x344>
100080e8:	68fa      	ldr	r2, [r7, #12]
100080ea:	238e      	movs	r3, #142	@ 0x8e
100080ec:	005b      	lsls	r3, r3, #1
100080ee:	58d3      	ldr	r3, [r2, r3]
100080f0:	2001      	movs	r0, #1
100080f2:	4798      	blx	r3
100080f4:	e11b      	b.n	1000832e <w25qxx_Read+0x344>
100080f6:	683b      	ldr	r3, [r7, #0]
100080f8:	22ff      	movs	r2, #255	@ 0xff
100080fa:	4013      	ands	r3, r2
100080fc:	d012      	beq.n	10008124 <w25qxx_Read+0x13a>
100080fe:	68fa      	ldr	r2, [r7, #12]
10008100:	2314      	movs	r3, #20
10008102:	33ff      	adds	r3, #255	@ 0xff
10008104:	2104      	movs	r1, #4
10008106:	54d1      	strb	r1, [r2, r3]
10008108:	68fa      	ldr	r2, [r7, #12]
1000810a:	238e      	movs	r3, #142	@ 0x8e
1000810c:	005b      	lsls	r3, r3, #1
1000810e:	58d3      	ldr	r3, [r2, r3]
10008110:	2b00      	cmp	r3, #0
10008112:	d100      	bne.n	10008116 <w25qxx_Read+0x12c>
10008114:	e10b      	b.n	1000832e <w25qxx_Read+0x344>
10008116:	68fa      	ldr	r2, [r7, #12]
10008118:	238e      	movs	r3, #142	@ 0x8e
1000811a:	005b      	lsls	r3, r3, #1
1000811c:	58d3      	ldr	r3, [r2, r3]
1000811e:	2001      	movs	r0, #1
10008120:	4798      	blx	r3
10008122:	e104      	b.n	1000832e <w25qxx_Read+0x344>
10008124:	68fb      	ldr	r3, [r7, #12]
10008126:	685b      	ldr	r3, [r3, #4]
10008128:	3b01      	subs	r3, #1
1000812a:	021b      	lsls	r3, r3, #8
1000812c:	683a      	ldr	r2, [r7, #0]
1000812e:	429a      	cmp	r2, r3
10008130:	d912      	bls.n	10008158 <w25qxx_Read+0x16e>
10008132:	68fa      	ldr	r2, [r7, #12]
10008134:	2314      	movs	r3, #20
10008136:	33ff      	adds	r3, #255	@ 0xff
10008138:	2104      	movs	r1, #4
1000813a:	54d1      	strb	r1, [r2, r3]
1000813c:	68fa      	ldr	r2, [r7, #12]
1000813e:	238e      	movs	r3, #142	@ 0x8e
10008140:	005b      	lsls	r3, r3, #1
10008142:	58d3      	ldr	r3, [r2, r3]
10008144:	2b00      	cmp	r3, #0
10008146:	d100      	bne.n	1000814a <w25qxx_Read+0x160>
10008148:	e0f1      	b.n	1000832e <w25qxx_Read+0x344>
1000814a:	68fa      	ldr	r2, [r7, #12]
1000814c:	238e      	movs	r3, #142	@ 0x8e
1000814e:	005b      	lsls	r3, r3, #1
10008150:	58d3      	ldr	r3, [r2, r3]
10008152:	2001      	movs	r0, #1
10008154:	4798      	blx	r3
10008156:	e0ea      	b.n	1000832e <w25qxx_Read+0x344>
10008158:	231c      	movs	r3, #28
1000815a:	18fb      	adds	r3, r7, r3
1000815c:	781b      	ldrb	r3, [r3, #0]
1000815e:	2b01      	cmp	r3, #1
10008160:	d101      	bne.n	10008166 <w25qxx_Read+0x17c>
10008162:	220b      	movs	r2, #11
10008164:	e000      	b.n	10008168 <w25qxx_Read+0x17e>
10008166:	2203      	movs	r2, #3
10008168:	68fb      	ldr	r3, [r7, #12]
1000816a:	725a      	strb	r2, [r3, #9]
1000816c:	68fa      	ldr	r2, [r7, #12]
1000816e:	238e      	movs	r3, #142	@ 0x8e
10008170:	005b      	lsls	r3, r3, #1
10008172:	58d3      	ldr	r3, [r2, r3]
10008174:	2000      	movs	r0, #0
10008176:	4798      	blx	r3
10008178:	68fa      	ldr	r2, [r7, #12]
1000817a:	238c      	movs	r3, #140	@ 0x8c
1000817c:	005b      	lsls	r3, r3, #1
1000817e:	58d3      	ldr	r3, [r2, r3]
10008180:	68fa      	ldr	r2, [r7, #12]
10008182:	3209      	adds	r2, #9
10008184:	0010      	movs	r0, r2
10008186:	2264      	movs	r2, #100	@ 0x64
10008188:	2101      	movs	r1, #1
1000818a:	4798      	blx	r3
1000818c:	1e03      	subs	r3, r0, #0
1000818e:	d012      	beq.n	100081b6 <w25qxx_Read+0x1cc>
10008190:	68fa      	ldr	r2, [r7, #12]
10008192:	2314      	movs	r3, #20
10008194:	33ff      	adds	r3, #255	@ 0xff
10008196:	2105      	movs	r1, #5
10008198:	54d1      	strb	r1, [r2, r3]
1000819a:	68fa      	ldr	r2, [r7, #12]
1000819c:	238e      	movs	r3, #142	@ 0x8e
1000819e:	005b      	lsls	r3, r3, #1
100081a0:	58d3      	ldr	r3, [r2, r3]
100081a2:	2b00      	cmp	r3, #0
100081a4:	d100      	bne.n	100081a8 <w25qxx_Read+0x1be>
100081a6:	e0c2      	b.n	1000832e <w25qxx_Read+0x344>
100081a8:	68fa      	ldr	r2, [r7, #12]
100081aa:	238e      	movs	r3, #142	@ 0x8e
100081ac:	005b      	lsls	r3, r3, #1
100081ae:	58d3      	ldr	r3, [r2, r3]
100081b0:	2001      	movs	r0, #1
100081b2:	4798      	blx	r3
100081b4:	e0bb      	b.n	1000832e <w25qxx_Read+0x344>
100081b6:	683b      	ldr	r3, [r7, #0]
100081b8:	0c1b      	lsrs	r3, r3, #16
100081ba:	b2da      	uxtb	r2, r3
100081bc:	68fb      	ldr	r3, [r7, #12]
100081be:	729a      	strb	r2, [r3, #10]
100081c0:	683b      	ldr	r3, [r7, #0]
100081c2:	0a1b      	lsrs	r3, r3, #8
100081c4:	b2da      	uxtb	r2, r3
100081c6:	68fb      	ldr	r3, [r7, #12]
100081c8:	72da      	strb	r2, [r3, #11]
100081ca:	683b      	ldr	r3, [r7, #0]
100081cc:	b2da      	uxtb	r2, r3
100081ce:	68fb      	ldr	r3, [r7, #12]
100081d0:	731a      	strb	r2, [r3, #12]
100081d2:	68fa      	ldr	r2, [r7, #12]
100081d4:	238c      	movs	r3, #140	@ 0x8c
100081d6:	005b      	lsls	r3, r3, #1
100081d8:	58d3      	ldr	r3, [r2, r3]
100081da:	68fa      	ldr	r2, [r7, #12]
100081dc:	320a      	adds	r2, #10
100081de:	0010      	movs	r0, r2
100081e0:	2264      	movs	r2, #100	@ 0x64
100081e2:	2103      	movs	r1, #3
100081e4:	4798      	blx	r3
100081e6:	1e03      	subs	r3, r0, #0
100081e8:	d012      	beq.n	10008210 <w25qxx_Read+0x226>
100081ea:	68fa      	ldr	r2, [r7, #12]
100081ec:	2314      	movs	r3, #20
100081ee:	33ff      	adds	r3, #255	@ 0xff
100081f0:	2105      	movs	r1, #5
100081f2:	54d1      	strb	r1, [r2, r3]
100081f4:	68fa      	ldr	r2, [r7, #12]
100081f6:	238e      	movs	r3, #142	@ 0x8e
100081f8:	005b      	lsls	r3, r3, #1
100081fa:	58d3      	ldr	r3, [r2, r3]
100081fc:	2b00      	cmp	r3, #0
100081fe:	d100      	bne.n	10008202 <w25qxx_Read+0x218>
10008200:	e095      	b.n	1000832e <w25qxx_Read+0x344>
10008202:	68fa      	ldr	r2, [r7, #12]
10008204:	238e      	movs	r3, #142	@ 0x8e
10008206:	005b      	lsls	r3, r3, #1
10008208:	58d3      	ldr	r3, [r2, r3]
1000820a:	2001      	movs	r0, #1
1000820c:	4798      	blx	r3
1000820e:	e08e      	b.n	1000832e <w25qxx_Read+0x344>
10008210:	231c      	movs	r3, #28
10008212:	18fb      	adds	r3, r7, r3
10008214:	781b      	ldrb	r3, [r3, #0]
10008216:	2b01      	cmp	r3, #1
10008218:	d11e      	bne.n	10008258 <w25qxx_Read+0x26e>
1000821a:	68fa      	ldr	r2, [r7, #12]
1000821c:	238c      	movs	r3, #140	@ 0x8c
1000821e:	005b      	lsls	r3, r3, #1
10008220:	58d3      	ldr	r3, [r2, r3]
10008222:	68fa      	ldr	r2, [r7, #12]
10008224:	3209      	adds	r2, #9
10008226:	0010      	movs	r0, r2
10008228:	2264      	movs	r2, #100	@ 0x64
1000822a:	2101      	movs	r1, #1
1000822c:	4798      	blx	r3
1000822e:	1e03      	subs	r3, r0, #0
10008230:	d012      	beq.n	10008258 <w25qxx_Read+0x26e>
10008232:	68fa      	ldr	r2, [r7, #12]
10008234:	2314      	movs	r3, #20
10008236:	33ff      	adds	r3, #255	@ 0xff
10008238:	2105      	movs	r1, #5
1000823a:	54d1      	strb	r1, [r2, r3]
1000823c:	68fa      	ldr	r2, [r7, #12]
1000823e:	238e      	movs	r3, #142	@ 0x8e
10008240:	005b      	lsls	r3, r3, #1
10008242:	58d3      	ldr	r3, [r2, r3]
10008244:	2b00      	cmp	r3, #0
10008246:	d100      	bne.n	1000824a <w25qxx_Read+0x260>
10008248:	e071      	b.n	1000832e <w25qxx_Read+0x344>
1000824a:	68fa      	ldr	r2, [r7, #12]
1000824c:	238e      	movs	r3, #142	@ 0x8e
1000824e:	005b      	lsls	r3, r3, #1
10008250:	58d3      	ldr	r3, [r2, r3]
10008252:	2001      	movs	r0, #1
10008254:	4798      	blx	r3
10008256:	e06a      	b.n	1000832e <w25qxx_Read+0x344>
10008258:	68fa      	ldr	r2, [r7, #12]
1000825a:	238a      	movs	r3, #138	@ 0x8a
1000825c:	005b      	lsls	r3, r3, #1
1000825e:	58d3      	ldr	r3, [r2, r3]
10008260:	68fa      	ldr	r2, [r7, #12]
10008262:	3210      	adds	r2, #16
10008264:	0010      	movs	r0, r2
10008266:	68fa      	ldr	r2, [r7, #12]
10008268:	89d1      	ldrh	r1, [r2, #14]
1000826a:	2264      	movs	r2, #100	@ 0x64
1000826c:	4798      	blx	r3
1000826e:	1e03      	subs	r3, r0, #0
10008270:	d011      	beq.n	10008296 <w25qxx_Read+0x2ac>
10008272:	68fa      	ldr	r2, [r7, #12]
10008274:	2314      	movs	r3, #20
10008276:	33ff      	adds	r3, #255	@ 0xff
10008278:	2105      	movs	r1, #5
1000827a:	54d1      	strb	r1, [r2, r3]
1000827c:	68fa      	ldr	r2, [r7, #12]
1000827e:	238e      	movs	r3, #142	@ 0x8e
10008280:	005b      	lsls	r3, r3, #1
10008282:	58d3      	ldr	r3, [r2, r3]
10008284:	2b00      	cmp	r3, #0
10008286:	d052      	beq.n	1000832e <w25qxx_Read+0x344>
10008288:	68fa      	ldr	r2, [r7, #12]
1000828a:	238e      	movs	r3, #142	@ 0x8e
1000828c:	005b      	lsls	r3, r3, #1
1000828e:	58d3      	ldr	r3, [r2, r3]
10008290:	2001      	movs	r0, #1
10008292:	4798      	blx	r3
10008294:	e04b      	b.n	1000832e <w25qxx_Read+0x344>
10008296:	68fa      	ldr	r2, [r7, #12]
10008298:	238e      	movs	r3, #142	@ 0x8e
1000829a:	005b      	lsls	r3, r3, #1
1000829c:	58d3      	ldr	r3, [r2, r3]
1000829e:	2001      	movs	r0, #1
100082a0:	4798      	blx	r3
100082a2:	2318      	movs	r3, #24
100082a4:	18fb      	adds	r3, r7, r3
100082a6:	781b      	ldrb	r3, [r3, #0]
100082a8:	2b01      	cmp	r3, #1
100082aa:	d12e      	bne.n	1000830a <w25qxx_Read+0x320>
100082ac:	68fb      	ldr	r3, [r7, #12]
100082ae:	3310      	adds	r3, #16
100082b0:	001a      	movs	r2, r3
100082b2:	1dbb      	adds	r3, r7, #6
100082b4:	881b      	ldrh	r3, [r3, #0]
100082b6:	0019      	movs	r1, r3
100082b8:	0010      	movs	r0, r2
100082ba:	f000 ff97 	bl	100091ec <ModBus_CRC>
100082be:	0003      	movs	r3, r0
100082c0:	0019      	movs	r1, r3
100082c2:	68fa      	ldr	r2, [r7, #12]
100082c4:	2388      	movs	r3, #136	@ 0x88
100082c6:	005b      	lsls	r3, r3, #1
100082c8:	52d1      	strh	r1, [r2, r3]
100082ca:	1dbb      	adds	r3, r7, #6
100082cc:	881b      	ldrh	r3, [r3, #0]
100082ce:	3310      	adds	r3, #16
100082d0:	68fa      	ldr	r2, [r7, #12]
100082d2:	18d0      	adds	r0, r2, r3
100082d4:	68fb      	ldr	r3, [r7, #12]
100082d6:	3311      	adds	r3, #17
100082d8:	33ff      	adds	r3, #255	@ 0xff
100082da:	2202      	movs	r2, #2
100082dc:	0019      	movs	r1, r3
100082de:	f000 ffdf 	bl	100092a0 <memcmp>
100082e2:	1e03      	subs	r3, r0, #0
100082e4:	d011      	beq.n	1000830a <w25qxx_Read+0x320>
100082e6:	68fa      	ldr	r2, [r7, #12]
100082e8:	2314      	movs	r3, #20
100082ea:	33ff      	adds	r3, #255	@ 0xff
100082ec:	2107      	movs	r1, #7
100082ee:	54d1      	strb	r1, [r2, r3]
100082f0:	68fa      	ldr	r2, [r7, #12]
100082f2:	238e      	movs	r3, #142	@ 0x8e
100082f4:	005b      	lsls	r3, r3, #1
100082f6:	58d3      	ldr	r3, [r2, r3]
100082f8:	2b00      	cmp	r3, #0
100082fa:	d018      	beq.n	1000832e <w25qxx_Read+0x344>
100082fc:	68fa      	ldr	r2, [r7, #12]
100082fe:	238e      	movs	r3, #142	@ 0x8e
10008300:	005b      	lsls	r3, r3, #1
10008302:	58d3      	ldr	r3, [r2, r3]
10008304:	2001      	movs	r0, #1
10008306:	4798      	blx	r3
10008308:	e011      	b.n	1000832e <w25qxx_Read+0x344>
1000830a:	68fb      	ldr	r3, [r7, #12]
1000830c:	3310      	adds	r3, #16
1000830e:	0019      	movs	r1, r3
10008310:	1dbb      	adds	r3, r7, #6
10008312:	881a      	ldrh	r2, [r3, #0]
10008314:	68bb      	ldr	r3, [r7, #8]
10008316:	0018      	movs	r0, r3
10008318:	f7fe f9dc 	bl	100066d4 <__wrap___aeabi_memcpy>
1000831c:	68fa      	ldr	r2, [r7, #12]
1000831e:	2389      	movs	r3, #137	@ 0x89
10008320:	005b      	lsls	r3, r3, #1
10008322:	2102      	movs	r1, #2
10008324:	54d1      	strb	r1, [r2, r3]
10008326:	e002      	b.n	1000832e <w25qxx_Read+0x344>
10008328:	46c0      	nop			@ (mov r8, r8)
1000832a:	e000      	b.n	1000832e <w25qxx_Read+0x344>
1000832c:	46c0      	nop			@ (mov r8, r8)
1000832e:	46bd      	mov	sp, r7
10008330:	b004      	add	sp, #16
10008332:	bd80      	pop	{r7, pc}

10008334 <w25qxx_Erase>:
10008334:	b580      	push	{r7, lr}
10008336:	b086      	sub	sp, #24
10008338:	af00      	add	r7, sp, #0
1000833a:	60f8      	str	r0, [r7, #12]
1000833c:	0008      	movs	r0, r1
1000833e:	607a      	str	r2, [r7, #4]
10008340:	0019      	movs	r1, r3
10008342:	230b      	movs	r3, #11
10008344:	18fb      	adds	r3, r7, r3
10008346:	1c02      	adds	r2, r0, #0
10008348:	701a      	strb	r2, [r3, #0]
1000834a:	230a      	movs	r3, #10
1000834c:	18fb      	adds	r3, r7, r3
1000834e:	1c0a      	adds	r2, r1, #0
10008350:	701a      	strb	r2, [r3, #0]
10008352:	2300      	movs	r3, #0
10008354:	617b      	str	r3, [r7, #20]
10008356:	68fb      	ldr	r3, [r7, #12]
10008358:	2b00      	cmp	r3, #0
1000835a:	d101      	bne.n	10008360 <w25qxx_Erase+0x2c>
1000835c:	f000 fc02 	bl	10008b64 <w25qxx_Erase+0x830>
10008360:	68fa      	ldr	r2, [r7, #12]
10008362:	2314      	movs	r3, #20
10008364:	33ff      	adds	r3, #255	@ 0xff
10008366:	5cd3      	ldrb	r3, [r2, r3]
10008368:	2b00      	cmp	r3, #0
1000836a:	d001      	beq.n	10008370 <w25qxx_Erase+0x3c>
1000836c:	f000 fbfc 	bl	10008b68 <w25qxx_Erase+0x834>
10008370:	68fa      	ldr	r2, [r7, #12]
10008372:	2389      	movs	r3, #137	@ 0x89
10008374:	005b      	lsls	r3, r3, #1
10008376:	5cd3      	ldrb	r3, [r2, r3]
10008378:	2b02      	cmp	r3, #2
1000837a:	d014      	beq.n	100083a6 <w25qxx_Erase+0x72>
1000837c:	68fa      	ldr	r2, [r7, #12]
1000837e:	2314      	movs	r3, #20
10008380:	33ff      	adds	r3, #255	@ 0xff
10008382:	2101      	movs	r1, #1
10008384:	54d1      	strb	r1, [r2, r3]
10008386:	68fa      	ldr	r2, [r7, #12]
10008388:	238e      	movs	r3, #142	@ 0x8e
1000838a:	005b      	lsls	r3, r3, #1
1000838c:	58d3      	ldr	r3, [r2, r3]
1000838e:	2b00      	cmp	r3, #0
10008390:	d101      	bne.n	10008396 <w25qxx_Erase+0x62>
10008392:	f000 fbea 	bl	10008b6a <w25qxx_Erase+0x836>
10008396:	68fa      	ldr	r2, [r7, #12]
10008398:	238e      	movs	r3, #142	@ 0x8e
1000839a:	005b      	lsls	r3, r3, #1
1000839c:	58d3      	ldr	r3, [r2, r3]
1000839e:	2001      	movs	r0, #1
100083a0:	4798      	blx	r3
100083a2:	f000 fbe2 	bl	10008b6a <w25qxx_Erase+0x836>
100083a6:	68fa      	ldr	r2, [r7, #12]
100083a8:	2389      	movs	r3, #137	@ 0x89
100083aa:	005b      	lsls	r3, r3, #1
100083ac:	2107      	movs	r1, #7
100083ae:	54d1      	strb	r1, [r2, r3]
100083b0:	230b      	movs	r3, #11
100083b2:	18fb      	adds	r3, r7, r3
100083b4:	781b      	ldrb	r3, [r3, #0]
100083b6:	2b03      	cmp	r3, #3
100083b8:	d100      	bne.n	100083bc <w25qxx_Erase+0x88>
100083ba:	e2ef      	b.n	1000899c <w25qxx_Erase+0x668>
100083bc:	dd01      	ble.n	100083c2 <w25qxx_Erase+0x8e>
100083be:	f000 fbaa 	bl	10008b16 <w25qxx_Erase+0x7e2>
100083c2:	2b02      	cmp	r3, #2
100083c4:	d100      	bne.n	100083c8 <w25qxx_Erase+0x94>
100083c6:	e1f7      	b.n	100087b8 <w25qxx_Erase+0x484>
100083c8:	dd01      	ble.n	100083ce <w25qxx_Erase+0x9a>
100083ca:	f000 fba4 	bl	10008b16 <w25qxx_Erase+0x7e2>
100083ce:	2b00      	cmp	r3, #0
100083d0:	d004      	beq.n	100083dc <w25qxx_Erase+0xa8>
100083d2:	2b01      	cmp	r3, #1
100083d4:	d100      	bne.n	100083d8 <w25qxx_Erase+0xa4>
100083d6:	e0f9      	b.n	100085cc <w25qxx_Erase+0x298>
100083d8:	f000 fb9d 	bl	10008b16 <w25qxx_Erase+0x7e2>
100083dc:	687b      	ldr	r3, [r7, #4]
100083de:	051b      	lsls	r3, r3, #20
100083e0:	0d1b      	lsrs	r3, r3, #20
100083e2:	d014      	beq.n	1000840e <w25qxx_Erase+0xda>
100083e4:	68fa      	ldr	r2, [r7, #12]
100083e6:	2314      	movs	r3, #20
100083e8:	33ff      	adds	r3, #255	@ 0xff
100083ea:	2104      	movs	r1, #4
100083ec:	54d1      	strb	r1, [r2, r3]
100083ee:	68fa      	ldr	r2, [r7, #12]
100083f0:	238e      	movs	r3, #142	@ 0x8e
100083f2:	005b      	lsls	r3, r3, #1
100083f4:	58d3      	ldr	r3, [r2, r3]
100083f6:	2b00      	cmp	r3, #0
100083f8:	d101      	bne.n	100083fe <w25qxx_Erase+0xca>
100083fa:	f000 fbb6 	bl	10008b6a <w25qxx_Erase+0x836>
100083fe:	68fa      	ldr	r2, [r7, #12]
10008400:	238e      	movs	r3, #142	@ 0x8e
10008402:	005b      	lsls	r3, r3, #1
10008404:	58d3      	ldr	r3, [r2, r3]
10008406:	2001      	movs	r0, #1
10008408:	4798      	blx	r3
1000840a:	f000 fbae 	bl	10008b6a <w25qxx_Erase+0x836>
1000840e:	68fb      	ldr	r3, [r7, #12]
10008410:	685b      	ldr	r3, [r3, #4]
10008412:	4acd      	ldr	r2, [pc, #820]	@ (10008748 <w25qxx_Erase+0x414>)
10008414:	4694      	mov	ip, r2
10008416:	4463      	add	r3, ip
10008418:	021b      	lsls	r3, r3, #8
1000841a:	687a      	ldr	r2, [r7, #4]
1000841c:	429a      	cmp	r2, r3
1000841e:	d914      	bls.n	1000844a <w25qxx_Erase+0x116>
10008420:	68fa      	ldr	r2, [r7, #12]
10008422:	2314      	movs	r3, #20
10008424:	33ff      	adds	r3, #255	@ 0xff
10008426:	2104      	movs	r1, #4
10008428:	54d1      	strb	r1, [r2, r3]
1000842a:	68fa      	ldr	r2, [r7, #12]
1000842c:	238e      	movs	r3, #142	@ 0x8e
1000842e:	005b      	lsls	r3, r3, #1
10008430:	58d3      	ldr	r3, [r2, r3]
10008432:	2b00      	cmp	r3, #0
10008434:	d101      	bne.n	1000843a <w25qxx_Erase+0x106>
10008436:	f000 fb98 	bl	10008b6a <w25qxx_Erase+0x836>
1000843a:	68fa      	ldr	r2, [r7, #12]
1000843c:	238e      	movs	r3, #142	@ 0x8e
1000843e:	005b      	lsls	r3, r3, #1
10008440:	58d3      	ldr	r3, [r2, r3]
10008442:	2001      	movs	r0, #1
10008444:	4798      	blx	r3
10008446:	f000 fb90 	bl	10008b6a <w25qxx_Erase+0x836>
1000844a:	68fb      	ldr	r3, [r7, #12]
1000844c:	0018      	movs	r0, r3
1000844e:	f000 fe8c 	bl	1000916a <w25qxx_WriteEnable>
10008452:	68fa      	ldr	r2, [r7, #12]
10008454:	2314      	movs	r3, #20
10008456:	33ff      	adds	r3, #255	@ 0xff
10008458:	5cd3      	ldrb	r3, [r2, r3]
1000845a:	2b00      	cmp	r3, #0
1000845c:	d014      	beq.n	10008488 <w25qxx_Erase+0x154>
1000845e:	68fa      	ldr	r2, [r7, #12]
10008460:	2314      	movs	r3, #20
10008462:	33ff      	adds	r3, #255	@ 0xff
10008464:	2105      	movs	r1, #5
10008466:	54d1      	strb	r1, [r2, r3]
10008468:	68fa      	ldr	r2, [r7, #12]
1000846a:	238e      	movs	r3, #142	@ 0x8e
1000846c:	005b      	lsls	r3, r3, #1
1000846e:	58d3      	ldr	r3, [r2, r3]
10008470:	2b00      	cmp	r3, #0
10008472:	d101      	bne.n	10008478 <w25qxx_Erase+0x144>
10008474:	f000 fb79 	bl	10008b6a <w25qxx_Erase+0x836>
10008478:	68fa      	ldr	r2, [r7, #12]
1000847a:	238e      	movs	r3, #142	@ 0x8e
1000847c:	005b      	lsls	r3, r3, #1
1000847e:	58d3      	ldr	r3, [r2, r3]
10008480:	2001      	movs	r0, #1
10008482:	4798      	blx	r3
10008484:	f000 fb71 	bl	10008b6a <w25qxx_Erase+0x836>
10008488:	68fb      	ldr	r3, [r7, #12]
1000848a:	2220      	movs	r2, #32
1000848c:	725a      	strb	r2, [r3, #9]
1000848e:	68fa      	ldr	r2, [r7, #12]
10008490:	238e      	movs	r3, #142	@ 0x8e
10008492:	005b      	lsls	r3, r3, #1
10008494:	58d3      	ldr	r3, [r2, r3]
10008496:	2000      	movs	r0, #0
10008498:	4798      	blx	r3
1000849a:	68fa      	ldr	r2, [r7, #12]
1000849c:	238c      	movs	r3, #140	@ 0x8c
1000849e:	005b      	lsls	r3, r3, #1
100084a0:	58d3      	ldr	r3, [r2, r3]
100084a2:	68fa      	ldr	r2, [r7, #12]
100084a4:	3209      	adds	r2, #9
100084a6:	0010      	movs	r0, r2
100084a8:	2264      	movs	r2, #100	@ 0x64
100084aa:	2101      	movs	r1, #1
100084ac:	4798      	blx	r3
100084ae:	1e03      	subs	r3, r0, #0
100084b0:	d012      	beq.n	100084d8 <w25qxx_Erase+0x1a4>
100084b2:	68fa      	ldr	r2, [r7, #12]
100084b4:	2314      	movs	r3, #20
100084b6:	33ff      	adds	r3, #255	@ 0xff
100084b8:	2105      	movs	r1, #5
100084ba:	54d1      	strb	r1, [r2, r3]
100084bc:	68fa      	ldr	r2, [r7, #12]
100084be:	238e      	movs	r3, #142	@ 0x8e
100084c0:	005b      	lsls	r3, r3, #1
100084c2:	58d3      	ldr	r3, [r2, r3]
100084c4:	2b00      	cmp	r3, #0
100084c6:	d100      	bne.n	100084ca <w25qxx_Erase+0x196>
100084c8:	e34f      	b.n	10008b6a <w25qxx_Erase+0x836>
100084ca:	68fa      	ldr	r2, [r7, #12]
100084cc:	238e      	movs	r3, #142	@ 0x8e
100084ce:	005b      	lsls	r3, r3, #1
100084d0:	58d3      	ldr	r3, [r2, r3]
100084d2:	2001      	movs	r0, #1
100084d4:	4798      	blx	r3
100084d6:	e348      	b.n	10008b6a <w25qxx_Erase+0x836>
100084d8:	687b      	ldr	r3, [r7, #4]
100084da:	0c1b      	lsrs	r3, r3, #16
100084dc:	b2da      	uxtb	r2, r3
100084de:	68fb      	ldr	r3, [r7, #12]
100084e0:	729a      	strb	r2, [r3, #10]
100084e2:	687b      	ldr	r3, [r7, #4]
100084e4:	0a1b      	lsrs	r3, r3, #8
100084e6:	b2da      	uxtb	r2, r3
100084e8:	68fb      	ldr	r3, [r7, #12]
100084ea:	72da      	strb	r2, [r3, #11]
100084ec:	687b      	ldr	r3, [r7, #4]
100084ee:	b2da      	uxtb	r2, r3
100084f0:	68fb      	ldr	r3, [r7, #12]
100084f2:	731a      	strb	r2, [r3, #12]
100084f4:	68fa      	ldr	r2, [r7, #12]
100084f6:	238c      	movs	r3, #140	@ 0x8c
100084f8:	005b      	lsls	r3, r3, #1
100084fa:	58d3      	ldr	r3, [r2, r3]
100084fc:	68fa      	ldr	r2, [r7, #12]
100084fe:	320a      	adds	r2, #10
10008500:	0010      	movs	r0, r2
10008502:	2264      	movs	r2, #100	@ 0x64
10008504:	2103      	movs	r1, #3
10008506:	4798      	blx	r3
10008508:	1e03      	subs	r3, r0, #0
1000850a:	d012      	beq.n	10008532 <w25qxx_Erase+0x1fe>
1000850c:	68fa      	ldr	r2, [r7, #12]
1000850e:	2314      	movs	r3, #20
10008510:	33ff      	adds	r3, #255	@ 0xff
10008512:	2105      	movs	r1, #5
10008514:	54d1      	strb	r1, [r2, r3]
10008516:	68fa      	ldr	r2, [r7, #12]
10008518:	238e      	movs	r3, #142	@ 0x8e
1000851a:	005b      	lsls	r3, r3, #1
1000851c:	58d3      	ldr	r3, [r2, r3]
1000851e:	2b00      	cmp	r3, #0
10008520:	d100      	bne.n	10008524 <w25qxx_Erase+0x1f0>
10008522:	e322      	b.n	10008b6a <w25qxx_Erase+0x836>
10008524:	68fa      	ldr	r2, [r7, #12]
10008526:	238e      	movs	r3, #142	@ 0x8e
10008528:	005b      	lsls	r3, r3, #1
1000852a:	58d3      	ldr	r3, [r2, r3]
1000852c:	2001      	movs	r0, #1
1000852e:	4798      	blx	r3
10008530:	e31b      	b.n	10008b6a <w25qxx_Erase+0x836>
10008532:	68fa      	ldr	r2, [r7, #12]
10008534:	238e      	movs	r3, #142	@ 0x8e
10008536:	005b      	lsls	r3, r3, #1
10008538:	58d3      	ldr	r3, [r2, r3]
1000853a:	2001      	movs	r0, #1
1000853c:	4798      	blx	r3
1000853e:	230a      	movs	r3, #10
10008540:	18fb      	adds	r3, r7, r3
10008542:	781b      	ldrb	r3, [r3, #0]
10008544:	2b02      	cmp	r3, #2
10008546:	d00d      	beq.n	10008564 <w25qxx_Erase+0x230>
10008548:	dc29      	bgt.n	1000859e <w25qxx_Erase+0x26a>
1000854a:	2b00      	cmp	r3, #0
1000854c:	d03a      	beq.n	100085c4 <w25qxx_Erase+0x290>
1000854e:	2b01      	cmp	r3, #1
10008550:	d125      	bne.n	1000859e <w25qxx_Erase+0x26a>
10008552:	68fa      	ldr	r2, [r7, #12]
10008554:	2390      	movs	r3, #144	@ 0x90
10008556:	005b      	lsls	r3, r3, #1
10008558:	58d3      	ldr	r3, [r2, r3]
1000855a:	22c8      	movs	r2, #200	@ 0xc8
1000855c:	0052      	lsls	r2, r2, #1
1000855e:	0010      	movs	r0, r2
10008560:	4798      	blx	r3
10008562:	e032      	b.n	100085ca <w25qxx_Erase+0x296>
10008564:	23c8      	movs	r3, #200	@ 0xc8
10008566:	005a      	lsls	r2, r3, #1
10008568:	68fb      	ldr	r3, [r7, #12]
1000856a:	0011      	movs	r1, r2
1000856c:	0018      	movs	r0, r3
1000856e:	f000 fc0b 	bl	10008d88 <w25qxx_WaitWithTimeout>
10008572:	0003      	movs	r3, r0
10008574:	2b02      	cmp	r3, #2
10008576:	d027      	beq.n	100085c8 <w25qxx_Erase+0x294>
10008578:	68fa      	ldr	r2, [r7, #12]
1000857a:	2314      	movs	r3, #20
1000857c:	33ff      	adds	r3, #255	@ 0xff
1000857e:	2106      	movs	r1, #6
10008580:	54d1      	strb	r1, [r2, r3]
10008582:	68fa      	ldr	r2, [r7, #12]
10008584:	238e      	movs	r3, #142	@ 0x8e
10008586:	005b      	lsls	r3, r3, #1
10008588:	58d3      	ldr	r3, [r2, r3]
1000858a:	2b00      	cmp	r3, #0
1000858c:	d100      	bne.n	10008590 <w25qxx_Erase+0x25c>
1000858e:	e2ec      	b.n	10008b6a <w25qxx_Erase+0x836>
10008590:	68fa      	ldr	r2, [r7, #12]
10008592:	238e      	movs	r3, #142	@ 0x8e
10008594:	005b      	lsls	r3, r3, #1
10008596:	58d3      	ldr	r3, [r2, r3]
10008598:	2001      	movs	r0, #1
1000859a:	4798      	blx	r3
1000859c:	e2e5      	b.n	10008b6a <w25qxx_Erase+0x836>
1000859e:	68fa      	ldr	r2, [r7, #12]
100085a0:	2314      	movs	r3, #20
100085a2:	33ff      	adds	r3, #255	@ 0xff
100085a4:	2103      	movs	r1, #3
100085a6:	54d1      	strb	r1, [r2, r3]
100085a8:	68fa      	ldr	r2, [r7, #12]
100085aa:	238e      	movs	r3, #142	@ 0x8e
100085ac:	005b      	lsls	r3, r3, #1
100085ae:	58d3      	ldr	r3, [r2, r3]
100085b0:	2b00      	cmp	r3, #0
100085b2:	d100      	bne.n	100085b6 <w25qxx_Erase+0x282>
100085b4:	e2d9      	b.n	10008b6a <w25qxx_Erase+0x836>
100085b6:	68fa      	ldr	r2, [r7, #12]
100085b8:	238e      	movs	r3, #142	@ 0x8e
100085ba:	005b      	lsls	r3, r3, #1
100085bc:	58d3      	ldr	r3, [r2, r3]
100085be:	2001      	movs	r0, #1
100085c0:	4798      	blx	r3
100085c2:	e2d2      	b.n	10008b6a <w25qxx_Erase+0x836>
100085c4:	46c0      	nop			@ (mov r8, r8)
100085c6:	e2c7      	b.n	10008b58 <w25qxx_Erase+0x824>
100085c8:	46c0      	nop			@ (mov r8, r8)
100085ca:	e2c5      	b.n	10008b58 <w25qxx_Erase+0x824>
100085cc:	687b      	ldr	r3, [r7, #4]
100085ce:	045b      	lsls	r3, r3, #17
100085d0:	0c5b      	lsrs	r3, r3, #17
100085d2:	d012      	beq.n	100085fa <w25qxx_Erase+0x2c6>
100085d4:	68fa      	ldr	r2, [r7, #12]
100085d6:	2314      	movs	r3, #20
100085d8:	33ff      	adds	r3, #255	@ 0xff
100085da:	2104      	movs	r1, #4
100085dc:	54d1      	strb	r1, [r2, r3]
100085de:	68fa      	ldr	r2, [r7, #12]
100085e0:	238e      	movs	r3, #142	@ 0x8e
100085e2:	005b      	lsls	r3, r3, #1
100085e4:	58d3      	ldr	r3, [r2, r3]
100085e6:	2b00      	cmp	r3, #0
100085e8:	d100      	bne.n	100085ec <w25qxx_Erase+0x2b8>
100085ea:	e2be      	b.n	10008b6a <w25qxx_Erase+0x836>
100085ec:	68fa      	ldr	r2, [r7, #12]
100085ee:	238e      	movs	r3, #142	@ 0x8e
100085f0:	005b      	lsls	r3, r3, #1
100085f2:	58d3      	ldr	r3, [r2, r3]
100085f4:	2001      	movs	r0, #1
100085f6:	4798      	blx	r3
100085f8:	e2b7      	b.n	10008b6a <w25qxx_Erase+0x836>
100085fa:	68fb      	ldr	r3, [r7, #12]
100085fc:	685b      	ldr	r3, [r3, #4]
100085fe:	4a53      	ldr	r2, [pc, #332]	@ (1000874c <w25qxx_Erase+0x418>)
10008600:	4694      	mov	ip, r2
10008602:	4463      	add	r3, ip
10008604:	021b      	lsls	r3, r3, #8
10008606:	687a      	ldr	r2, [r7, #4]
10008608:	429a      	cmp	r2, r3
1000860a:	d912      	bls.n	10008632 <w25qxx_Erase+0x2fe>
1000860c:	68fa      	ldr	r2, [r7, #12]
1000860e:	2314      	movs	r3, #20
10008610:	33ff      	adds	r3, #255	@ 0xff
10008612:	2104      	movs	r1, #4
10008614:	54d1      	strb	r1, [r2, r3]
10008616:	68fa      	ldr	r2, [r7, #12]
10008618:	238e      	movs	r3, #142	@ 0x8e
1000861a:	005b      	lsls	r3, r3, #1
1000861c:	58d3      	ldr	r3, [r2, r3]
1000861e:	2b00      	cmp	r3, #0
10008620:	d100      	bne.n	10008624 <w25qxx_Erase+0x2f0>
10008622:	e2a2      	b.n	10008b6a <w25qxx_Erase+0x836>
10008624:	68fa      	ldr	r2, [r7, #12]
10008626:	238e      	movs	r3, #142	@ 0x8e
10008628:	005b      	lsls	r3, r3, #1
1000862a:	58d3      	ldr	r3, [r2, r3]
1000862c:	2001      	movs	r0, #1
1000862e:	4798      	blx	r3
10008630:	e29b      	b.n	10008b6a <w25qxx_Erase+0x836>
10008632:	68fb      	ldr	r3, [r7, #12]
10008634:	0018      	movs	r0, r3
10008636:	f000 fd98 	bl	1000916a <w25qxx_WriteEnable>
1000863a:	68fa      	ldr	r2, [r7, #12]
1000863c:	2314      	movs	r3, #20
1000863e:	33ff      	adds	r3, #255	@ 0xff
10008640:	5cd3      	ldrb	r3, [r2, r3]
10008642:	2b00      	cmp	r3, #0
10008644:	d012      	beq.n	1000866c <w25qxx_Erase+0x338>
10008646:	68fa      	ldr	r2, [r7, #12]
10008648:	2314      	movs	r3, #20
1000864a:	33ff      	adds	r3, #255	@ 0xff
1000864c:	2105      	movs	r1, #5
1000864e:	54d1      	strb	r1, [r2, r3]
10008650:	68fa      	ldr	r2, [r7, #12]
10008652:	238e      	movs	r3, #142	@ 0x8e
10008654:	005b      	lsls	r3, r3, #1
10008656:	58d3      	ldr	r3, [r2, r3]
10008658:	2b00      	cmp	r3, #0
1000865a:	d100      	bne.n	1000865e <w25qxx_Erase+0x32a>
1000865c:	e285      	b.n	10008b6a <w25qxx_Erase+0x836>
1000865e:	68fa      	ldr	r2, [r7, #12]
10008660:	238e      	movs	r3, #142	@ 0x8e
10008662:	005b      	lsls	r3, r3, #1
10008664:	58d3      	ldr	r3, [r2, r3]
10008666:	2001      	movs	r0, #1
10008668:	4798      	blx	r3
1000866a:	e27e      	b.n	10008b6a <w25qxx_Erase+0x836>
1000866c:	68fb      	ldr	r3, [r7, #12]
1000866e:	2252      	movs	r2, #82	@ 0x52
10008670:	725a      	strb	r2, [r3, #9]
10008672:	68fa      	ldr	r2, [r7, #12]
10008674:	238e      	movs	r3, #142	@ 0x8e
10008676:	005b      	lsls	r3, r3, #1
10008678:	58d3      	ldr	r3, [r2, r3]
1000867a:	2000      	movs	r0, #0
1000867c:	4798      	blx	r3
1000867e:	68fa      	ldr	r2, [r7, #12]
10008680:	238c      	movs	r3, #140	@ 0x8c
10008682:	005b      	lsls	r3, r3, #1
10008684:	58d3      	ldr	r3, [r2, r3]
10008686:	68fa      	ldr	r2, [r7, #12]
10008688:	3209      	adds	r2, #9
1000868a:	0010      	movs	r0, r2
1000868c:	2264      	movs	r2, #100	@ 0x64
1000868e:	2101      	movs	r1, #1
10008690:	4798      	blx	r3
10008692:	1e03      	subs	r3, r0, #0
10008694:	d012      	beq.n	100086bc <w25qxx_Erase+0x388>
10008696:	68fa      	ldr	r2, [r7, #12]
10008698:	2314      	movs	r3, #20
1000869a:	33ff      	adds	r3, #255	@ 0xff
1000869c:	2105      	movs	r1, #5
1000869e:	54d1      	strb	r1, [r2, r3]
100086a0:	68fa      	ldr	r2, [r7, #12]
100086a2:	238e      	movs	r3, #142	@ 0x8e
100086a4:	005b      	lsls	r3, r3, #1
100086a6:	58d3      	ldr	r3, [r2, r3]
100086a8:	2b00      	cmp	r3, #0
100086aa:	d100      	bne.n	100086ae <w25qxx_Erase+0x37a>
100086ac:	e25d      	b.n	10008b6a <w25qxx_Erase+0x836>
100086ae:	68fa      	ldr	r2, [r7, #12]
100086b0:	238e      	movs	r3, #142	@ 0x8e
100086b2:	005b      	lsls	r3, r3, #1
100086b4:	58d3      	ldr	r3, [r2, r3]
100086b6:	2001      	movs	r0, #1
100086b8:	4798      	blx	r3
100086ba:	e256      	b.n	10008b6a <w25qxx_Erase+0x836>
100086bc:	687b      	ldr	r3, [r7, #4]
100086be:	0c1b      	lsrs	r3, r3, #16
100086c0:	b2da      	uxtb	r2, r3
100086c2:	68fb      	ldr	r3, [r7, #12]
100086c4:	729a      	strb	r2, [r3, #10]
100086c6:	687b      	ldr	r3, [r7, #4]
100086c8:	0a1b      	lsrs	r3, r3, #8
100086ca:	b2da      	uxtb	r2, r3
100086cc:	68fb      	ldr	r3, [r7, #12]
100086ce:	72da      	strb	r2, [r3, #11]
100086d0:	687b      	ldr	r3, [r7, #4]
100086d2:	b2da      	uxtb	r2, r3
100086d4:	68fb      	ldr	r3, [r7, #12]
100086d6:	731a      	strb	r2, [r3, #12]
100086d8:	68fa      	ldr	r2, [r7, #12]
100086da:	238c      	movs	r3, #140	@ 0x8c
100086dc:	005b      	lsls	r3, r3, #1
100086de:	58d3      	ldr	r3, [r2, r3]
100086e0:	68fa      	ldr	r2, [r7, #12]
100086e2:	320a      	adds	r2, #10
100086e4:	0010      	movs	r0, r2
100086e6:	2264      	movs	r2, #100	@ 0x64
100086e8:	2103      	movs	r1, #3
100086ea:	4798      	blx	r3
100086ec:	1e03      	subs	r3, r0, #0
100086ee:	d012      	beq.n	10008716 <w25qxx_Erase+0x3e2>
100086f0:	68fa      	ldr	r2, [r7, #12]
100086f2:	2314      	movs	r3, #20
100086f4:	33ff      	adds	r3, #255	@ 0xff
100086f6:	2105      	movs	r1, #5
100086f8:	54d1      	strb	r1, [r2, r3]
100086fa:	68fa      	ldr	r2, [r7, #12]
100086fc:	238e      	movs	r3, #142	@ 0x8e
100086fe:	005b      	lsls	r3, r3, #1
10008700:	58d3      	ldr	r3, [r2, r3]
10008702:	2b00      	cmp	r3, #0
10008704:	d100      	bne.n	10008708 <w25qxx_Erase+0x3d4>
10008706:	e230      	b.n	10008b6a <w25qxx_Erase+0x836>
10008708:	68fa      	ldr	r2, [r7, #12]
1000870a:	238e      	movs	r3, #142	@ 0x8e
1000870c:	005b      	lsls	r3, r3, #1
1000870e:	58d3      	ldr	r3, [r2, r3]
10008710:	2001      	movs	r0, #1
10008712:	4798      	blx	r3
10008714:	e229      	b.n	10008b6a <w25qxx_Erase+0x836>
10008716:	68fa      	ldr	r2, [r7, #12]
10008718:	238e      	movs	r3, #142	@ 0x8e
1000871a:	005b      	lsls	r3, r3, #1
1000871c:	58d3      	ldr	r3, [r2, r3]
1000871e:	2001      	movs	r0, #1
10008720:	4798      	blx	r3
10008722:	230a      	movs	r3, #10
10008724:	18fb      	adds	r3, r7, r3
10008726:	781b      	ldrb	r3, [r3, #0]
10008728:	2b02      	cmp	r3, #2
1000872a:	d011      	beq.n	10008750 <w25qxx_Erase+0x41c>
1000872c:	dc2d      	bgt.n	1000878a <w25qxx_Erase+0x456>
1000872e:	2b00      	cmp	r3, #0
10008730:	d03e      	beq.n	100087b0 <w25qxx_Erase+0x47c>
10008732:	2b01      	cmp	r3, #1
10008734:	d129      	bne.n	1000878a <w25qxx_Erase+0x456>
10008736:	68fa      	ldr	r2, [r7, #12]
10008738:	2390      	movs	r3, #144	@ 0x90
1000873a:	005b      	lsls	r3, r3, #1
1000873c:	58d3      	ldr	r3, [r2, r3]
1000873e:	22c8      	movs	r2, #200	@ 0xc8
10008740:	00d2      	lsls	r2, r2, #3
10008742:	0010      	movs	r0, r2
10008744:	4798      	blx	r3
10008746:	e036      	b.n	100087b6 <w25qxx_Erase+0x482>
10008748:	00fffff0 	.word	0x00fffff0
1000874c:	00ffff80 	.word	0x00ffff80
10008750:	23c8      	movs	r3, #200	@ 0xc8
10008752:	00da      	lsls	r2, r3, #3
10008754:	68fb      	ldr	r3, [r7, #12]
10008756:	0011      	movs	r1, r2
10008758:	0018      	movs	r0, r3
1000875a:	f000 fb15 	bl	10008d88 <w25qxx_WaitWithTimeout>
1000875e:	0003      	movs	r3, r0
10008760:	2b02      	cmp	r3, #2
10008762:	d027      	beq.n	100087b4 <w25qxx_Erase+0x480>
10008764:	68fa      	ldr	r2, [r7, #12]
10008766:	2314      	movs	r3, #20
10008768:	33ff      	adds	r3, #255	@ 0xff
1000876a:	2106      	movs	r1, #6
1000876c:	54d1      	strb	r1, [r2, r3]
1000876e:	68fa      	ldr	r2, [r7, #12]
10008770:	238e      	movs	r3, #142	@ 0x8e
10008772:	005b      	lsls	r3, r3, #1
10008774:	58d3      	ldr	r3, [r2, r3]
10008776:	2b00      	cmp	r3, #0
10008778:	d100      	bne.n	1000877c <w25qxx_Erase+0x448>
1000877a:	e1f6      	b.n	10008b6a <w25qxx_Erase+0x836>
1000877c:	68fa      	ldr	r2, [r7, #12]
1000877e:	238e      	movs	r3, #142	@ 0x8e
10008780:	005b      	lsls	r3, r3, #1
10008782:	58d3      	ldr	r3, [r2, r3]
10008784:	2001      	movs	r0, #1
10008786:	4798      	blx	r3
10008788:	e1ef      	b.n	10008b6a <w25qxx_Erase+0x836>
1000878a:	68fa      	ldr	r2, [r7, #12]
1000878c:	2314      	movs	r3, #20
1000878e:	33ff      	adds	r3, #255	@ 0xff
10008790:	2103      	movs	r1, #3
10008792:	54d1      	strb	r1, [r2, r3]
10008794:	68fa      	ldr	r2, [r7, #12]
10008796:	238e      	movs	r3, #142	@ 0x8e
10008798:	005b      	lsls	r3, r3, #1
1000879a:	58d3      	ldr	r3, [r2, r3]
1000879c:	2b00      	cmp	r3, #0
1000879e:	d100      	bne.n	100087a2 <w25qxx_Erase+0x46e>
100087a0:	e1e3      	b.n	10008b6a <w25qxx_Erase+0x836>
100087a2:	68fa      	ldr	r2, [r7, #12]
100087a4:	238e      	movs	r3, #142	@ 0x8e
100087a6:	005b      	lsls	r3, r3, #1
100087a8:	58d3      	ldr	r3, [r2, r3]
100087aa:	2001      	movs	r0, #1
100087ac:	4798      	blx	r3
100087ae:	e1dc      	b.n	10008b6a <w25qxx_Erase+0x836>
100087b0:	46c0      	nop			@ (mov r8, r8)
100087b2:	e1d1      	b.n	10008b58 <w25qxx_Erase+0x824>
100087b4:	46c0      	nop			@ (mov r8, r8)
100087b6:	e1cf      	b.n	10008b58 <w25qxx_Erase+0x824>
100087b8:	687b      	ldr	r3, [r7, #4]
100087ba:	041b      	lsls	r3, r3, #16
100087bc:	0c1b      	lsrs	r3, r3, #16
100087be:	d012      	beq.n	100087e6 <w25qxx_Erase+0x4b2>
100087c0:	68fa      	ldr	r2, [r7, #12]
100087c2:	2314      	movs	r3, #20
100087c4:	33ff      	adds	r3, #255	@ 0xff
100087c6:	2104      	movs	r1, #4
100087c8:	54d1      	strb	r1, [r2, r3]
100087ca:	68fa      	ldr	r2, [r7, #12]
100087cc:	238e      	movs	r3, #142	@ 0x8e
100087ce:	005b      	lsls	r3, r3, #1
100087d0:	58d3      	ldr	r3, [r2, r3]
100087d2:	2b00      	cmp	r3, #0
100087d4:	d100      	bne.n	100087d8 <w25qxx_Erase+0x4a4>
100087d6:	e1c8      	b.n	10008b6a <w25qxx_Erase+0x836>
100087d8:	68fa      	ldr	r2, [r7, #12]
100087da:	238e      	movs	r3, #142	@ 0x8e
100087dc:	005b      	lsls	r3, r3, #1
100087de:	58d3      	ldr	r3, [r2, r3]
100087e0:	2001      	movs	r0, #1
100087e2:	4798      	blx	r3
100087e4:	e1c1      	b.n	10008b6a <w25qxx_Erase+0x836>
100087e6:	68fb      	ldr	r3, [r7, #12]
100087e8:	685b      	ldr	r3, [r3, #4]
100087ea:	4ad4      	ldr	r2, [pc, #848]	@ (10008b3c <w25qxx_Erase+0x808>)
100087ec:	4694      	mov	ip, r2
100087ee:	4463      	add	r3, ip
100087f0:	021b      	lsls	r3, r3, #8
100087f2:	687a      	ldr	r2, [r7, #4]
100087f4:	429a      	cmp	r2, r3
100087f6:	d912      	bls.n	1000881e <w25qxx_Erase+0x4ea>
100087f8:	68fa      	ldr	r2, [r7, #12]
100087fa:	2314      	movs	r3, #20
100087fc:	33ff      	adds	r3, #255	@ 0xff
100087fe:	2104      	movs	r1, #4
10008800:	54d1      	strb	r1, [r2, r3]
10008802:	68fa      	ldr	r2, [r7, #12]
10008804:	238e      	movs	r3, #142	@ 0x8e
10008806:	005b      	lsls	r3, r3, #1
10008808:	58d3      	ldr	r3, [r2, r3]
1000880a:	2b00      	cmp	r3, #0
1000880c:	d100      	bne.n	10008810 <w25qxx_Erase+0x4dc>
1000880e:	e1ac      	b.n	10008b6a <w25qxx_Erase+0x836>
10008810:	68fa      	ldr	r2, [r7, #12]
10008812:	238e      	movs	r3, #142	@ 0x8e
10008814:	005b      	lsls	r3, r3, #1
10008816:	58d3      	ldr	r3, [r2, r3]
10008818:	2001      	movs	r0, #1
1000881a:	4798      	blx	r3
1000881c:	e1a5      	b.n	10008b6a <w25qxx_Erase+0x836>
1000881e:	68fb      	ldr	r3, [r7, #12]
10008820:	0018      	movs	r0, r3
10008822:	f000 fca2 	bl	1000916a <w25qxx_WriteEnable>
10008826:	68fa      	ldr	r2, [r7, #12]
10008828:	2314      	movs	r3, #20
1000882a:	33ff      	adds	r3, #255	@ 0xff
1000882c:	5cd3      	ldrb	r3, [r2, r3]
1000882e:	2b00      	cmp	r3, #0
10008830:	d012      	beq.n	10008858 <w25qxx_Erase+0x524>
10008832:	68fa      	ldr	r2, [r7, #12]
10008834:	2314      	movs	r3, #20
10008836:	33ff      	adds	r3, #255	@ 0xff
10008838:	2105      	movs	r1, #5
1000883a:	54d1      	strb	r1, [r2, r3]
1000883c:	68fa      	ldr	r2, [r7, #12]
1000883e:	238e      	movs	r3, #142	@ 0x8e
10008840:	005b      	lsls	r3, r3, #1
10008842:	58d3      	ldr	r3, [r2, r3]
10008844:	2b00      	cmp	r3, #0
10008846:	d100      	bne.n	1000884a <w25qxx_Erase+0x516>
10008848:	e18f      	b.n	10008b6a <w25qxx_Erase+0x836>
1000884a:	68fa      	ldr	r2, [r7, #12]
1000884c:	238e      	movs	r3, #142	@ 0x8e
1000884e:	005b      	lsls	r3, r3, #1
10008850:	58d3      	ldr	r3, [r2, r3]
10008852:	2001      	movs	r0, #1
10008854:	4798      	blx	r3
10008856:	e188      	b.n	10008b6a <w25qxx_Erase+0x836>
10008858:	68fb      	ldr	r3, [r7, #12]
1000885a:	22d8      	movs	r2, #216	@ 0xd8
1000885c:	725a      	strb	r2, [r3, #9]
1000885e:	68fa      	ldr	r2, [r7, #12]
10008860:	238e      	movs	r3, #142	@ 0x8e
10008862:	005b      	lsls	r3, r3, #1
10008864:	58d3      	ldr	r3, [r2, r3]
10008866:	2000      	movs	r0, #0
10008868:	4798      	blx	r3
1000886a:	68fa      	ldr	r2, [r7, #12]
1000886c:	238c      	movs	r3, #140	@ 0x8c
1000886e:	005b      	lsls	r3, r3, #1
10008870:	58d3      	ldr	r3, [r2, r3]
10008872:	68fa      	ldr	r2, [r7, #12]
10008874:	3209      	adds	r2, #9
10008876:	0010      	movs	r0, r2
10008878:	2264      	movs	r2, #100	@ 0x64
1000887a:	2101      	movs	r1, #1
1000887c:	4798      	blx	r3
1000887e:	1e03      	subs	r3, r0, #0
10008880:	d012      	beq.n	100088a8 <w25qxx_Erase+0x574>
10008882:	68fa      	ldr	r2, [r7, #12]
10008884:	2314      	movs	r3, #20
10008886:	33ff      	adds	r3, #255	@ 0xff
10008888:	2105      	movs	r1, #5
1000888a:	54d1      	strb	r1, [r2, r3]
1000888c:	68fa      	ldr	r2, [r7, #12]
1000888e:	238e      	movs	r3, #142	@ 0x8e
10008890:	005b      	lsls	r3, r3, #1
10008892:	58d3      	ldr	r3, [r2, r3]
10008894:	2b00      	cmp	r3, #0
10008896:	d100      	bne.n	1000889a <w25qxx_Erase+0x566>
10008898:	e167      	b.n	10008b6a <w25qxx_Erase+0x836>
1000889a:	68fa      	ldr	r2, [r7, #12]
1000889c:	238e      	movs	r3, #142	@ 0x8e
1000889e:	005b      	lsls	r3, r3, #1
100088a0:	58d3      	ldr	r3, [r2, r3]
100088a2:	2001      	movs	r0, #1
100088a4:	4798      	blx	r3
100088a6:	e160      	b.n	10008b6a <w25qxx_Erase+0x836>
100088a8:	687b      	ldr	r3, [r7, #4]
100088aa:	0c1b      	lsrs	r3, r3, #16
100088ac:	b2da      	uxtb	r2, r3
100088ae:	68fb      	ldr	r3, [r7, #12]
100088b0:	729a      	strb	r2, [r3, #10]
100088b2:	687b      	ldr	r3, [r7, #4]
100088b4:	0a1b      	lsrs	r3, r3, #8
100088b6:	b2da      	uxtb	r2, r3
100088b8:	68fb      	ldr	r3, [r7, #12]
100088ba:	72da      	strb	r2, [r3, #11]
100088bc:	687b      	ldr	r3, [r7, #4]
100088be:	b2da      	uxtb	r2, r3
100088c0:	68fb      	ldr	r3, [r7, #12]
100088c2:	731a      	strb	r2, [r3, #12]
100088c4:	68fa      	ldr	r2, [r7, #12]
100088c6:	238c      	movs	r3, #140	@ 0x8c
100088c8:	005b      	lsls	r3, r3, #1
100088ca:	58d3      	ldr	r3, [r2, r3]
100088cc:	68fa      	ldr	r2, [r7, #12]
100088ce:	320a      	adds	r2, #10
100088d0:	0010      	movs	r0, r2
100088d2:	2264      	movs	r2, #100	@ 0x64
100088d4:	2103      	movs	r1, #3
100088d6:	4798      	blx	r3
100088d8:	1e03      	subs	r3, r0, #0
100088da:	d012      	beq.n	10008902 <w25qxx_Erase+0x5ce>
100088dc:	68fa      	ldr	r2, [r7, #12]
100088de:	2314      	movs	r3, #20
100088e0:	33ff      	adds	r3, #255	@ 0xff
100088e2:	2105      	movs	r1, #5
100088e4:	54d1      	strb	r1, [r2, r3]
100088e6:	68fa      	ldr	r2, [r7, #12]
100088e8:	238e      	movs	r3, #142	@ 0x8e
100088ea:	005b      	lsls	r3, r3, #1
100088ec:	58d3      	ldr	r3, [r2, r3]
100088ee:	2b00      	cmp	r3, #0
100088f0:	d100      	bne.n	100088f4 <w25qxx_Erase+0x5c0>
100088f2:	e13a      	b.n	10008b6a <w25qxx_Erase+0x836>
100088f4:	68fa      	ldr	r2, [r7, #12]
100088f6:	238e      	movs	r3, #142	@ 0x8e
100088f8:	005b      	lsls	r3, r3, #1
100088fa:	58d3      	ldr	r3, [r2, r3]
100088fc:	2001      	movs	r0, #1
100088fe:	4798      	blx	r3
10008900:	e133      	b.n	10008b6a <w25qxx_Erase+0x836>
10008902:	68fa      	ldr	r2, [r7, #12]
10008904:	238e      	movs	r3, #142	@ 0x8e
10008906:	005b      	lsls	r3, r3, #1
10008908:	58d3      	ldr	r3, [r2, r3]
1000890a:	2001      	movs	r0, #1
1000890c:	4798      	blx	r3
1000890e:	230a      	movs	r3, #10
10008910:	18fb      	adds	r3, r7, r3
10008912:	781b      	ldrb	r3, [r3, #0]
10008914:	2b02      	cmp	r3, #2
10008916:	d00d      	beq.n	10008934 <w25qxx_Erase+0x600>
10008918:	dc29      	bgt.n	1000896e <w25qxx_Erase+0x63a>
1000891a:	2b00      	cmp	r3, #0
1000891c:	d03a      	beq.n	10008994 <w25qxx_Erase+0x660>
1000891e:	2b01      	cmp	r3, #1
10008920:	d125      	bne.n	1000896e <w25qxx_Erase+0x63a>
10008922:	68fa      	ldr	r2, [r7, #12]
10008924:	2390      	movs	r3, #144	@ 0x90
10008926:	005b      	lsls	r3, r3, #1
10008928:	58d3      	ldr	r3, [r2, r3]
1000892a:	22fa      	movs	r2, #250	@ 0xfa
1000892c:	00d2      	lsls	r2, r2, #3
1000892e:	0010      	movs	r0, r2
10008930:	4798      	blx	r3
10008932:	e032      	b.n	1000899a <w25qxx_Erase+0x666>
10008934:	23fa      	movs	r3, #250	@ 0xfa
10008936:	00da      	lsls	r2, r3, #3
10008938:	68fb      	ldr	r3, [r7, #12]
1000893a:	0011      	movs	r1, r2
1000893c:	0018      	movs	r0, r3
1000893e:	f000 fa23 	bl	10008d88 <w25qxx_WaitWithTimeout>
10008942:	0003      	movs	r3, r0
10008944:	2b02      	cmp	r3, #2
10008946:	d027      	beq.n	10008998 <w25qxx_Erase+0x664>
10008948:	68fa      	ldr	r2, [r7, #12]
1000894a:	2314      	movs	r3, #20
1000894c:	33ff      	adds	r3, #255	@ 0xff
1000894e:	2106      	movs	r1, #6
10008950:	54d1      	strb	r1, [r2, r3]
10008952:	68fa      	ldr	r2, [r7, #12]
10008954:	238e      	movs	r3, #142	@ 0x8e
10008956:	005b      	lsls	r3, r3, #1
10008958:	58d3      	ldr	r3, [r2, r3]
1000895a:	2b00      	cmp	r3, #0
1000895c:	d100      	bne.n	10008960 <w25qxx_Erase+0x62c>
1000895e:	e104      	b.n	10008b6a <w25qxx_Erase+0x836>
10008960:	68fa      	ldr	r2, [r7, #12]
10008962:	238e      	movs	r3, #142	@ 0x8e
10008964:	005b      	lsls	r3, r3, #1
10008966:	58d3      	ldr	r3, [r2, r3]
10008968:	2001      	movs	r0, #1
1000896a:	4798      	blx	r3
1000896c:	e0fd      	b.n	10008b6a <w25qxx_Erase+0x836>
1000896e:	68fa      	ldr	r2, [r7, #12]
10008970:	2314      	movs	r3, #20
10008972:	33ff      	adds	r3, #255	@ 0xff
10008974:	2103      	movs	r1, #3
10008976:	54d1      	strb	r1, [r2, r3]
10008978:	68fa      	ldr	r2, [r7, #12]
1000897a:	238e      	movs	r3, #142	@ 0x8e
1000897c:	005b      	lsls	r3, r3, #1
1000897e:	58d3      	ldr	r3, [r2, r3]
10008980:	2b00      	cmp	r3, #0
10008982:	d100      	bne.n	10008986 <w25qxx_Erase+0x652>
10008984:	e0f1      	b.n	10008b6a <w25qxx_Erase+0x836>
10008986:	68fa      	ldr	r2, [r7, #12]
10008988:	238e      	movs	r3, #142	@ 0x8e
1000898a:	005b      	lsls	r3, r3, #1
1000898c:	58d3      	ldr	r3, [r2, r3]
1000898e:	2001      	movs	r0, #1
10008990:	4798      	blx	r3
10008992:	e0ea      	b.n	10008b6a <w25qxx_Erase+0x836>
10008994:	46c0      	nop			@ (mov r8, r8)
10008996:	e0df      	b.n	10008b58 <w25qxx_Erase+0x824>
10008998:	46c0      	nop			@ (mov r8, r8)
1000899a:	e0dd      	b.n	10008b58 <w25qxx_Erase+0x824>
1000899c:	687b      	ldr	r3, [r7, #4]
1000899e:	2b00      	cmp	r3, #0
100089a0:	d012      	beq.n	100089c8 <w25qxx_Erase+0x694>
100089a2:	68fa      	ldr	r2, [r7, #12]
100089a4:	2314      	movs	r3, #20
100089a6:	33ff      	adds	r3, #255	@ 0xff
100089a8:	2104      	movs	r1, #4
100089aa:	54d1      	strb	r1, [r2, r3]
100089ac:	68fa      	ldr	r2, [r7, #12]
100089ae:	238e      	movs	r3, #142	@ 0x8e
100089b0:	005b      	lsls	r3, r3, #1
100089b2:	58d3      	ldr	r3, [r2, r3]
100089b4:	2b00      	cmp	r3, #0
100089b6:	d100      	bne.n	100089ba <w25qxx_Erase+0x686>
100089b8:	e0d7      	b.n	10008b6a <w25qxx_Erase+0x836>
100089ba:	68fa      	ldr	r2, [r7, #12]
100089bc:	238e      	movs	r3, #142	@ 0x8e
100089be:	005b      	lsls	r3, r3, #1
100089c0:	58d3      	ldr	r3, [r2, r3]
100089c2:	2001      	movs	r0, #1
100089c4:	4798      	blx	r3
100089c6:	e0d0      	b.n	10008b6a <w25qxx_Erase+0x836>
100089c8:	68fb      	ldr	r3, [r7, #12]
100089ca:	785b      	ldrb	r3, [r3, #1]
100089cc:	3b13      	subs	r3, #19
100089ce:	2b04      	cmp	r3, #4
100089d0:	d813      	bhi.n	100089fa <w25qxx_Erase+0x6c6>
100089d2:	009a      	lsls	r2, r3, #2
100089d4:	4b5a      	ldr	r3, [pc, #360]	@ (10008b40 <w25qxx_Erase+0x80c>)
100089d6:	18d3      	adds	r3, r2, r3
100089d8:	681b      	ldr	r3, [r3, #0]
100089da:	469f      	mov	pc, r3
100089dc:	4b59      	ldr	r3, [pc, #356]	@ (10008b44 <w25qxx_Erase+0x810>)
100089de:	617b      	str	r3, [r7, #20]
100089e0:	e00b      	b.n	100089fa <w25qxx_Erase+0x6c6>
100089e2:	4b59      	ldr	r3, [pc, #356]	@ (10008b48 <w25qxx_Erase+0x814>)
100089e4:	617b      	str	r3, [r7, #20]
100089e6:	e008      	b.n	100089fa <w25qxx_Erase+0x6c6>
100089e8:	4b58      	ldr	r3, [pc, #352]	@ (10008b4c <w25qxx_Erase+0x818>)
100089ea:	617b      	str	r3, [r7, #20]
100089ec:	e005      	b.n	100089fa <w25qxx_Erase+0x6c6>
100089ee:	4b58      	ldr	r3, [pc, #352]	@ (10008b50 <w25qxx_Erase+0x81c>)
100089f0:	617b      	str	r3, [r7, #20]
100089f2:	e002      	b.n	100089fa <w25qxx_Erase+0x6c6>
100089f4:	4b57      	ldr	r3, [pc, #348]	@ (10008b54 <w25qxx_Erase+0x820>)
100089f6:	617b      	str	r3, [r7, #20]
100089f8:	46c0      	nop			@ (mov r8, r8)
100089fa:	68fb      	ldr	r3, [r7, #12]
100089fc:	0018      	movs	r0, r3
100089fe:	f000 fbb4 	bl	1000916a <w25qxx_WriteEnable>
10008a02:	68fa      	ldr	r2, [r7, #12]
10008a04:	2314      	movs	r3, #20
10008a06:	33ff      	adds	r3, #255	@ 0xff
10008a08:	5cd3      	ldrb	r3, [r2, r3]
10008a0a:	2b00      	cmp	r3, #0
10008a0c:	d012      	beq.n	10008a34 <w25qxx_Erase+0x700>
10008a0e:	68fa      	ldr	r2, [r7, #12]
10008a10:	2314      	movs	r3, #20
10008a12:	33ff      	adds	r3, #255	@ 0xff
10008a14:	2105      	movs	r1, #5
10008a16:	54d1      	strb	r1, [r2, r3]
10008a18:	68fa      	ldr	r2, [r7, #12]
10008a1a:	238e      	movs	r3, #142	@ 0x8e
10008a1c:	005b      	lsls	r3, r3, #1
10008a1e:	58d3      	ldr	r3, [r2, r3]
10008a20:	2b00      	cmp	r3, #0
10008a22:	d100      	bne.n	10008a26 <w25qxx_Erase+0x6f2>
10008a24:	e0a1      	b.n	10008b6a <w25qxx_Erase+0x836>
10008a26:	68fa      	ldr	r2, [r7, #12]
10008a28:	238e      	movs	r3, #142	@ 0x8e
10008a2a:	005b      	lsls	r3, r3, #1
10008a2c:	58d3      	ldr	r3, [r2, r3]
10008a2e:	2001      	movs	r0, #1
10008a30:	4798      	blx	r3
10008a32:	e09a      	b.n	10008b6a <w25qxx_Erase+0x836>
10008a34:	68fb      	ldr	r3, [r7, #12]
10008a36:	22c7      	movs	r2, #199	@ 0xc7
10008a38:	725a      	strb	r2, [r3, #9]
10008a3a:	68fa      	ldr	r2, [r7, #12]
10008a3c:	238e      	movs	r3, #142	@ 0x8e
10008a3e:	005b      	lsls	r3, r3, #1
10008a40:	58d3      	ldr	r3, [r2, r3]
10008a42:	2000      	movs	r0, #0
10008a44:	4798      	blx	r3
10008a46:	68fa      	ldr	r2, [r7, #12]
10008a48:	238c      	movs	r3, #140	@ 0x8c
10008a4a:	005b      	lsls	r3, r3, #1
10008a4c:	58d3      	ldr	r3, [r2, r3]
10008a4e:	68fa      	ldr	r2, [r7, #12]
10008a50:	3209      	adds	r2, #9
10008a52:	0010      	movs	r0, r2
10008a54:	2264      	movs	r2, #100	@ 0x64
10008a56:	2101      	movs	r1, #1
10008a58:	4798      	blx	r3
10008a5a:	1e03      	subs	r3, r0, #0
10008a5c:	d012      	beq.n	10008a84 <w25qxx_Erase+0x750>
10008a5e:	68fa      	ldr	r2, [r7, #12]
10008a60:	2314      	movs	r3, #20
10008a62:	33ff      	adds	r3, #255	@ 0xff
10008a64:	2105      	movs	r1, #5
10008a66:	54d1      	strb	r1, [r2, r3]
10008a68:	68fa      	ldr	r2, [r7, #12]
10008a6a:	238e      	movs	r3, #142	@ 0x8e
10008a6c:	005b      	lsls	r3, r3, #1
10008a6e:	58d3      	ldr	r3, [r2, r3]
10008a70:	2b00      	cmp	r3, #0
10008a72:	d100      	bne.n	10008a76 <w25qxx_Erase+0x742>
10008a74:	e079      	b.n	10008b6a <w25qxx_Erase+0x836>
10008a76:	68fa      	ldr	r2, [r7, #12]
10008a78:	238e      	movs	r3, #142	@ 0x8e
10008a7a:	005b      	lsls	r3, r3, #1
10008a7c:	58d3      	ldr	r3, [r2, r3]
10008a7e:	2001      	movs	r0, #1
10008a80:	4798      	blx	r3
10008a82:	e072      	b.n	10008b6a <w25qxx_Erase+0x836>
10008a84:	68fa      	ldr	r2, [r7, #12]
10008a86:	238e      	movs	r3, #142	@ 0x8e
10008a88:	005b      	lsls	r3, r3, #1
10008a8a:	58d3      	ldr	r3, [r2, r3]
10008a8c:	2001      	movs	r0, #1
10008a8e:	4798      	blx	r3
10008a90:	230a      	movs	r3, #10
10008a92:	18fb      	adds	r3, r7, r3
10008a94:	781b      	ldrb	r3, [r3, #0]
10008a96:	2b02      	cmp	r3, #2
10008a98:	d00c      	beq.n	10008ab4 <w25qxx_Erase+0x780>
10008a9a:	dc26      	bgt.n	10008aea <w25qxx_Erase+0x7b6>
10008a9c:	2b00      	cmp	r3, #0
10008a9e:	d036      	beq.n	10008b0e <w25qxx_Erase+0x7da>
10008aa0:	2b01      	cmp	r3, #1
10008aa2:	d122      	bne.n	10008aea <w25qxx_Erase+0x7b6>
10008aa4:	68fa      	ldr	r2, [r7, #12]
10008aa6:	2390      	movs	r3, #144	@ 0x90
10008aa8:	005b      	lsls	r3, r3, #1
10008aaa:	58d3      	ldr	r3, [r2, r3]
10008aac:	697a      	ldr	r2, [r7, #20]
10008aae:	0010      	movs	r0, r2
10008ab0:	4798      	blx	r3
10008ab2:	e02f      	b.n	10008b14 <w25qxx_Erase+0x7e0>
10008ab4:	697a      	ldr	r2, [r7, #20]
10008ab6:	68fb      	ldr	r3, [r7, #12]
10008ab8:	0011      	movs	r1, r2
10008aba:	0018      	movs	r0, r3
10008abc:	f000 f964 	bl	10008d88 <w25qxx_WaitWithTimeout>
10008ac0:	0003      	movs	r3, r0
10008ac2:	2b02      	cmp	r3, #2
10008ac4:	d025      	beq.n	10008b12 <w25qxx_Erase+0x7de>
10008ac6:	68fa      	ldr	r2, [r7, #12]
10008ac8:	2314      	movs	r3, #20
10008aca:	33ff      	adds	r3, #255	@ 0xff
10008acc:	2106      	movs	r1, #6
10008ace:	54d1      	strb	r1, [r2, r3]
10008ad0:	68fa      	ldr	r2, [r7, #12]
10008ad2:	238e      	movs	r3, #142	@ 0x8e
10008ad4:	005b      	lsls	r3, r3, #1
10008ad6:	58d3      	ldr	r3, [r2, r3]
10008ad8:	2b00      	cmp	r3, #0
10008ada:	d046      	beq.n	10008b6a <w25qxx_Erase+0x836>
10008adc:	68fa      	ldr	r2, [r7, #12]
10008ade:	238e      	movs	r3, #142	@ 0x8e
10008ae0:	005b      	lsls	r3, r3, #1
10008ae2:	58d3      	ldr	r3, [r2, r3]
10008ae4:	2001      	movs	r0, #1
10008ae6:	4798      	blx	r3
10008ae8:	e03f      	b.n	10008b6a <w25qxx_Erase+0x836>
10008aea:	68fa      	ldr	r2, [r7, #12]
10008aec:	2314      	movs	r3, #20
10008aee:	33ff      	adds	r3, #255	@ 0xff
10008af0:	2103      	movs	r1, #3
10008af2:	54d1      	strb	r1, [r2, r3]
10008af4:	68fa      	ldr	r2, [r7, #12]
10008af6:	238e      	movs	r3, #142	@ 0x8e
10008af8:	005b      	lsls	r3, r3, #1
10008afa:	58d3      	ldr	r3, [r2, r3]
10008afc:	2b00      	cmp	r3, #0
10008afe:	d034      	beq.n	10008b6a <w25qxx_Erase+0x836>
10008b00:	68fa      	ldr	r2, [r7, #12]
10008b02:	238e      	movs	r3, #142	@ 0x8e
10008b04:	005b      	lsls	r3, r3, #1
10008b06:	58d3      	ldr	r3, [r2, r3]
10008b08:	2001      	movs	r0, #1
10008b0a:	4798      	blx	r3
10008b0c:	e02d      	b.n	10008b6a <w25qxx_Erase+0x836>
10008b0e:	46c0      	nop			@ (mov r8, r8)
10008b10:	e022      	b.n	10008b58 <w25qxx_Erase+0x824>
10008b12:	46c0      	nop			@ (mov r8, r8)
10008b14:	e020      	b.n	10008b58 <w25qxx_Erase+0x824>
10008b16:	68fa      	ldr	r2, [r7, #12]
10008b18:	2314      	movs	r3, #20
10008b1a:	33ff      	adds	r3, #255	@ 0xff
10008b1c:	2108      	movs	r1, #8
10008b1e:	54d1      	strb	r1, [r2, r3]
10008b20:	68fa      	ldr	r2, [r7, #12]
10008b22:	238e      	movs	r3, #142	@ 0x8e
10008b24:	005b      	lsls	r3, r3, #1
10008b26:	58d3      	ldr	r3, [r2, r3]
10008b28:	2b00      	cmp	r3, #0
10008b2a:	d01e      	beq.n	10008b6a <w25qxx_Erase+0x836>
10008b2c:	68fa      	ldr	r2, [r7, #12]
10008b2e:	238e      	movs	r3, #142	@ 0x8e
10008b30:	005b      	lsls	r3, r3, #1
10008b32:	58d3      	ldr	r3, [r2, r3]
10008b34:	2001      	movs	r0, #1
10008b36:	4798      	blx	r3
10008b38:	e017      	b.n	10008b6a <w25qxx_Erase+0x836>
10008b3a:	46c0      	nop			@ (mov r8, r8)
10008b3c:	00ffff00 	.word	0x00ffff00
10008b40:	1000aa54 	.word	0x1000aa54
10008b44:	00002ee0 	.word	0x00002ee0
10008b48:	000061a8 	.word	0x000061a8
10008b4c:	0000c350 	.word	0x0000c350
10008b50:	000186a0 	.word	0x000186a0
10008b54:	00030d40 	.word	0x00030d40
10008b58:	68fa      	ldr	r2, [r7, #12]
10008b5a:	2389      	movs	r3, #137	@ 0x89
10008b5c:	005b      	lsls	r3, r3, #1
10008b5e:	2102      	movs	r1, #2
10008b60:	54d1      	strb	r1, [r2, r3]
10008b62:	e002      	b.n	10008b6a <w25qxx_Erase+0x836>
10008b64:	46c0      	nop			@ (mov r8, r8)
10008b66:	e000      	b.n	10008b6a <w25qxx_Erase+0x836>
10008b68:	46c0      	nop			@ (mov r8, r8)
10008b6a:	46bd      	mov	sp, r7
10008b6c:	b006      	add	sp, #24
10008b6e:	bd80      	pop	{r7, pc}

10008b70 <w25qxx_WriteStatus>:
10008b70:	b580      	push	{r7, lr}
10008b72:	b082      	sub	sp, #8
10008b74:	af00      	add	r7, sp, #0
10008b76:	6078      	str	r0, [r7, #4]
10008b78:	0008      	movs	r0, r1
10008b7a:	0011      	movs	r1, r2
10008b7c:	1cfb      	adds	r3, r7, #3
10008b7e:	1c02      	adds	r2, r0, #0
10008b80:	701a      	strb	r2, [r3, #0]
10008b82:	1cbb      	adds	r3, r7, #2
10008b84:	1c0a      	adds	r2, r1, #0
10008b86:	701a      	strb	r2, [r3, #0]
10008b88:	687b      	ldr	r3, [r7, #4]
10008b8a:	2b00      	cmp	r3, #0
10008b8c:	d100      	bne.n	10008b90 <w25qxx_WriteStatus+0x20>
10008b8e:	e0f5      	b.n	10008d7c <w25qxx_WriteStatus+0x20c>
10008b90:	687a      	ldr	r2, [r7, #4]
10008b92:	2314      	movs	r3, #20
10008b94:	33ff      	adds	r3, #255	@ 0xff
10008b96:	5cd3      	ldrb	r3, [r2, r3]
10008b98:	2b00      	cmp	r3, #0
10008b9a:	d000      	beq.n	10008b9e <w25qxx_WriteStatus+0x2e>
10008b9c:	e0f0      	b.n	10008d80 <w25qxx_WriteStatus+0x210>
10008b9e:	687a      	ldr	r2, [r7, #4]
10008ba0:	2389      	movs	r3, #137	@ 0x89
10008ba2:	005b      	lsls	r3, r3, #1
10008ba4:	5cd3      	ldrb	r3, [r2, r3]
10008ba6:	2b02      	cmp	r3, #2
10008ba8:	d012      	beq.n	10008bd0 <w25qxx_WriteStatus+0x60>
10008baa:	687a      	ldr	r2, [r7, #4]
10008bac:	2314      	movs	r3, #20
10008bae:	33ff      	adds	r3, #255	@ 0xff
10008bb0:	2101      	movs	r1, #1
10008bb2:	54d1      	strb	r1, [r2, r3]
10008bb4:	687a      	ldr	r2, [r7, #4]
10008bb6:	238e      	movs	r3, #142	@ 0x8e
10008bb8:	005b      	lsls	r3, r3, #1
10008bba:	58d3      	ldr	r3, [r2, r3]
10008bbc:	2b00      	cmp	r3, #0
10008bbe:	d100      	bne.n	10008bc2 <w25qxx_WriteStatus+0x52>
10008bc0:	e0df      	b.n	10008d82 <w25qxx_WriteStatus+0x212>
10008bc2:	687a      	ldr	r2, [r7, #4]
10008bc4:	238e      	movs	r3, #142	@ 0x8e
10008bc6:	005b      	lsls	r3, r3, #1
10008bc8:	58d3      	ldr	r3, [r2, r3]
10008bca:	2001      	movs	r0, #1
10008bcc:	4798      	blx	r3
10008bce:	e0d8      	b.n	10008d82 <w25qxx_WriteStatus+0x212>
10008bd0:	687a      	ldr	r2, [r7, #4]
10008bd2:	2389      	movs	r3, #137	@ 0x89
10008bd4:	005b      	lsls	r3, r3, #1
10008bd6:	2105      	movs	r1, #5
10008bd8:	54d1      	strb	r1, [r2, r3]
10008bda:	1cfb      	adds	r3, r7, #3
10008bdc:	781b      	ldrb	r3, [r3, #0]
10008bde:	2b00      	cmp	r3, #0
10008be0:	d003      	beq.n	10008bea <w25qxx_WriteStatus+0x7a>
10008be2:	1cfb      	adds	r3, r7, #3
10008be4:	781b      	ldrb	r3, [r3, #0]
10008be6:	2b03      	cmp	r3, #3
10008be8:	d912      	bls.n	10008c10 <w25qxx_WriteStatus+0xa0>
10008bea:	687a      	ldr	r2, [r7, #4]
10008bec:	2314      	movs	r3, #20
10008bee:	33ff      	adds	r3, #255	@ 0xff
10008bf0:	2103      	movs	r1, #3
10008bf2:	54d1      	strb	r1, [r2, r3]
10008bf4:	687a      	ldr	r2, [r7, #4]
10008bf6:	238e      	movs	r3, #142	@ 0x8e
10008bf8:	005b      	lsls	r3, r3, #1
10008bfa:	58d3      	ldr	r3, [r2, r3]
10008bfc:	2b00      	cmp	r3, #0
10008bfe:	d100      	bne.n	10008c02 <w25qxx_WriteStatus+0x92>
10008c00:	e0bf      	b.n	10008d82 <w25qxx_WriteStatus+0x212>
10008c02:	687a      	ldr	r2, [r7, #4]
10008c04:	238e      	movs	r3, #142	@ 0x8e
10008c06:	005b      	lsls	r3, r3, #1
10008c08:	58d3      	ldr	r3, [r2, r3]
10008c0a:	2001      	movs	r0, #1
10008c0c:	4798      	blx	r3
10008c0e:	e0b8      	b.n	10008d82 <w25qxx_WriteStatus+0x212>
10008c10:	1cbb      	adds	r3, r7, #2
10008c12:	781b      	ldrb	r3, [r3, #0]
10008c14:	2b01      	cmp	r3, #1
10008c16:	d101      	bne.n	10008c1c <w25qxx_WriteStatus+0xac>
10008c18:	2250      	movs	r2, #80	@ 0x50
10008c1a:	e000      	b.n	10008c1e <w25qxx_WriteStatus+0xae>
10008c1c:	2206      	movs	r2, #6
10008c1e:	687b      	ldr	r3, [r7, #4]
10008c20:	725a      	strb	r2, [r3, #9]
10008c22:	687a      	ldr	r2, [r7, #4]
10008c24:	238e      	movs	r3, #142	@ 0x8e
10008c26:	005b      	lsls	r3, r3, #1
10008c28:	58d3      	ldr	r3, [r2, r3]
10008c2a:	2000      	movs	r0, #0
10008c2c:	4798      	blx	r3
10008c2e:	687a      	ldr	r2, [r7, #4]
10008c30:	238c      	movs	r3, #140	@ 0x8c
10008c32:	005b      	lsls	r3, r3, #1
10008c34:	58d3      	ldr	r3, [r2, r3]
10008c36:	687a      	ldr	r2, [r7, #4]
10008c38:	3209      	adds	r2, #9
10008c3a:	0010      	movs	r0, r2
10008c3c:	2264      	movs	r2, #100	@ 0x64
10008c3e:	2101      	movs	r1, #1
10008c40:	4798      	blx	r3
10008c42:	1e03      	subs	r3, r0, #0
10008c44:	d012      	beq.n	10008c6c <w25qxx_WriteStatus+0xfc>
10008c46:	687a      	ldr	r2, [r7, #4]
10008c48:	2314      	movs	r3, #20
10008c4a:	33ff      	adds	r3, #255	@ 0xff
10008c4c:	2105      	movs	r1, #5
10008c4e:	54d1      	strb	r1, [r2, r3]
10008c50:	687a      	ldr	r2, [r7, #4]
10008c52:	238e      	movs	r3, #142	@ 0x8e
10008c54:	005b      	lsls	r3, r3, #1
10008c56:	58d3      	ldr	r3, [r2, r3]
10008c58:	2b00      	cmp	r3, #0
10008c5a:	d100      	bne.n	10008c5e <w25qxx_WriteStatus+0xee>
10008c5c:	e091      	b.n	10008d82 <w25qxx_WriteStatus+0x212>
10008c5e:	687a      	ldr	r2, [r7, #4]
10008c60:	238e      	movs	r3, #142	@ 0x8e
10008c62:	005b      	lsls	r3, r3, #1
10008c64:	58d3      	ldr	r3, [r2, r3]
10008c66:	2001      	movs	r0, #1
10008c68:	4798      	blx	r3
10008c6a:	e08a      	b.n	10008d82 <w25qxx_WriteStatus+0x212>
10008c6c:	687a      	ldr	r2, [r7, #4]
10008c6e:	238e      	movs	r3, #142	@ 0x8e
10008c70:	005b      	lsls	r3, r3, #1
10008c72:	58d3      	ldr	r3, [r2, r3]
10008c74:	2001      	movs	r0, #1
10008c76:	4798      	blx	r3
10008c78:	1cfb      	adds	r3, r7, #3
10008c7a:	781b      	ldrb	r3, [r3, #0]
10008c7c:	2b03      	cmp	r3, #3
10008c7e:	d00d      	beq.n	10008c9c <w25qxx_WriteStatus+0x12c>
10008c80:	dc10      	bgt.n	10008ca4 <w25qxx_WriteStatus+0x134>
10008c82:	2b01      	cmp	r3, #1
10008c84:	d002      	beq.n	10008c8c <w25qxx_WriteStatus+0x11c>
10008c86:	2b02      	cmp	r3, #2
10008c88:	d004      	beq.n	10008c94 <w25qxx_WriteStatus+0x124>
10008c8a:	e00b      	b.n	10008ca4 <w25qxx_WriteStatus+0x134>
10008c8c:	687b      	ldr	r3, [r7, #4]
10008c8e:	2201      	movs	r2, #1
10008c90:	725a      	strb	r2, [r3, #9]
10008c92:	e007      	b.n	10008ca4 <w25qxx_WriteStatus+0x134>
10008c94:	687b      	ldr	r3, [r7, #4]
10008c96:	2231      	movs	r2, #49	@ 0x31
10008c98:	725a      	strb	r2, [r3, #9]
10008c9a:	e003      	b.n	10008ca4 <w25qxx_WriteStatus+0x134>
10008c9c:	687b      	ldr	r3, [r7, #4]
10008c9e:	2211      	movs	r2, #17
10008ca0:	725a      	strb	r2, [r3, #9]
10008ca2:	46c0      	nop			@ (mov r8, r8)
10008ca4:	687a      	ldr	r2, [r7, #4]
10008ca6:	238e      	movs	r3, #142	@ 0x8e
10008ca8:	005b      	lsls	r3, r3, #1
10008caa:	58d3      	ldr	r3, [r2, r3]
10008cac:	2000      	movs	r0, #0
10008cae:	4798      	blx	r3
10008cb0:	687a      	ldr	r2, [r7, #4]
10008cb2:	238c      	movs	r3, #140	@ 0x8c
10008cb4:	005b      	lsls	r3, r3, #1
10008cb6:	58d3      	ldr	r3, [r2, r3]
10008cb8:	687a      	ldr	r2, [r7, #4]
10008cba:	3209      	adds	r2, #9
10008cbc:	0010      	movs	r0, r2
10008cbe:	2264      	movs	r2, #100	@ 0x64
10008cc0:	2101      	movs	r1, #1
10008cc2:	4798      	blx	r3
10008cc4:	1e03      	subs	r3, r0, #0
10008cc6:	d011      	beq.n	10008cec <w25qxx_WriteStatus+0x17c>
10008cc8:	687a      	ldr	r2, [r7, #4]
10008cca:	2314      	movs	r3, #20
10008ccc:	33ff      	adds	r3, #255	@ 0xff
10008cce:	2105      	movs	r1, #5
10008cd0:	54d1      	strb	r1, [r2, r3]
10008cd2:	687a      	ldr	r2, [r7, #4]
10008cd4:	238e      	movs	r3, #142	@ 0x8e
10008cd6:	005b      	lsls	r3, r3, #1
10008cd8:	58d3      	ldr	r3, [r2, r3]
10008cda:	2b00      	cmp	r3, #0
10008cdc:	d051      	beq.n	10008d82 <w25qxx_WriteStatus+0x212>
10008cde:	687a      	ldr	r2, [r7, #4]
10008ce0:	238e      	movs	r3, #142	@ 0x8e
10008ce2:	005b      	lsls	r3, r3, #1
10008ce4:	58d3      	ldr	r3, [r2, r3]
10008ce6:	2001      	movs	r0, #1
10008ce8:	4798      	blx	r3
10008cea:	e04a      	b.n	10008d82 <w25qxx_WriteStatus+0x212>
10008cec:	687a      	ldr	r2, [r7, #4]
10008cee:	238c      	movs	r3, #140	@ 0x8c
10008cf0:	005b      	lsls	r3, r3, #1
10008cf2:	58d3      	ldr	r3, [r2, r3]
10008cf4:	687a      	ldr	r2, [r7, #4]
10008cf6:	3208      	adds	r2, #8
10008cf8:	0010      	movs	r0, r2
10008cfa:	2264      	movs	r2, #100	@ 0x64
10008cfc:	2101      	movs	r1, #1
10008cfe:	4798      	blx	r3
10008d00:	1e03      	subs	r3, r0, #0
10008d02:	d011      	beq.n	10008d28 <w25qxx_WriteStatus+0x1b8>
10008d04:	687a      	ldr	r2, [r7, #4]
10008d06:	2314      	movs	r3, #20
10008d08:	33ff      	adds	r3, #255	@ 0xff
10008d0a:	2105      	movs	r1, #5
10008d0c:	54d1      	strb	r1, [r2, r3]
10008d0e:	687a      	ldr	r2, [r7, #4]
10008d10:	238e      	movs	r3, #142	@ 0x8e
10008d12:	005b      	lsls	r3, r3, #1
10008d14:	58d3      	ldr	r3, [r2, r3]
10008d16:	2b00      	cmp	r3, #0
10008d18:	d033      	beq.n	10008d82 <w25qxx_WriteStatus+0x212>
10008d1a:	687a      	ldr	r2, [r7, #4]
10008d1c:	238e      	movs	r3, #142	@ 0x8e
10008d1e:	005b      	lsls	r3, r3, #1
10008d20:	58d3      	ldr	r3, [r2, r3]
10008d22:	2001      	movs	r0, #1
10008d24:	4798      	blx	r3
10008d26:	e02c      	b.n	10008d82 <w25qxx_WriteStatus+0x212>
10008d28:	687a      	ldr	r2, [r7, #4]
10008d2a:	238e      	movs	r3, #142	@ 0x8e
10008d2c:	005b      	lsls	r3, r3, #1
10008d2e:	58d3      	ldr	r3, [r2, r3]
10008d30:	2001      	movs	r0, #1
10008d32:	4798      	blx	r3
10008d34:	1cbb      	adds	r3, r7, #2
10008d36:	781b      	ldrb	r3, [r3, #0]
10008d38:	2b01      	cmp	r3, #1
10008d3a:	d019      	beq.n	10008d70 <w25qxx_WriteStatus+0x200>
10008d3c:	687b      	ldr	r3, [r7, #4]
10008d3e:	210f      	movs	r1, #15
10008d40:	0018      	movs	r0, r3
10008d42:	f000 f821 	bl	10008d88 <w25qxx_WaitWithTimeout>
10008d46:	0003      	movs	r3, r0
10008d48:	2b02      	cmp	r3, #2
10008d4a:	d011      	beq.n	10008d70 <w25qxx_WriteStatus+0x200>
10008d4c:	687a      	ldr	r2, [r7, #4]
10008d4e:	2314      	movs	r3, #20
10008d50:	33ff      	adds	r3, #255	@ 0xff
10008d52:	2106      	movs	r1, #6
10008d54:	54d1      	strb	r1, [r2, r3]
10008d56:	687a      	ldr	r2, [r7, #4]
10008d58:	238e      	movs	r3, #142	@ 0x8e
10008d5a:	005b      	lsls	r3, r3, #1
10008d5c:	58d3      	ldr	r3, [r2, r3]
10008d5e:	2b00      	cmp	r3, #0
10008d60:	d00f      	beq.n	10008d82 <w25qxx_WriteStatus+0x212>
10008d62:	687a      	ldr	r2, [r7, #4]
10008d64:	238e      	movs	r3, #142	@ 0x8e
10008d66:	005b      	lsls	r3, r3, #1
10008d68:	58d3      	ldr	r3, [r2, r3]
10008d6a:	2001      	movs	r0, #1
10008d6c:	4798      	blx	r3
10008d6e:	e008      	b.n	10008d82 <w25qxx_WriteStatus+0x212>
10008d70:	687a      	ldr	r2, [r7, #4]
10008d72:	2389      	movs	r3, #137	@ 0x89
10008d74:	005b      	lsls	r3, r3, #1
10008d76:	2102      	movs	r1, #2
10008d78:	54d1      	strb	r1, [r2, r3]
10008d7a:	e002      	b.n	10008d82 <w25qxx_WriteStatus+0x212>
10008d7c:	46c0      	nop			@ (mov r8, r8)
10008d7e:	e000      	b.n	10008d82 <w25qxx_WriteStatus+0x212>
10008d80:	46c0      	nop			@ (mov r8, r8)
10008d82:	46bd      	mov	sp, r7
10008d84:	b002      	add	sp, #8
10008d86:	bd80      	pop	{r7, pc}

10008d88 <w25qxx_WaitWithTimeout>:
10008d88:	b580      	push	{r7, lr}
10008d8a:	b084      	sub	sp, #16
10008d8c:	af00      	add	r7, sp, #0
10008d8e:	6078      	str	r0, [r7, #4]
10008d90:	6039      	str	r1, [r7, #0]
10008d92:	4b38      	ldr	r3, [pc, #224]	@ (10008e74 <w25qxx_WaitWithTimeout+0xec>)
10008d94:	681b      	ldr	r3, [r3, #0]
10008d96:	60fb      	str	r3, [r7, #12]
10008d98:	687b      	ldr	r3, [r7, #4]
10008d9a:	2b00      	cmp	r3, #0
10008d9c:	d101      	bne.n	10008da2 <w25qxx_WaitWithTimeout+0x1a>
10008d9e:	2308      	movs	r3, #8
10008da0:	e063      	b.n	10008e6a <w25qxx_WaitWithTimeout+0xe2>
10008da2:	687a      	ldr	r2, [r7, #4]
10008da4:	2314      	movs	r3, #20
10008da6:	33ff      	adds	r3, #255	@ 0xff
10008da8:	5cd3      	ldrb	r3, [r2, r3]
10008daa:	2b00      	cmp	r3, #0
10008dac:	d001      	beq.n	10008db2 <w25qxx_WaitWithTimeout+0x2a>
10008dae:	2308      	movs	r3, #8
10008db0:	e05b      	b.n	10008e6a <w25qxx_WaitWithTimeout+0xe2>
10008db2:	683b      	ldr	r3, [r7, #0]
10008db4:	2b00      	cmp	r3, #0
10008db6:	d101      	bne.n	10008dbc <w25qxx_WaitWithTimeout+0x34>
10008db8:	2308      	movs	r3, #8
10008dba:	e056      	b.n	10008e6a <w25qxx_WaitWithTimeout+0xe2>
10008dbc:	687b      	ldr	r3, [r7, #4]
10008dbe:	2205      	movs	r2, #5
10008dc0:	725a      	strb	r2, [r3, #9]
10008dc2:	687a      	ldr	r2, [r7, #4]
10008dc4:	238e      	movs	r3, #142	@ 0x8e
10008dc6:	005b      	lsls	r3, r3, #1
10008dc8:	58d3      	ldr	r3, [r2, r3]
10008dca:	2000      	movs	r0, #0
10008dcc:	4798      	blx	r3
10008dce:	687a      	ldr	r2, [r7, #4]
10008dd0:	238c      	movs	r3, #140	@ 0x8c
10008dd2:	005b      	lsls	r3, r3, #1
10008dd4:	58d3      	ldr	r3, [r2, r3]
10008dd6:	687a      	ldr	r2, [r7, #4]
10008dd8:	3209      	adds	r2, #9
10008dda:	0010      	movs	r0, r2
10008ddc:	2264      	movs	r2, #100	@ 0x64
10008dde:	2101      	movs	r1, #1
10008de0:	4798      	blx	r3
10008de2:	1e03      	subs	r3, r0, #0
10008de4:	d00c      	beq.n	10008e00 <w25qxx_WaitWithTimeout+0x78>
10008de6:	687a      	ldr	r2, [r7, #4]
10008de8:	2314      	movs	r3, #20
10008dea:	33ff      	adds	r3, #255	@ 0xff
10008dec:	2105      	movs	r1, #5
10008dee:	54d1      	strb	r1, [r2, r3]
10008df0:	687a      	ldr	r2, [r7, #4]
10008df2:	238e      	movs	r3, #142	@ 0x8e
10008df4:	005b      	lsls	r3, r3, #1
10008df6:	58d3      	ldr	r3, [r2, r3]
10008df8:	2001      	movs	r0, #1
10008dfa:	4798      	blx	r3
10008dfc:	2308      	movs	r3, #8
10008dfe:	e034      	b.n	10008e6a <w25qxx_WaitWithTimeout+0xe2>
10008e00:	687a      	ldr	r2, [r7, #4]
10008e02:	238a      	movs	r3, #138	@ 0x8a
10008e04:	005b      	lsls	r3, r3, #1
10008e06:	58d3      	ldr	r3, [r2, r3]
10008e08:	687a      	ldr	r2, [r7, #4]
10008e0a:	3208      	adds	r2, #8
10008e0c:	0010      	movs	r0, r2
10008e0e:	2264      	movs	r2, #100	@ 0x64
10008e10:	2101      	movs	r1, #1
10008e12:	4798      	blx	r3
10008e14:	1e03      	subs	r3, r0, #0
10008e16:	d00c      	beq.n	10008e32 <w25qxx_WaitWithTimeout+0xaa>
10008e18:	687a      	ldr	r2, [r7, #4]
10008e1a:	2314      	movs	r3, #20
10008e1c:	33ff      	adds	r3, #255	@ 0xff
10008e1e:	2105      	movs	r1, #5
10008e20:	54d1      	strb	r1, [r2, r3]
10008e22:	687a      	ldr	r2, [r7, #4]
10008e24:	238e      	movs	r3, #142	@ 0x8e
10008e26:	005b      	lsls	r3, r3, #1
10008e28:	58d3      	ldr	r3, [r2, r3]
10008e2a:	2001      	movs	r0, #1
10008e2c:	4798      	blx	r3
10008e2e:	2308      	movs	r3, #8
10008e30:	e01b      	b.n	10008e6a <w25qxx_WaitWithTimeout+0xe2>
10008e32:	687b      	ldr	r3, [r7, #4]
10008e34:	7a1b      	ldrb	r3, [r3, #8]
10008e36:	001a      	movs	r2, r3
10008e38:	2301      	movs	r3, #1
10008e3a:	4013      	ands	r3, r2
10008e3c:	d107      	bne.n	10008e4e <w25qxx_WaitWithTimeout+0xc6>
10008e3e:	687a      	ldr	r2, [r7, #4]
10008e40:	238e      	movs	r3, #142	@ 0x8e
10008e42:	005b      	lsls	r3, r3, #1
10008e44:	58d3      	ldr	r3, [r2, r3]
10008e46:	2001      	movs	r0, #1
10008e48:	4798      	blx	r3
10008e4a:	2302      	movs	r3, #2
10008e4c:	e00d      	b.n	10008e6a <w25qxx_WaitWithTimeout+0xe2>
10008e4e:	4b09      	ldr	r3, [pc, #36]	@ (10008e74 <w25qxx_WaitWithTimeout+0xec>)
10008e50:	681a      	ldr	r2, [r3, #0]
10008e52:	68fb      	ldr	r3, [r7, #12]
10008e54:	1ad3      	subs	r3, r2, r3
10008e56:	683a      	ldr	r2, [r7, #0]
10008e58:	429a      	cmp	r2, r3
10008e5a:	d2d1      	bcs.n	10008e00 <w25qxx_WaitWithTimeout+0x78>
10008e5c:	687a      	ldr	r2, [r7, #4]
10008e5e:	238e      	movs	r3, #142	@ 0x8e
10008e60:	005b      	lsls	r3, r3, #1
10008e62:	58d3      	ldr	r3, [r2, r3]
10008e64:	2001      	movs	r0, #1
10008e66:	4798      	blx	r3
10008e68:	2303      	movs	r3, #3
10008e6a:	0018      	movs	r0, r3
10008e6c:	46bd      	mov	sp, r7
10008e6e:	b004      	add	sp, #16
10008e70:	bd80      	pop	{r7, pc}
10008e72:	46c0      	nop			@ (mov r8, r8)
10008e74:	200009bc 	.word	0x200009bc

10008e78 <w25qxx_ResetError>:
10008e78:	b580      	push	{r7, lr}
10008e7a:	b082      	sub	sp, #8
10008e7c:	af00      	add	r7, sp, #0
10008e7e:	6078      	str	r0, [r7, #4]
10008e80:	687b      	ldr	r3, [r7, #4]
10008e82:	2b00      	cmp	r3, #0
10008e84:	d02a      	beq.n	10008edc <w25qxx_ResetError+0x64>
10008e86:	687a      	ldr	r2, [r7, #4]
10008e88:	2314      	movs	r3, #20
10008e8a:	33ff      	adds	r3, #255	@ 0xff
10008e8c:	5cd3      	ldrb	r3, [r2, r3]
10008e8e:	2b00      	cmp	r3, #0
10008e90:	d026      	beq.n	10008ee0 <w25qxx_ResetError+0x68>
10008e92:	687a      	ldr	r2, [r7, #4]
10008e94:	2314      	movs	r3, #20
10008e96:	33ff      	adds	r3, #255	@ 0xff
10008e98:	2100      	movs	r1, #0
10008e9a:	54d1      	strb	r1, [r2, r3]
10008e9c:	687b      	ldr	r3, [r7, #4]
10008e9e:	2164      	movs	r1, #100	@ 0x64
10008ea0:	0018      	movs	r0, r3
10008ea2:	f7ff ff71 	bl	10008d88 <w25qxx_WaitWithTimeout>
10008ea6:	0003      	movs	r3, r0
10008ea8:	2b02      	cmp	r3, #2
10008eaa:	d011      	beq.n	10008ed0 <w25qxx_ResetError+0x58>
10008eac:	687a      	ldr	r2, [r7, #4]
10008eae:	2314      	movs	r3, #20
10008eb0:	33ff      	adds	r3, #255	@ 0xff
10008eb2:	2106      	movs	r1, #6
10008eb4:	54d1      	strb	r1, [r2, r3]
10008eb6:	687a      	ldr	r2, [r7, #4]
10008eb8:	238e      	movs	r3, #142	@ 0x8e
10008eba:	005b      	lsls	r3, r3, #1
10008ebc:	58d3      	ldr	r3, [r2, r3]
10008ebe:	2b00      	cmp	r3, #0
10008ec0:	d00f      	beq.n	10008ee2 <w25qxx_ResetError+0x6a>
10008ec2:	687a      	ldr	r2, [r7, #4]
10008ec4:	238e      	movs	r3, #142	@ 0x8e
10008ec6:	005b      	lsls	r3, r3, #1
10008ec8:	58d3      	ldr	r3, [r2, r3]
10008eca:	2001      	movs	r0, #1
10008ecc:	4798      	blx	r3
10008ece:	e008      	b.n	10008ee2 <w25qxx_ResetError+0x6a>
10008ed0:	687a      	ldr	r2, [r7, #4]
10008ed2:	2389      	movs	r3, #137	@ 0x89
10008ed4:	005b      	lsls	r3, r3, #1
10008ed6:	2102      	movs	r1, #2
10008ed8:	54d1      	strb	r1, [r2, r3]
10008eda:	e002      	b.n	10008ee2 <w25qxx_ResetError+0x6a>
10008edc:	46c0      	nop			@ (mov r8, r8)
10008ede:	e000      	b.n	10008ee2 <w25qxx_ResetError+0x6a>
10008ee0:	46c0      	nop			@ (mov r8, r8)
10008ee2:	46bd      	mov	sp, r7
10008ee4:	b002      	add	sp, #8
10008ee6:	bd80      	pop	{r7, pc}

10008ee8 <w25qxx_ReleasePowerDown>:
10008ee8:	b580      	push	{r7, lr}
10008eea:	b082      	sub	sp, #8
10008eec:	af00      	add	r7, sp, #0
10008eee:	6078      	str	r0, [r7, #4]
10008ef0:	687b      	ldr	r3, [r7, #4]
10008ef2:	2b00      	cmp	r3, #0
10008ef4:	d039      	beq.n	10008f6a <w25qxx_ReleasePowerDown+0x82>
10008ef6:	687a      	ldr	r2, [r7, #4]
10008ef8:	2314      	movs	r3, #20
10008efa:	33ff      	adds	r3, #255	@ 0xff
10008efc:	5cd3      	ldrb	r3, [r2, r3]
10008efe:	2b00      	cmp	r3, #0
10008f00:	d135      	bne.n	10008f6e <w25qxx_ReleasePowerDown+0x86>
10008f02:	687b      	ldr	r3, [r7, #4]
10008f04:	22ab      	movs	r2, #171	@ 0xab
10008f06:	725a      	strb	r2, [r3, #9]
10008f08:	687a      	ldr	r2, [r7, #4]
10008f0a:	238e      	movs	r3, #142	@ 0x8e
10008f0c:	005b      	lsls	r3, r3, #1
10008f0e:	58d3      	ldr	r3, [r2, r3]
10008f10:	2000      	movs	r0, #0
10008f12:	4798      	blx	r3
10008f14:	687a      	ldr	r2, [r7, #4]
10008f16:	238c      	movs	r3, #140	@ 0x8c
10008f18:	005b      	lsls	r3, r3, #1
10008f1a:	58d3      	ldr	r3, [r2, r3]
10008f1c:	687a      	ldr	r2, [r7, #4]
10008f1e:	3209      	adds	r2, #9
10008f20:	0010      	movs	r0, r2
10008f22:	2264      	movs	r2, #100	@ 0x64
10008f24:	2101      	movs	r1, #1
10008f26:	4798      	blx	r3
10008f28:	1e03      	subs	r3, r0, #0
10008f2a:	d011      	beq.n	10008f50 <w25qxx_ReleasePowerDown+0x68>
10008f2c:	687a      	ldr	r2, [r7, #4]
10008f2e:	2314      	movs	r3, #20
10008f30:	33ff      	adds	r3, #255	@ 0xff
10008f32:	2105      	movs	r1, #5
10008f34:	54d1      	strb	r1, [r2, r3]
10008f36:	687a      	ldr	r2, [r7, #4]
10008f38:	238e      	movs	r3, #142	@ 0x8e
10008f3a:	005b      	lsls	r3, r3, #1
10008f3c:	58d3      	ldr	r3, [r2, r3]
10008f3e:	2b00      	cmp	r3, #0
10008f40:	d016      	beq.n	10008f70 <w25qxx_ReleasePowerDown+0x88>
10008f42:	687a      	ldr	r2, [r7, #4]
10008f44:	238e      	movs	r3, #142	@ 0x8e
10008f46:	005b      	lsls	r3, r3, #1
10008f48:	58d3      	ldr	r3, [r2, r3]
10008f4a:	2001      	movs	r0, #1
10008f4c:	4798      	blx	r3
10008f4e:	e00f      	b.n	10008f70 <w25qxx_ReleasePowerDown+0x88>
10008f50:	687a      	ldr	r2, [r7, #4]
10008f52:	238e      	movs	r3, #142	@ 0x8e
10008f54:	005b      	lsls	r3, r3, #1
10008f56:	58d3      	ldr	r3, [r2, r3]
10008f58:	2001      	movs	r0, #1
10008f5a:	4798      	blx	r3
10008f5c:	687a      	ldr	r2, [r7, #4]
10008f5e:	2390      	movs	r3, #144	@ 0x90
10008f60:	005b      	lsls	r3, r3, #1
10008f62:	58d3      	ldr	r3, [r2, r3]
10008f64:	2001      	movs	r0, #1
10008f66:	4798      	blx	r3
10008f68:	e002      	b.n	10008f70 <w25qxx_ReleasePowerDown+0x88>
10008f6a:	46c0      	nop			@ (mov r8, r8)
10008f6c:	e000      	b.n	10008f70 <w25qxx_ReleasePowerDown+0x88>
10008f6e:	46c0      	nop			@ (mov r8, r8)
10008f70:	46bd      	mov	sp, r7
10008f72:	b002      	add	sp, #8
10008f74:	bd80      	pop	{r7, pc}

10008f76 <w25qxx_ResetDevice>:
10008f76:	b580      	push	{r7, lr}
10008f78:	b082      	sub	sp, #8
10008f7a:	af00      	add	r7, sp, #0
10008f7c:	6078      	str	r0, [r7, #4]
10008f7e:	687b      	ldr	r3, [r7, #4]
10008f80:	2b00      	cmp	r3, #0
10008f82:	d066      	beq.n	10009052 <w25qxx_ResetDevice+0xdc>
10008f84:	687a      	ldr	r2, [r7, #4]
10008f86:	2314      	movs	r3, #20
10008f88:	33ff      	adds	r3, #255	@ 0xff
10008f8a:	5cd3      	ldrb	r3, [r2, r3]
10008f8c:	2b00      	cmp	r3, #0
10008f8e:	d162      	bne.n	10009056 <w25qxx_ResetDevice+0xe0>
10008f90:	687b      	ldr	r3, [r7, #4]
10008f92:	2266      	movs	r2, #102	@ 0x66
10008f94:	725a      	strb	r2, [r3, #9]
10008f96:	687a      	ldr	r2, [r7, #4]
10008f98:	238e      	movs	r3, #142	@ 0x8e
10008f9a:	005b      	lsls	r3, r3, #1
10008f9c:	58d3      	ldr	r3, [r2, r3]
10008f9e:	2000      	movs	r0, #0
10008fa0:	4798      	blx	r3
10008fa2:	687a      	ldr	r2, [r7, #4]
10008fa4:	238c      	movs	r3, #140	@ 0x8c
10008fa6:	005b      	lsls	r3, r3, #1
10008fa8:	58d3      	ldr	r3, [r2, r3]
10008faa:	687a      	ldr	r2, [r7, #4]
10008fac:	3209      	adds	r2, #9
10008fae:	0010      	movs	r0, r2
10008fb0:	2264      	movs	r2, #100	@ 0x64
10008fb2:	2101      	movs	r1, #1
10008fb4:	4798      	blx	r3
10008fb6:	1e03      	subs	r3, r0, #0
10008fb8:	d011      	beq.n	10008fde <w25qxx_ResetDevice+0x68>
10008fba:	687a      	ldr	r2, [r7, #4]
10008fbc:	2314      	movs	r3, #20
10008fbe:	33ff      	adds	r3, #255	@ 0xff
10008fc0:	2105      	movs	r1, #5
10008fc2:	54d1      	strb	r1, [r2, r3]
10008fc4:	687a      	ldr	r2, [r7, #4]
10008fc6:	238e      	movs	r3, #142	@ 0x8e
10008fc8:	005b      	lsls	r3, r3, #1
10008fca:	58d3      	ldr	r3, [r2, r3]
10008fcc:	2b00      	cmp	r3, #0
10008fce:	d043      	beq.n	10009058 <w25qxx_ResetDevice+0xe2>
10008fd0:	687a      	ldr	r2, [r7, #4]
10008fd2:	238e      	movs	r3, #142	@ 0x8e
10008fd4:	005b      	lsls	r3, r3, #1
10008fd6:	58d3      	ldr	r3, [r2, r3]
10008fd8:	2001      	movs	r0, #1
10008fda:	4798      	blx	r3
10008fdc:	e03c      	b.n	10009058 <w25qxx_ResetDevice+0xe2>
10008fde:	687a      	ldr	r2, [r7, #4]
10008fe0:	238e      	movs	r3, #142	@ 0x8e
10008fe2:	005b      	lsls	r3, r3, #1
10008fe4:	58d3      	ldr	r3, [r2, r3]
10008fe6:	2001      	movs	r0, #1
10008fe8:	4798      	blx	r3
10008fea:	687b      	ldr	r3, [r7, #4]
10008fec:	2299      	movs	r2, #153	@ 0x99
10008fee:	725a      	strb	r2, [r3, #9]
10008ff0:	687a      	ldr	r2, [r7, #4]
10008ff2:	238e      	movs	r3, #142	@ 0x8e
10008ff4:	005b      	lsls	r3, r3, #1
10008ff6:	58d3      	ldr	r3, [r2, r3]
10008ff8:	2000      	movs	r0, #0
10008ffa:	4798      	blx	r3
10008ffc:	687a      	ldr	r2, [r7, #4]
10008ffe:	238c      	movs	r3, #140	@ 0x8c
10009000:	005b      	lsls	r3, r3, #1
10009002:	58d3      	ldr	r3, [r2, r3]
10009004:	687a      	ldr	r2, [r7, #4]
10009006:	3209      	adds	r2, #9
10009008:	0010      	movs	r0, r2
1000900a:	2264      	movs	r2, #100	@ 0x64
1000900c:	2101      	movs	r1, #1
1000900e:	4798      	blx	r3
10009010:	1e03      	subs	r3, r0, #0
10009012:	d011      	beq.n	10009038 <w25qxx_ResetDevice+0xc2>
10009014:	687a      	ldr	r2, [r7, #4]
10009016:	2314      	movs	r3, #20
10009018:	33ff      	adds	r3, #255	@ 0xff
1000901a:	2105      	movs	r1, #5
1000901c:	54d1      	strb	r1, [r2, r3]
1000901e:	687a      	ldr	r2, [r7, #4]
10009020:	238e      	movs	r3, #142	@ 0x8e
10009022:	005b      	lsls	r3, r3, #1
10009024:	58d3      	ldr	r3, [r2, r3]
10009026:	2b00      	cmp	r3, #0
10009028:	d016      	beq.n	10009058 <w25qxx_ResetDevice+0xe2>
1000902a:	687a      	ldr	r2, [r7, #4]
1000902c:	238e      	movs	r3, #142	@ 0x8e
1000902e:	005b      	lsls	r3, r3, #1
10009030:	58d3      	ldr	r3, [r2, r3]
10009032:	2001      	movs	r0, #1
10009034:	4798      	blx	r3
10009036:	e00f      	b.n	10009058 <w25qxx_ResetDevice+0xe2>
10009038:	687a      	ldr	r2, [r7, #4]
1000903a:	238e      	movs	r3, #142	@ 0x8e
1000903c:	005b      	lsls	r3, r3, #1
1000903e:	58d3      	ldr	r3, [r2, r3]
10009040:	2001      	movs	r0, #1
10009042:	4798      	blx	r3
10009044:	687a      	ldr	r2, [r7, #4]
10009046:	2390      	movs	r3, #144	@ 0x90
10009048:	005b      	lsls	r3, r3, #1
1000904a:	58d3      	ldr	r3, [r2, r3]
1000904c:	2001      	movs	r0, #1
1000904e:	4798      	blx	r3
10009050:	e002      	b.n	10009058 <w25qxx_ResetDevice+0xe2>
10009052:	46c0      	nop			@ (mov r8, r8)
10009054:	e000      	b.n	10009058 <w25qxx_ResetDevice+0xe2>
10009056:	46c0      	nop			@ (mov r8, r8)
10009058:	46bd      	mov	sp, r7
1000905a:	b002      	add	sp, #8
1000905c:	bd80      	pop	{r7, pc}

1000905e <w25qxx_ReadID>:
1000905e:	b580      	push	{r7, lr}
10009060:	b082      	sub	sp, #8
10009062:	af00      	add	r7, sp, #0
10009064:	6078      	str	r0, [r7, #4]
10009066:	687b      	ldr	r3, [r7, #4]
10009068:	2b00      	cmp	r3, #0
1000906a:	d100      	bne.n	1000906e <w25qxx_ReadID+0x10>
1000906c:	e077      	b.n	1000915e <w25qxx_ReadID+0x100>
1000906e:	687a      	ldr	r2, [r7, #4]
10009070:	2314      	movs	r3, #20
10009072:	33ff      	adds	r3, #255	@ 0xff
10009074:	5cd3      	ldrb	r3, [r2, r3]
10009076:	2b00      	cmp	r3, #0
10009078:	d000      	beq.n	1000907c <w25qxx_ReadID+0x1e>
1000907a:	e072      	b.n	10009162 <w25qxx_ReadID+0x104>
1000907c:	687b      	ldr	r3, [r7, #4]
1000907e:	2290      	movs	r2, #144	@ 0x90
10009080:	725a      	strb	r2, [r3, #9]
10009082:	687a      	ldr	r2, [r7, #4]
10009084:	238e      	movs	r3, #142	@ 0x8e
10009086:	005b      	lsls	r3, r3, #1
10009088:	58d3      	ldr	r3, [r2, r3]
1000908a:	2000      	movs	r0, #0
1000908c:	4798      	blx	r3
1000908e:	687a      	ldr	r2, [r7, #4]
10009090:	238c      	movs	r3, #140	@ 0x8c
10009092:	005b      	lsls	r3, r3, #1
10009094:	58d3      	ldr	r3, [r2, r3]
10009096:	687a      	ldr	r2, [r7, #4]
10009098:	3209      	adds	r2, #9
1000909a:	0010      	movs	r0, r2
1000909c:	2264      	movs	r2, #100	@ 0x64
1000909e:	2101      	movs	r1, #1
100090a0:	4798      	blx	r3
100090a2:	1e03      	subs	r3, r0, #0
100090a4:	d011      	beq.n	100090ca <w25qxx_ReadID+0x6c>
100090a6:	687a      	ldr	r2, [r7, #4]
100090a8:	2314      	movs	r3, #20
100090aa:	33ff      	adds	r3, #255	@ 0xff
100090ac:	2105      	movs	r1, #5
100090ae:	54d1      	strb	r1, [r2, r3]
100090b0:	687a      	ldr	r2, [r7, #4]
100090b2:	238e      	movs	r3, #142	@ 0x8e
100090b4:	005b      	lsls	r3, r3, #1
100090b6:	58d3      	ldr	r3, [r2, r3]
100090b8:	2b00      	cmp	r3, #0
100090ba:	d053      	beq.n	10009164 <w25qxx_ReadID+0x106>
100090bc:	687a      	ldr	r2, [r7, #4]
100090be:	238e      	movs	r3, #142	@ 0x8e
100090c0:	005b      	lsls	r3, r3, #1
100090c2:	58d3      	ldr	r3, [r2, r3]
100090c4:	2001      	movs	r0, #1
100090c6:	4798      	blx	r3
100090c8:	e04c      	b.n	10009164 <w25qxx_ReadID+0x106>
100090ca:	687b      	ldr	r3, [r7, #4]
100090cc:	2200      	movs	r2, #0
100090ce:	729a      	strb	r2, [r3, #10]
100090d0:	687b      	ldr	r3, [r7, #4]
100090d2:	2200      	movs	r2, #0
100090d4:	72da      	strb	r2, [r3, #11]
100090d6:	687b      	ldr	r3, [r7, #4]
100090d8:	2200      	movs	r2, #0
100090da:	731a      	strb	r2, [r3, #12]
100090dc:	687a      	ldr	r2, [r7, #4]
100090de:	238c      	movs	r3, #140	@ 0x8c
100090e0:	005b      	lsls	r3, r3, #1
100090e2:	58d3      	ldr	r3, [r2, r3]
100090e4:	687a      	ldr	r2, [r7, #4]
100090e6:	320a      	adds	r2, #10
100090e8:	0010      	movs	r0, r2
100090ea:	2264      	movs	r2, #100	@ 0x64
100090ec:	2103      	movs	r1, #3
100090ee:	4798      	blx	r3
100090f0:	1e03      	subs	r3, r0, #0
100090f2:	d011      	beq.n	10009118 <w25qxx_ReadID+0xba>
100090f4:	687a      	ldr	r2, [r7, #4]
100090f6:	2314      	movs	r3, #20
100090f8:	33ff      	adds	r3, #255	@ 0xff
100090fa:	2105      	movs	r1, #5
100090fc:	54d1      	strb	r1, [r2, r3]
100090fe:	687a      	ldr	r2, [r7, #4]
10009100:	238e      	movs	r3, #142	@ 0x8e
10009102:	005b      	lsls	r3, r3, #1
10009104:	58d3      	ldr	r3, [r2, r3]
10009106:	2b00      	cmp	r3, #0
10009108:	d02c      	beq.n	10009164 <w25qxx_ReadID+0x106>
1000910a:	687a      	ldr	r2, [r7, #4]
1000910c:	238e      	movs	r3, #142	@ 0x8e
1000910e:	005b      	lsls	r3, r3, #1
10009110:	58d3      	ldr	r3, [r2, r3]
10009112:	2001      	movs	r0, #1
10009114:	4798      	blx	r3
10009116:	e025      	b.n	10009164 <w25qxx_ReadID+0x106>
10009118:	687a      	ldr	r2, [r7, #4]
1000911a:	238a      	movs	r3, #138	@ 0x8a
1000911c:	005b      	lsls	r3, r3, #1
1000911e:	58d3      	ldr	r3, [r2, r3]
10009120:	6878      	ldr	r0, [r7, #4]
10009122:	2264      	movs	r2, #100	@ 0x64
10009124:	2102      	movs	r1, #2
10009126:	4798      	blx	r3
10009128:	1e03      	subs	r3, r0, #0
1000912a:	d011      	beq.n	10009150 <w25qxx_ReadID+0xf2>
1000912c:	687a      	ldr	r2, [r7, #4]
1000912e:	2314      	movs	r3, #20
10009130:	33ff      	adds	r3, #255	@ 0xff
10009132:	2105      	movs	r1, #5
10009134:	54d1      	strb	r1, [r2, r3]
10009136:	687a      	ldr	r2, [r7, #4]
10009138:	238e      	movs	r3, #142	@ 0x8e
1000913a:	005b      	lsls	r3, r3, #1
1000913c:	58d3      	ldr	r3, [r2, r3]
1000913e:	2b00      	cmp	r3, #0
10009140:	d010      	beq.n	10009164 <w25qxx_ReadID+0x106>
10009142:	687a      	ldr	r2, [r7, #4]
10009144:	238e      	movs	r3, #142	@ 0x8e
10009146:	005b      	lsls	r3, r3, #1
10009148:	58d3      	ldr	r3, [r2, r3]
1000914a:	2001      	movs	r0, #1
1000914c:	4798      	blx	r3
1000914e:	e009      	b.n	10009164 <w25qxx_ReadID+0x106>
10009150:	687a      	ldr	r2, [r7, #4]
10009152:	238e      	movs	r3, #142	@ 0x8e
10009154:	005b      	lsls	r3, r3, #1
10009156:	58d3      	ldr	r3, [r2, r3]
10009158:	2001      	movs	r0, #1
1000915a:	4798      	blx	r3
1000915c:	e002      	b.n	10009164 <w25qxx_ReadID+0x106>
1000915e:	46c0      	nop			@ (mov r8, r8)
10009160:	e000      	b.n	10009164 <w25qxx_ReadID+0x106>
10009162:	46c0      	nop			@ (mov r8, r8)
10009164:	46bd      	mov	sp, r7
10009166:	b002      	add	sp, #8
10009168:	bd80      	pop	{r7, pc}

1000916a <w25qxx_WriteEnable>:
1000916a:	b580      	push	{r7, lr}
1000916c:	b082      	sub	sp, #8
1000916e:	af00      	add	r7, sp, #0
10009170:	6078      	str	r0, [r7, #4]
10009172:	687b      	ldr	r3, [r7, #4]
10009174:	2b00      	cmp	r3, #0
10009176:	d033      	beq.n	100091e0 <w25qxx_WriteEnable+0x76>
10009178:	687a      	ldr	r2, [r7, #4]
1000917a:	2314      	movs	r3, #20
1000917c:	33ff      	adds	r3, #255	@ 0xff
1000917e:	5cd3      	ldrb	r3, [r2, r3]
10009180:	2b00      	cmp	r3, #0
10009182:	d12f      	bne.n	100091e4 <w25qxx_WriteEnable+0x7a>
10009184:	687b      	ldr	r3, [r7, #4]
10009186:	2206      	movs	r2, #6
10009188:	725a      	strb	r2, [r3, #9]
1000918a:	687a      	ldr	r2, [r7, #4]
1000918c:	238e      	movs	r3, #142	@ 0x8e
1000918e:	005b      	lsls	r3, r3, #1
10009190:	58d3      	ldr	r3, [r2, r3]
10009192:	2000      	movs	r0, #0
10009194:	4798      	blx	r3
10009196:	687a      	ldr	r2, [r7, #4]
10009198:	238c      	movs	r3, #140	@ 0x8c
1000919a:	005b      	lsls	r3, r3, #1
1000919c:	58d3      	ldr	r3, [r2, r3]
1000919e:	687a      	ldr	r2, [r7, #4]
100091a0:	3209      	adds	r2, #9
100091a2:	0010      	movs	r0, r2
100091a4:	2264      	movs	r2, #100	@ 0x64
100091a6:	2101      	movs	r1, #1
100091a8:	4798      	blx	r3
100091aa:	1e03      	subs	r3, r0, #0
100091ac:	d011      	beq.n	100091d2 <w25qxx_WriteEnable+0x68>
100091ae:	687a      	ldr	r2, [r7, #4]
100091b0:	2314      	movs	r3, #20
100091b2:	33ff      	adds	r3, #255	@ 0xff
100091b4:	2105      	movs	r1, #5
100091b6:	54d1      	strb	r1, [r2, r3]
100091b8:	687a      	ldr	r2, [r7, #4]
100091ba:	238e      	movs	r3, #142	@ 0x8e
100091bc:	005b      	lsls	r3, r3, #1
100091be:	58d3      	ldr	r3, [r2, r3]
100091c0:	2b00      	cmp	r3, #0
100091c2:	d010      	beq.n	100091e6 <w25qxx_WriteEnable+0x7c>
100091c4:	687a      	ldr	r2, [r7, #4]
100091c6:	238e      	movs	r3, #142	@ 0x8e
100091c8:	005b      	lsls	r3, r3, #1
100091ca:	58d3      	ldr	r3, [r2, r3]
100091cc:	2001      	movs	r0, #1
100091ce:	4798      	blx	r3
100091d0:	e009      	b.n	100091e6 <w25qxx_WriteEnable+0x7c>
100091d2:	687a      	ldr	r2, [r7, #4]
100091d4:	238e      	movs	r3, #142	@ 0x8e
100091d6:	005b      	lsls	r3, r3, #1
100091d8:	58d3      	ldr	r3, [r2, r3]
100091da:	2001      	movs	r0, #1
100091dc:	4798      	blx	r3
100091de:	e002      	b.n	100091e6 <w25qxx_WriteEnable+0x7c>
100091e0:	46c0      	nop			@ (mov r8, r8)
100091e2:	e000      	b.n	100091e6 <w25qxx_WriteEnable+0x7c>
100091e4:	46c0      	nop			@ (mov r8, r8)
100091e6:	46bd      	mov	sp, r7
100091e8:	b002      	add	sp, #8
100091ea:	bd80      	pop	{r7, pc}

100091ec <ModBus_CRC>:
100091ec:	b580      	push	{r7, lr}
100091ee:	b084      	sub	sp, #16
100091f0:	af00      	add	r7, sp, #0
100091f2:	6078      	str	r0, [r7, #4]
100091f4:	000a      	movs	r2, r1
100091f6:	1cbb      	adds	r3, r7, #2
100091f8:	801a      	strh	r2, [r3, #0]
100091fa:	230e      	movs	r3, #14
100091fc:	18fb      	adds	r3, r7, r3
100091fe:	2201      	movs	r2, #1
10009200:	4252      	negs	r2, r2
10009202:	801a      	strh	r2, [r3, #0]
10009204:	230c      	movs	r3, #12
10009206:	18fb      	adds	r3, r7, r3
10009208:	2200      	movs	r2, #0
1000920a:	801a      	strh	r2, [r3, #0]
1000920c:	e037      	b.n	1000927e <ModBus_CRC+0x92>
1000920e:	230c      	movs	r3, #12
10009210:	18fb      	adds	r3, r7, r3
10009212:	881b      	ldrh	r3, [r3, #0]
10009214:	687a      	ldr	r2, [r7, #4]
10009216:	18d3      	adds	r3, r2, r3
10009218:	781b      	ldrb	r3, [r3, #0]
1000921a:	0019      	movs	r1, r3
1000921c:	220e      	movs	r2, #14
1000921e:	18bb      	adds	r3, r7, r2
10009220:	18ba      	adds	r2, r7, r2
10009222:	8812      	ldrh	r2, [r2, #0]
10009224:	404a      	eors	r2, r1
10009226:	801a      	strh	r2, [r3, #0]
10009228:	230a      	movs	r3, #10
1000922a:	18fb      	adds	r3, r7, r3
1000922c:	2200      	movs	r2, #0
1000922e:	801a      	strh	r2, [r3, #0]
10009230:	e01a      	b.n	10009268 <ModBus_CRC+0x7c>
10009232:	210e      	movs	r1, #14
10009234:	187b      	adds	r3, r7, r1
10009236:	881b      	ldrh	r3, [r3, #0]
10009238:	2201      	movs	r2, #1
1000923a:	4013      	ands	r3, r2
1000923c:	d008      	beq.n	10009250 <ModBus_CRC+0x64>
1000923e:	187b      	adds	r3, r7, r1
10009240:	881b      	ldrh	r3, [r3, #0]
10009242:	085b      	lsrs	r3, r3, #1
10009244:	b29a      	uxth	r2, r3
10009246:	187b      	adds	r3, r7, r1
10009248:	4914      	ldr	r1, [pc, #80]	@ (1000929c <ModBus_CRC+0xb0>)
1000924a:	404a      	eors	r2, r1
1000924c:	801a      	strh	r2, [r3, #0]
1000924e:	e005      	b.n	1000925c <ModBus_CRC+0x70>
10009250:	220e      	movs	r2, #14
10009252:	18bb      	adds	r3, r7, r2
10009254:	18ba      	adds	r2, r7, r2
10009256:	8812      	ldrh	r2, [r2, #0]
10009258:	0852      	lsrs	r2, r2, #1
1000925a:	801a      	strh	r2, [r3, #0]
1000925c:	210a      	movs	r1, #10
1000925e:	187b      	adds	r3, r7, r1
10009260:	881a      	ldrh	r2, [r3, #0]
10009262:	187b      	adds	r3, r7, r1
10009264:	3201      	adds	r2, #1
10009266:	801a      	strh	r2, [r3, #0]
10009268:	230a      	movs	r3, #10
1000926a:	18fb      	adds	r3, r7, r3
1000926c:	881b      	ldrh	r3, [r3, #0]
1000926e:	2b07      	cmp	r3, #7
10009270:	d9df      	bls.n	10009232 <ModBus_CRC+0x46>
10009272:	210c      	movs	r1, #12
10009274:	187b      	adds	r3, r7, r1
10009276:	881a      	ldrh	r2, [r3, #0]
10009278:	187b      	adds	r3, r7, r1
1000927a:	3201      	adds	r2, #1
1000927c:	801a      	strh	r2, [r3, #0]
1000927e:	230c      	movs	r3, #12
10009280:	18fa      	adds	r2, r7, r3
10009282:	1cbb      	adds	r3, r7, #2
10009284:	8812      	ldrh	r2, [r2, #0]
10009286:	881b      	ldrh	r3, [r3, #0]
10009288:	429a      	cmp	r2, r3
1000928a:	d3c0      	bcc.n	1000920e <ModBus_CRC+0x22>
1000928c:	230e      	movs	r3, #14
1000928e:	18fb      	adds	r3, r7, r3
10009290:	881b      	ldrh	r3, [r3, #0]
10009292:	0018      	movs	r0, r3
10009294:	46bd      	mov	sp, r7
10009296:	b004      	add	sp, #16
10009298:	bd80      	pop	{r7, pc}
1000929a:	46c0      	nop			@ (mov r8, r8)
1000929c:	ffffa001 	.word	0xffffa001

100092a0 <memcmp>:
100092a0:	b530      	push	{r4, r5, lr}
100092a2:	2a03      	cmp	r2, #3
100092a4:	d91a      	bls.n	100092dc <memcmp+0x3c>
100092a6:	000b      	movs	r3, r1
100092a8:	4303      	orrs	r3, r0
100092aa:	079b      	lsls	r3, r3, #30
100092ac:	d011      	beq.n	100092d2 <memcmp+0x32>
100092ae:	1e55      	subs	r5, r2, #1
100092b0:	2300      	movs	r3, #0
100092b2:	e003      	b.n	100092bc <memcmp+0x1c>
100092b4:	1c5a      	adds	r2, r3, #1
100092b6:	429d      	cmp	r5, r3
100092b8:	d013      	beq.n	100092e2 <memcmp+0x42>
100092ba:	0013      	movs	r3, r2
100092bc:	5cc2      	ldrb	r2, [r0, r3]
100092be:	5ccc      	ldrb	r4, [r1, r3]
100092c0:	42a2      	cmp	r2, r4
100092c2:	d0f7      	beq.n	100092b4 <memcmp+0x14>
100092c4:	1b10      	subs	r0, r2, r4
100092c6:	e00d      	b.n	100092e4 <memcmp+0x44>
100092c8:	3a04      	subs	r2, #4
100092ca:	3004      	adds	r0, #4
100092cc:	3104      	adds	r1, #4
100092ce:	2a03      	cmp	r2, #3
100092d0:	d904      	bls.n	100092dc <memcmp+0x3c>
100092d2:	6804      	ldr	r4, [r0, #0]
100092d4:	680b      	ldr	r3, [r1, #0]
100092d6:	429c      	cmp	r4, r3
100092d8:	d0f6      	beq.n	100092c8 <memcmp+0x28>
100092da:	e7e8      	b.n	100092ae <memcmp+0xe>
100092dc:	1e55      	subs	r5, r2, #1
100092de:	2a00      	cmp	r2, #0
100092e0:	d1e6      	bne.n	100092b0 <memcmp+0x10>
100092e2:	2000      	movs	r0, #0
100092e4:	bd30      	pop	{r4, r5, pc}
100092e6:	46c0      	nop			@ (mov r8, r8)

100092e8 <strlen>:
100092e8:	b510      	push	{r4, lr}
100092ea:	0783      	lsls	r3, r0, #30
100092ec:	d00a      	beq.n	10009304 <strlen+0x1c>
100092ee:	0003      	movs	r3, r0
100092f0:	2103      	movs	r1, #3
100092f2:	e002      	b.n	100092fa <strlen+0x12>
100092f4:	3301      	adds	r3, #1
100092f6:	420b      	tst	r3, r1
100092f8:	d005      	beq.n	10009306 <strlen+0x1e>
100092fa:	781a      	ldrb	r2, [r3, #0]
100092fc:	2a00      	cmp	r2, #0
100092fe:	d1f9      	bne.n	100092f4 <strlen+0xc>
10009300:	1a18      	subs	r0, r3, r0
10009302:	bd10      	pop	{r4, pc}
10009304:	0003      	movs	r3, r0
10009306:	6819      	ldr	r1, [r3, #0]
10009308:	4a0c      	ldr	r2, [pc, #48]	@ (1000933c <strlen+0x54>)
1000930a:	4c0d      	ldr	r4, [pc, #52]	@ (10009340 <strlen+0x58>)
1000930c:	188a      	adds	r2, r1, r2
1000930e:	438a      	bics	r2, r1
10009310:	4222      	tst	r2, r4
10009312:	d10f      	bne.n	10009334 <strlen+0x4c>
10009314:	6859      	ldr	r1, [r3, #4]
10009316:	4a09      	ldr	r2, [pc, #36]	@ (1000933c <strlen+0x54>)
10009318:	3304      	adds	r3, #4
1000931a:	188a      	adds	r2, r1, r2
1000931c:	438a      	bics	r2, r1
1000931e:	4222      	tst	r2, r4
10009320:	d108      	bne.n	10009334 <strlen+0x4c>
10009322:	6859      	ldr	r1, [r3, #4]
10009324:	4a05      	ldr	r2, [pc, #20]	@ (1000933c <strlen+0x54>)
10009326:	3304      	adds	r3, #4
10009328:	188a      	adds	r2, r1, r2
1000932a:	438a      	bics	r2, r1
1000932c:	4222      	tst	r2, r4
1000932e:	d0f1      	beq.n	10009314 <strlen+0x2c>
10009330:	e000      	b.n	10009334 <strlen+0x4c>
10009332:	3301      	adds	r3, #1
10009334:	781a      	ldrb	r2, [r3, #0]
10009336:	2a00      	cmp	r2, #0
10009338:	d1fb      	bne.n	10009332 <strlen+0x4a>
1000933a:	e7e1      	b.n	10009300 <strlen+0x18>
1000933c:	fefefeff 	.word	0xfefefeff
10009340:	80808080 	.word	0x80808080

10009344 <_fini>:
10009344:	b5f8      	push	{r3, r4, r5, r6, r7, lr}
10009346:	46c0      	nop			@ (mov r8, r8)

10009348 <__spi_read_blocking_veneer>:
10009348:	b401      	push	{r0}
1000934a:	4802      	ldr	r0, [pc, #8]	@ (10009354 <__spi_read_blocking_veneer+0xc>)
1000934c:	4684      	mov	ip, r0
1000934e:	bc01      	pop	{r0}
10009350:	4760      	bx	ip
10009352:	bf00      	nop
10009354:	2000040d 	.word	0x2000040d

10009358 <__mutex_exit_veneer>:
10009358:	b401      	push	{r0}
1000935a:	4802      	ldr	r0, [pc, #8]	@ (10009364 <__mutex_exit_veneer+0xc>)
1000935c:	4684      	mov	ip, r0
1000935e:	bc01      	pop	{r0}
10009360:	4760      	bx	ip
10009362:	bf00      	nop
10009364:	200002c1 	.word	0x200002c1

10009368 <____aeabi_ldiv0_veneer>:
10009368:	b401      	push	{r0}
1000936a:	4802      	ldr	r0, [pc, #8]	@ (10009374 <____aeabi_ldiv0_veneer+0xc>)
1000936c:	4684      	mov	ip, r0
1000936e:	bc01      	pop	{r0}
10009370:	4760      	bx	ip
10009372:	bf00      	nop
10009374:	200004a9 	.word	0x200004a9

10009378 <____aeabi_idiv0_veneer>:
10009378:	b401      	push	{r0}
1000937a:	4802      	ldr	r0, [pc, #8]	@ (10009384 <____aeabi_idiv0_veneer+0xc>)
1000937c:	4684      	mov	ip, r0
1000937e:	bc01      	pop	{r0}
10009380:	4760      	bx	ip
10009382:	bf00      	nop
10009384:	200004a9 	.word	0x200004a9

10009388 <__spi_write_blocking_veneer>:
10009388:	b401      	push	{r0}
1000938a:	4802      	ldr	r0, [pc, #8]	@ (10009394 <__spi_write_blocking_veneer+0xc>)
1000938c:	4684      	mov	ip, r0
1000938e:	bc01      	pop	{r0}
10009390:	4760      	bx	ip
10009392:	bf00      	nop
10009394:	2000035d 	.word	0x2000035d

10009398 <__mutex_try_enter_block_until_veneer>:
10009398:	b401      	push	{r0}
1000939a:	4802      	ldr	r0, [pc, #8]	@ (100093a4 <__mutex_try_enter_block_until_veneer+0xc>)
1000939c:	4684      	mov	ip, r0
1000939e:	bc01      	pop	{r0}
100093a0:	4760      	bx	ip
100093a2:	bf00      	nop
100093a4:	20000173 	.word	0x20000173

Disassembly of section .data:

200000c0 <mutex_try_enter>:
200000c0:	b580      	push	{r7, lr}
200000c2:	b08c      	sub	sp, #48	@ 0x30
200000c4:	af00      	add	r7, sp, #0
200000c6:	6078      	str	r0, [r7, #4]
200000c8:	6039      	str	r1, [r7, #0]
200000ca:	687b      	ldr	r3, [r7, #4]
200000cc:	681b      	ldr	r3, [r3, #0]
200000ce:	627b      	str	r3, [r7, #36]	@ 0x24
200000d0:	f3ef 8310 	mrs	r3, PRIMASK
200000d4:	b672      	cpsid	i
200000d6:	623b      	str	r3, [r7, #32]
200000d8:	6a3b      	ldr	r3, [r7, #32]
200000da:	61fb      	str	r3, [r7, #28]
200000dc:	6a7b      	ldr	r3, [r7, #36]	@ 0x24
200000de:	61bb      	str	r3, [r7, #24]
200000e0:	46c0      	nop			@ (mov r8, r8)
200000e2:	69bb      	ldr	r3, [r7, #24]
200000e4:	681b      	ldr	r3, [r3, #0]
200000e6:	425a      	negs	r2, r3
200000e8:	4153      	adcs	r3, r2
200000ea:	b2db      	uxtb	r3, r3
200000ec:	2b00      	cmp	r3, #0
200000ee:	d1f8      	bne.n	200000e2 <mutex_try_enter+0x22>
200000f0:	f3bf 8f5f 	dmb	sy
200000f4:	46c0      	nop			@ (mov r8, r8)
200000f6:	46c0      	nop			@ (mov r8, r8)
200000f8:	46c0      	nop			@ (mov r8, r8)
200000fa:	69fb      	ldr	r3, [r7, #28]
200000fc:	62bb      	str	r3, [r7, #40]	@ 0x28
200000fe:	687b      	ldr	r3, [r7, #4]
20000100:	791b      	ldrb	r3, [r3, #4]
20000102:	b25b      	sxtb	r3, r3
20000104:	2b00      	cmp	r3, #0
20000106:	da0a      	bge.n	2000011e <mutex_try_enter+0x5e>
20000108:	23d0      	movs	r3, #208	@ 0xd0
2000010a:	061b      	lsls	r3, r3, #24
2000010c:	681b      	ldr	r3, [r3, #0]
2000010e:	b25a      	sxtb	r2, r3
20000110:	687b      	ldr	r3, [r7, #4]
20000112:	711a      	strb	r2, [r3, #4]
20000114:	232f      	movs	r3, #47	@ 0x2f
20000116:	18fb      	adds	r3, r7, r3
20000118:	2201      	movs	r2, #1
2000011a:	701a      	strb	r2, [r3, #0]
2000011c:	e00c      	b.n	20000138 <mutex_try_enter+0x78>
2000011e:	683b      	ldr	r3, [r7, #0]
20000120:	2b00      	cmp	r3, #0
20000122:	d005      	beq.n	20000130 <mutex_try_enter+0x70>
20000124:	687b      	ldr	r3, [r7, #4]
20000126:	791b      	ldrb	r3, [r3, #4]
20000128:	b25b      	sxtb	r3, r3
2000012a:	001a      	movs	r2, r3
2000012c:	683b      	ldr	r3, [r7, #0]
2000012e:	601a      	str	r2, [r3, #0]
20000130:	232f      	movs	r3, #47	@ 0x2f
20000132:	18fb      	adds	r3, r7, r3
20000134:	2200      	movs	r2, #0
20000136:	701a      	strb	r2, [r3, #0]
20000138:	687b      	ldr	r3, [r7, #4]
2000013a:	681b      	ldr	r3, [r3, #0]
2000013c:	617b      	str	r3, [r7, #20]
2000013e:	6abb      	ldr	r3, [r7, #40]	@ 0x28
20000140:	613b      	str	r3, [r7, #16]
20000142:	697b      	ldr	r3, [r7, #20]
20000144:	60fb      	str	r3, [r7, #12]
20000146:	f3bf 8f5f 	dmb	sy
2000014a:	46c0      	nop			@ (mov r8, r8)
2000014c:	46c0      	nop			@ (mov r8, r8)
2000014e:	68fb      	ldr	r3, [r7, #12]
20000150:	2200      	movs	r2, #0
20000152:	601a      	str	r2, [r3, #0]
20000154:	46c0      	nop			@ (mov r8, r8)
20000156:	693b      	ldr	r3, [r7, #16]
20000158:	60bb      	str	r3, [r7, #8]
2000015a:	68bb      	ldr	r3, [r7, #8]
2000015c:	f383 8810 	msr	PRIMASK, r3
20000160:	46c0      	nop			@ (mov r8, r8)
20000162:	46c0      	nop			@ (mov r8, r8)
20000164:	232f      	movs	r3, #47	@ 0x2f
20000166:	18fb      	adds	r3, r7, r3
20000168:	781b      	ldrb	r3, [r3, #0]
2000016a:	0018      	movs	r0, r3
2000016c:	46bd      	mov	sp, r7
2000016e:	b00c      	add	sp, #48	@ 0x30
20000170:	bd80      	pop	{r7, pc}

20000172 <mutex_try_enter_block_until>:
20000172:	b580      	push	{r7, lr}
20000174:	b086      	sub	sp, #24
20000176:	af00      	add	r7, sp, #0
20000178:	60f8      	str	r0, [r7, #12]
2000017a:	603a      	str	r2, [r7, #0]
2000017c:	607b      	str	r3, [r7, #4]
2000017e:	2314      	movs	r3, #20
20000180:	18fa      	adds	r2, r7, r3
20000182:	68fb      	ldr	r3, [r7, #12]
20000184:	0011      	movs	r1, r2
20000186:	0018      	movs	r0, r3
20000188:	f7ff ff9a 	bl	200000c0 <mutex_try_enter>
2000018c:	0003      	movs	r3, r0
2000018e:	001a      	movs	r2, r3
20000190:	2301      	movs	r3, #1
20000192:	4053      	eors	r3, r2
20000194:	b2db      	uxtb	r3, r3
20000196:	2b00      	cmp	r3, #0
20000198:	d011      	beq.n	200001be <mutex_try_enter_block_until+0x4c>
2000019a:	697b      	ldr	r3, [r7, #20]
2000019c:	b25a      	sxtb	r2, r3
2000019e:	23d0      	movs	r3, #208	@ 0xd0
200001a0:	061b      	lsls	r3, r3, #24
200001a2:	681b      	ldr	r3, [r3, #0]
200001a4:	b25b      	sxtb	r3, r3
200001a6:	429a      	cmp	r2, r3
200001a8:	d101      	bne.n	200001ae <mutex_try_enter_block_until+0x3c>
200001aa:	2300      	movs	r3, #0
200001ac:	e008      	b.n	200001c0 <mutex_try_enter_block_until+0x4e>
200001ae:	683a      	ldr	r2, [r7, #0]
200001b0:	687b      	ldr	r3, [r7, #4]
200001b2:	68f9      	ldr	r1, [r7, #12]
200001b4:	0008      	movs	r0, r1
200001b6:	f000 f807 	bl	200001c8 <mutex_enter_block_until>
200001ba:	0003      	movs	r3, r0
200001bc:	e000      	b.n	200001c0 <mutex_try_enter_block_until+0x4e>
200001be:	2301      	movs	r3, #1
200001c0:	0018      	movs	r0, r3
200001c2:	46bd      	mov	sp, r7
200001c4:	b006      	add	sp, #24
200001c6:	bd80      	pop	{r7, pc}

200001c8 <mutex_enter_block_until>:
200001c8:	b580      	push	{r7, lr}
200001ca:	b092      	sub	sp, #72	@ 0x48
200001cc:	af00      	add	r7, sp, #0
200001ce:	60f8      	str	r0, [r7, #12]
200001d0:	603a      	str	r2, [r7, #0]
200001d2:	607b      	str	r3, [r7, #4]
200001d4:	68fb      	ldr	r3, [r7, #12]
200001d6:	681b      	ldr	r3, [r3, #0]
200001d8:	2b00      	cmp	r3, #0
200001da:	d105      	bne.n	200001e8 <mutex_enter_block_until+0x20>
200001dc:	4b35      	ldr	r3, [pc, #212]	@ (200002b4 <mutex_enter_block_until+0xec>)
200001de:	4a36      	ldr	r2, [pc, #216]	@ (200002b8 <mutex_enter_block_until+0xf0>)
200001e0:	4836      	ldr	r0, [pc, #216]	@ (200002bc <mutex_enter_block_until+0xf4>)
200001e2:	2185      	movs	r1, #133	@ 0x85
200001e4:	f000 f96c 	bl	200004c0 <____assert_func_veneer>
200001e8:	23d0      	movs	r3, #208	@ 0xd0
200001ea:	061b      	lsls	r3, r3, #24
200001ec:	681a      	ldr	r2, [r3, #0]
200001ee:	2347      	movs	r3, #71	@ 0x47
200001f0:	18fb      	adds	r3, r7, r3
200001f2:	701a      	strb	r2, [r3, #0]
200001f4:	68fb      	ldr	r3, [r7, #12]
200001f6:	681b      	ldr	r3, [r3, #0]
200001f8:	63fb      	str	r3, [r7, #60]	@ 0x3c
200001fa:	f3ef 8310 	mrs	r3, PRIMASK
200001fe:	b672      	cpsid	i
20000200:	63bb      	str	r3, [r7, #56]	@ 0x38
20000202:	6bbb      	ldr	r3, [r7, #56]	@ 0x38
20000204:	637b      	str	r3, [r7, #52]	@ 0x34
20000206:	6bfb      	ldr	r3, [r7, #60]	@ 0x3c
20000208:	633b      	str	r3, [r7, #48]	@ 0x30
2000020a:	46c0      	nop			@ (mov r8, r8)
2000020c:	6b3b      	ldr	r3, [r7, #48]	@ 0x30
2000020e:	681b      	ldr	r3, [r3, #0]
20000210:	425a      	negs	r2, r3
20000212:	4153      	adcs	r3, r2
20000214:	b2db      	uxtb	r3, r3
20000216:	2b00      	cmp	r3, #0
20000218:	d1f8      	bne.n	2000020c <mutex_enter_block_until+0x44>
2000021a:	f3bf 8f5f 	dmb	sy
2000021e:	46c0      	nop			@ (mov r8, r8)
20000220:	46c0      	nop			@ (mov r8, r8)
20000222:	46c0      	nop			@ (mov r8, r8)
20000224:	6b7b      	ldr	r3, [r7, #52]	@ 0x34
20000226:	643b      	str	r3, [r7, #64]	@ 0x40
20000228:	68fb      	ldr	r3, [r7, #12]
2000022a:	791b      	ldrb	r3, [r3, #4]
2000022c:	b25b      	sxtb	r3, r3
2000022e:	2b00      	cmp	r3, #0
20000230:	da1c      	bge.n	2000026c <mutex_enter_block_until+0xa4>
20000232:	68fb      	ldr	r3, [r7, #12]
20000234:	2247      	movs	r2, #71	@ 0x47
20000236:	18ba      	adds	r2, r7, r2
20000238:	7812      	ldrb	r2, [r2, #0]
2000023a:	711a      	strb	r2, [r3, #4]
2000023c:	68fb      	ldr	r3, [r7, #12]
2000023e:	681b      	ldr	r3, [r3, #0]
20000240:	62fb      	str	r3, [r7, #44]	@ 0x2c
20000242:	6c3b      	ldr	r3, [r7, #64]	@ 0x40
20000244:	62bb      	str	r3, [r7, #40]	@ 0x28
20000246:	6afb      	ldr	r3, [r7, #44]	@ 0x2c
20000248:	627b      	str	r3, [r7, #36]	@ 0x24
2000024a:	f3bf 8f5f 	dmb	sy
2000024e:	46c0      	nop			@ (mov r8, r8)
20000250:	46c0      	nop			@ (mov r8, r8)
20000252:	6a7b      	ldr	r3, [r7, #36]	@ 0x24
20000254:	2200      	movs	r2, #0
20000256:	601a      	str	r2, [r3, #0]
20000258:	46c0      	nop			@ (mov r8, r8)
2000025a:	6abb      	ldr	r3, [r7, #40]	@ 0x28
2000025c:	623b      	str	r3, [r7, #32]
2000025e:	6a3b      	ldr	r3, [r7, #32]
20000260:	f383 8810 	msr	PRIMASK, r3
20000264:	46c0      	nop			@ (mov r8, r8)
20000266:	46c0      	nop			@ (mov r8, r8)
20000268:	2301      	movs	r3, #1
2000026a:	e01e      	b.n	200002aa <mutex_enter_block_until+0xe2>
2000026c:	68fb      	ldr	r3, [r7, #12]
2000026e:	681b      	ldr	r3, [r3, #0]
20000270:	61fb      	str	r3, [r7, #28]
20000272:	6c3b      	ldr	r3, [r7, #64]	@ 0x40
20000274:	61bb      	str	r3, [r7, #24]
20000276:	69fb      	ldr	r3, [r7, #28]
20000278:	617b      	str	r3, [r7, #20]
2000027a:	f3bf 8f5f 	dmb	sy
2000027e:	46c0      	nop			@ (mov r8, r8)
20000280:	46c0      	nop			@ (mov r8, r8)
20000282:	697b      	ldr	r3, [r7, #20]
20000284:	2200      	movs	r2, #0
20000286:	601a      	str	r2, [r3, #0]
20000288:	46c0      	nop			@ (mov r8, r8)
2000028a:	69bb      	ldr	r3, [r7, #24]
2000028c:	613b      	str	r3, [r7, #16]
2000028e:	693b      	ldr	r3, [r7, #16]
20000290:	f383 8810 	msr	PRIMASK, r3
20000294:	46c0      	nop			@ (mov r8, r8)
20000296:	46c0      	nop			@ (mov r8, r8)
20000298:	683a      	ldr	r2, [r7, #0]
2000029a:	687b      	ldr	r3, [r7, #4]
2000029c:	0010      	movs	r0, r2
2000029e:	0019      	movs	r1, r3
200002a0:	f000 f926 	bl	200004f0 <__best_effort_wfe_or_timeout_veneer>
200002a4:	1e03      	subs	r3, r0, #0
200002a6:	d0a5      	beq.n	200001f4 <mutex_enter_block_until+0x2c>
200002a8:	2300      	movs	r3, #0
200002aa:	0018      	movs	r0, r3
200002ac:	46bd      	mov	sp, r7
200002ae:	b012      	add	sp, #72	@ 0x48
200002b0:	bd80      	pop	{r7, pc}
200002b2:	46c0      	nop			@ (mov r8, r8)
200002b4:	10009714 	.word	0x10009714
200002b8:	10009760 	.word	0x10009760
200002bc:	100096dc 	.word	0x100096dc

200002c0 <mutex_exit>:
200002c0:	b580      	push	{r7, lr}
200002c2:	b08c      	sub	sp, #48	@ 0x30
200002c4:	af00      	add	r7, sp, #0
200002c6:	6078      	str	r0, [r7, #4]
200002c8:	687b      	ldr	r3, [r7, #4]
200002ca:	681b      	ldr	r3, [r3, #0]
200002cc:	62bb      	str	r3, [r7, #40]	@ 0x28
200002ce:	f3ef 8310 	mrs	r3, PRIMASK
200002d2:	b672      	cpsid	i
200002d4:	627b      	str	r3, [r7, #36]	@ 0x24
200002d6:	6a7b      	ldr	r3, [r7, #36]	@ 0x24
200002d8:	623b      	str	r3, [r7, #32]
200002da:	6abb      	ldr	r3, [r7, #40]	@ 0x28
200002dc:	61fb      	str	r3, [r7, #28]
200002de:	46c0      	nop			@ (mov r8, r8)
200002e0:	69fb      	ldr	r3, [r7, #28]
200002e2:	681b      	ldr	r3, [r3, #0]
200002e4:	425a      	negs	r2, r3
200002e6:	4153      	adcs	r3, r2
200002e8:	b2db      	uxtb	r3, r3
200002ea:	2b00      	cmp	r3, #0
200002ec:	d1f8      	bne.n	200002e0 <mutex_exit+0x20>
200002ee:	f3bf 8f5f 	dmb	sy
200002f2:	46c0      	nop			@ (mov r8, r8)
200002f4:	46c0      	nop			@ (mov r8, r8)
200002f6:	46c0      	nop			@ (mov r8, r8)
200002f8:	6a3b      	ldr	r3, [r7, #32]
200002fa:	62fb      	str	r3, [r7, #44]	@ 0x2c
200002fc:	687b      	ldr	r3, [r7, #4]
200002fe:	791b      	ldrb	r3, [r3, #4]
20000300:	b25b      	sxtb	r3, r3
20000302:	2b00      	cmp	r3, #0
20000304:	da05      	bge.n	20000312 <mutex_exit+0x52>
20000306:	4b12      	ldr	r3, [pc, #72]	@ (20000350 <mutex_exit+0x90>)
20000308:	4a12      	ldr	r2, [pc, #72]	@ (20000354 <mutex_exit+0x94>)
2000030a:	4813      	ldr	r0, [pc, #76]	@ (20000358 <mutex_exit+0x98>)
2000030c:	21b4      	movs	r1, #180	@ 0xb4
2000030e:	f000 f8d7 	bl	200004c0 <____assert_func_veneer>
20000312:	687b      	ldr	r3, [r7, #4]
20000314:	22ff      	movs	r2, #255	@ 0xff
20000316:	711a      	strb	r2, [r3, #4]
20000318:	687b      	ldr	r3, [r7, #4]
2000031a:	681b      	ldr	r3, [r3, #0]
2000031c:	61bb      	str	r3, [r7, #24]
2000031e:	6afb      	ldr	r3, [r7, #44]	@ 0x2c
20000320:	617b      	str	r3, [r7, #20]
20000322:	69bb      	ldr	r3, [r7, #24]
20000324:	613b      	str	r3, [r7, #16]
20000326:	f3bf 8f5f 	dmb	sy
2000032a:	46c0      	nop			@ (mov r8, r8)
2000032c:	46c0      	nop			@ (mov r8, r8)
2000032e:	693b      	ldr	r3, [r7, #16]
20000330:	2200      	movs	r2, #0
20000332:	601a      	str	r2, [r3, #0]
20000334:	46c0      	nop			@ (mov r8, r8)
20000336:	697b      	ldr	r3, [r7, #20]
20000338:	60fb      	str	r3, [r7, #12]
2000033a:	68fb      	ldr	r3, [r7, #12]
2000033c:	f383 8810 	msr	PRIMASK, r3
20000340:	46c0      	nop			@ (mov r8, r8)
20000342:	46c0      	nop			@ (mov r8, r8)
20000344:	bf40      	sev
20000346:	46c0      	nop			@ (mov r8, r8)
20000348:	46c0      	nop			@ (mov r8, r8)
2000034a:	46bd      	mov	sp, r7
2000034c:	b00c      	add	sp, #48	@ 0x30
2000034e:	bd80      	pop	{r7, pc}
20000350:	10009728 	.word	0x10009728
20000354:	10009778 	.word	0x10009778
20000358:	100096dc 	.word	0x100096dc

2000035c <spi_write_blocking>:
2000035c:	b590      	push	{r4, r7, lr}
2000035e:	b087      	sub	sp, #28
20000360:	af00      	add	r7, sp, #0
20000362:	60f8      	str	r0, [r7, #12]
20000364:	60b9      	str	r1, [r7, #8]
20000366:	607a      	str	r2, [r7, #4]
20000368:	2300      	movs	r3, #0
2000036a:	617b      	str	r3, [r7, #20]
2000036c:	e019      	b.n	200003a2 <spi_write_blocking+0x46>
2000036e:	46c0      	nop			@ (mov r8, r8)
20000370:	68fb      	ldr	r3, [r7, #12]
20000372:	0018      	movs	r0, r3
20000374:	f000 f8ac 	bl	200004d0 <__spi_is_writable_veneer>
20000378:	0003      	movs	r3, r0
2000037a:	001a      	movs	r2, r3
2000037c:	2301      	movs	r3, #1
2000037e:	4053      	eors	r3, r2
20000380:	b2db      	uxtb	r3, r3
20000382:	2b00      	cmp	r3, #0
20000384:	d1f3      	bne.n	2000036e <spi_write_blocking+0x12>
20000386:	68ba      	ldr	r2, [r7, #8]
20000388:	697b      	ldr	r3, [r7, #20]
2000038a:	18d3      	adds	r3, r2, r3
2000038c:	781c      	ldrb	r4, [r3, #0]
2000038e:	68fb      	ldr	r3, [r7, #12]
20000390:	0018      	movs	r0, r3
20000392:	f000 f8a5 	bl	200004e0 <__spi_get_hw_veneer>
20000396:	0003      	movs	r3, r0
20000398:	0022      	movs	r2, r4
2000039a:	609a      	str	r2, [r3, #8]
2000039c:	697b      	ldr	r3, [r7, #20]
2000039e:	3301      	adds	r3, #1
200003a0:	617b      	str	r3, [r7, #20]
200003a2:	697a      	ldr	r2, [r7, #20]
200003a4:	687b      	ldr	r3, [r7, #4]
200003a6:	429a      	cmp	r2, r3
200003a8:	d3e2      	bcc.n	20000370 <spi_write_blocking+0x14>
200003aa:	e005      	b.n	200003b8 <spi_write_blocking+0x5c>
200003ac:	68fb      	ldr	r3, [r7, #12]
200003ae:	0018      	movs	r0, r3
200003b0:	f000 f896 	bl	200004e0 <__spi_get_hw_veneer>
200003b4:	0003      	movs	r3, r0
200003b6:	689b      	ldr	r3, [r3, #8]
200003b8:	68fb      	ldr	r3, [r7, #12]
200003ba:	0018      	movs	r0, r3
200003bc:	f000 f878 	bl	200004b0 <__spi_is_readable_veneer>
200003c0:	1e03      	subs	r3, r0, #0
200003c2:	d1f3      	bne.n	200003ac <spi_write_blocking+0x50>
200003c4:	e000      	b.n	200003c8 <spi_write_blocking+0x6c>
200003c6:	46c0      	nop			@ (mov r8, r8)
200003c8:	68fb      	ldr	r3, [r7, #12]
200003ca:	0018      	movs	r0, r3
200003cc:	f000 f888 	bl	200004e0 <__spi_get_hw_veneer>
200003d0:	0003      	movs	r3, r0
200003d2:	68db      	ldr	r3, [r3, #12]
200003d4:	2210      	movs	r2, #16
200003d6:	4013      	ands	r3, r2
200003d8:	d1f5      	bne.n	200003c6 <spi_write_blocking+0x6a>
200003da:	e005      	b.n	200003e8 <spi_write_blocking+0x8c>
200003dc:	68fb      	ldr	r3, [r7, #12]
200003de:	0018      	movs	r0, r3
200003e0:	f000 f87e 	bl	200004e0 <__spi_get_hw_veneer>
200003e4:	0003      	movs	r3, r0
200003e6:	689b      	ldr	r3, [r3, #8]
200003e8:	68fb      	ldr	r3, [r7, #12]
200003ea:	0018      	movs	r0, r3
200003ec:	f000 f860 	bl	200004b0 <__spi_is_readable_veneer>
200003f0:	1e03      	subs	r3, r0, #0
200003f2:	d1f3      	bne.n	200003dc <spi_write_blocking+0x80>
200003f4:	68fb      	ldr	r3, [r7, #12]
200003f6:	0018      	movs	r0, r3
200003f8:	f000 f872 	bl	200004e0 <__spi_get_hw_veneer>
200003fc:	0003      	movs	r3, r0
200003fe:	2201      	movs	r2, #1
20000400:	621a      	str	r2, [r3, #32]
20000402:	687b      	ldr	r3, [r7, #4]
20000404:	0018      	movs	r0, r3
20000406:	46bd      	mov	sp, r7
20000408:	b007      	add	sp, #28
2000040a:	bd90      	pop	{r4, r7, pc}

2000040c <spi_read_blocking>:
2000040c:	b580      	push	{r7, lr}
2000040e:	b088      	sub	sp, #32
20000410:	af00      	add	r7, sp, #0
20000412:	60f8      	str	r0, [r7, #12]
20000414:	607a      	str	r2, [r7, #4]
20000416:	603b      	str	r3, [r7, #0]
20000418:	230b      	movs	r3, #11
2000041a:	18fb      	adds	r3, r7, r3
2000041c:	1c0a      	adds	r2, r1, #0
2000041e:	701a      	strb	r2, [r3, #0]
20000420:	2308      	movs	r3, #8
20000422:	617b      	str	r3, [r7, #20]
20000424:	683b      	ldr	r3, [r7, #0]
20000426:	61fb      	str	r3, [r7, #28]
20000428:	683b      	ldr	r3, [r7, #0]
2000042a:	61bb      	str	r3, [r7, #24]
2000042c:	e031      	b.n	20000492 <spi_read_blocking+0x86>
2000042e:	69bb      	ldr	r3, [r7, #24]
20000430:	2b00      	cmp	r3, #0
20000432:	d017      	beq.n	20000464 <spi_read_blocking+0x58>
20000434:	68fb      	ldr	r3, [r7, #12]
20000436:	0018      	movs	r0, r3
20000438:	f000 f84a 	bl	200004d0 <__spi_is_writable_veneer>
2000043c:	1e03      	subs	r3, r0, #0
2000043e:	d011      	beq.n	20000464 <spi_read_blocking+0x58>
20000440:	69ba      	ldr	r2, [r7, #24]
20000442:	697b      	ldr	r3, [r7, #20]
20000444:	18d3      	adds	r3, r2, r3
20000446:	69fa      	ldr	r2, [r7, #28]
20000448:	429a      	cmp	r2, r3
2000044a:	d20b      	bcs.n	20000464 <spi_read_blocking+0x58>
2000044c:	68fb      	ldr	r3, [r7, #12]
2000044e:	0018      	movs	r0, r3
20000450:	f000 f846 	bl	200004e0 <__spi_get_hw_veneer>
20000454:	0003      	movs	r3, r0
20000456:	220b      	movs	r2, #11
20000458:	18ba      	adds	r2, r7, r2
2000045a:	7812      	ldrb	r2, [r2, #0]
2000045c:	609a      	str	r2, [r3, #8]
2000045e:	69bb      	ldr	r3, [r7, #24]
20000460:	3b01      	subs	r3, #1
20000462:	61bb      	str	r3, [r7, #24]
20000464:	69fb      	ldr	r3, [r7, #28]
20000466:	2b00      	cmp	r3, #0
20000468:	d013      	beq.n	20000492 <spi_read_blocking+0x86>
2000046a:	68fb      	ldr	r3, [r7, #12]
2000046c:	0018      	movs	r0, r3
2000046e:	f000 f81f 	bl	200004b0 <__spi_is_readable_veneer>
20000472:	1e03      	subs	r3, r0, #0
20000474:	d00d      	beq.n	20000492 <spi_read_blocking+0x86>
20000476:	68fb      	ldr	r3, [r7, #12]
20000478:	0018      	movs	r0, r3
2000047a:	f000 f831 	bl	200004e0 <__spi_get_hw_veneer>
2000047e:	0003      	movs	r3, r0
20000480:	6899      	ldr	r1, [r3, #8]
20000482:	687b      	ldr	r3, [r7, #4]
20000484:	1c5a      	adds	r2, r3, #1
20000486:	607a      	str	r2, [r7, #4]
20000488:	b2ca      	uxtb	r2, r1
2000048a:	701a      	strb	r2, [r3, #0]
2000048c:	69fb      	ldr	r3, [r7, #28]
2000048e:	3b01      	subs	r3, #1
20000490:	61fb      	str	r3, [r7, #28]
20000492:	69fb      	ldr	r3, [r7, #28]
20000494:	2b00      	cmp	r3, #0
20000496:	d1ca      	bne.n	2000042e <spi_read_blocking+0x22>
20000498:	69bb      	ldr	r3, [r7, #24]
2000049a:	2b00      	cmp	r3, #0
2000049c:	d1c7      	bne.n	2000042e <spi_read_blocking+0x22>
2000049e:	683b      	ldr	r3, [r7, #0]
200004a0:	0018      	movs	r0, r3
200004a2:	46bd      	mov	sp, r7
200004a4:	b008      	add	sp, #32
200004a6:	bd80      	pop	{r7, pc}

200004a8 <__aeabi_idiv0>:
200004a8:	4770      	bx	lr
200004aa:	46c0      	nop			@ (mov r8, r8)
200004ac:	0000      	movs	r0, r0
	...

200004b0 <__spi_is_readable_veneer>:
200004b0:	b401      	push	{r0}
200004b2:	4802      	ldr	r0, [pc, #8]	@ (200004bc <__spi_is_readable_veneer+0xc>)
200004b4:	4684      	mov	ip, r0
200004b6:	bc01      	pop	{r0}
200004b8:	4760      	bx	ip
200004ba:	bf00      	nop
200004bc:	100072dd 	.word	0x100072dd

200004c0 <____assert_func_veneer>:
200004c0:	b401      	push	{r0}
200004c2:	4802      	ldr	r0, [pc, #8]	@ (200004cc <____assert_func_veneer+0xc>)
200004c4:	4684      	mov	ip, r0
200004c6:	bc01      	pop	{r0}
200004c8:	4760      	bx	ip
200004ca:	bf00      	nop
200004cc:	10003d79 	.word	0x10003d79

200004d0 <__spi_is_writable_veneer>:
200004d0:	b401      	push	{r0}
200004d2:	4802      	ldr	r0, [pc, #8]	@ (200004dc <__spi_is_writable_veneer+0xc>)
200004d4:	4684      	mov	ip, r0
200004d6:	bc01      	pop	{r0}
200004d8:	4760      	bx	ip
200004da:	bf00      	nop
200004dc:	100072b7 	.word	0x100072b7

200004e0 <__spi_get_hw_veneer>:
200004e0:	b401      	push	{r0}
200004e2:	4802      	ldr	r0, [pc, #8]	@ (200004ec <__spi_get_hw_veneer+0xc>)
200004e4:	4684      	mov	ip, r0
200004e6:	bc01      	pop	{r0}
200004e8:	4760      	bx	ip
200004ea:	bf00      	nop
200004ec:	100071c9 	.word	0x100071c9

200004f0 <__best_effort_wfe_or_timeout_veneer>:
200004f0:	b401      	push	{r0}
200004f2:	4802      	ldr	r0, [pc, #8]	@ (200004fc <__best_effort_wfe_or_timeout_veneer+0xc>)
200004f4:	4684      	mov	ip, r0
200004f6:	bc01      	pop	{r0}
200004f8:	4760      	bx	ip
200004fa:	bf00      	nop
200004fc:	100023c1 	.word	0x100023c1

20000500 <striped_spin_lock_num>:
20000500:	00000010                                ....

20000504 <irq_handler_chain_slots>:
20000504:	00000000 	.word	0x00000000
20000508:	00010000 	.word	0x00010000
	...
20000514:	00020000 	.word	0x00020000
	...
20000520:	00030000 	.word	0x00030000
	...
2000052c:	00ff0000 	.word	0x00ff0000
20000530:	00000000 	.word	0x00000000

20000534 <irq_handler_chain_first_slot>:
20000534:	b501      	push	{r0, lr}
20000536:	6848      	ldr	r0, [r1, #4]
20000538:	3101      	adds	r1, #1
2000053a:	468e      	mov	lr, r1
2000053c:	4700      	bx	r0

2000053e <irq_handler_chain_remove_tail>:
2000053e:	4670      	mov	r0, lr
20000540:	3809      	subs	r0, #9
20000542:	4901      	ldr	r1, [pc, #4]	@ (20000548 <irq_handler_chain_remove_tail+0xa>)
20000544:	4788      	blx	r1
20000546:	bd01      	pop	{r0, pc}
20000548:	10001001 	.word	0x10001001

2000054c <default_alarm_pool_heap>:
2000054c:	20000738 00000000 00000000 00000010     8.. ............

2000055c <default_alarm_pool>:
2000055c:	2000054c 00000000 200005d8 20000728     L.. ....... (.. 
	...

20000580 <aeabi_bits_funcs>:
20000580:	00003350 	.word	0x00003350
20000584:	0000334c 	.word	0x0000334c
20000588:	00003354 	.word	0x00003354
2000058c:	00003352 	.word	0x00003352

20000590 <aeabi_bits_funcs_end>:
20000590:	0000534d 	.word	0x0000534d
20000594:	0000434d 	.word	0x0000434d
20000598:	00003453 	.word	0x00003453
2000059c:	00003443 	.word	0x00003443

200005a0 <stdio_uart>:
200005a0:	10006fad 00000000 10006fed 10007099     .o.......o...p..
200005b0:	00000000 00000100                       ........

200005b8 <print_mutex>:
	...

200005c0 <__mutex_array_end>:
200005c0:	100066b9 	.word	0x100066b9
200005c4:	100056d5 	.word	0x100056d5
200005c8:	10005e89 	.word	0x10005e89
200005cc:	10006555 	.word	0x10006555

200005d0 <__frame_dummy_init_array_entry>:
200005d0:	100002e5                                ....
